
/tmp/arduino/sketches/E9F9D96357C989D7C97CED5B7A1D6FFD/OnlyCell.ino.elf:     file format elf32-avr


Disassembly of section .text:

00000000 <__vectors>:
__vectors():
../../../../crt1/gcrt1.S:65
       0:	0c 94 2b 01 	jmp	0x256	; 0x256 <__dtors_end>
../../../../crt1/gcrt1.S:67
       4:	0c 94 53 01 	jmp	0x2a6	; 0x2a6 <__bad_interrupt>
../../../../crt1/gcrt1.S:68
       8:	0c 94 53 01 	jmp	0x2a6	; 0x2a6 <__bad_interrupt>
../../../../crt1/gcrt1.S:69
       c:	0c 94 53 01 	jmp	0x2a6	; 0x2a6 <__bad_interrupt>
../../../../crt1/gcrt1.S:70
      10:	0c 94 53 01 	jmp	0x2a6	; 0x2a6 <__bad_interrupt>
../../../../crt1/gcrt1.S:71
      14:	0c 94 53 01 	jmp	0x2a6	; 0x2a6 <__bad_interrupt>
../../../../crt1/gcrt1.S:72
      18:	0c 94 53 01 	jmp	0x2a6	; 0x2a6 <__bad_interrupt>
../../../../crt1/gcrt1.S:73
      1c:	0c 94 53 01 	jmp	0x2a6	; 0x2a6 <__bad_interrupt>
../../../../crt1/gcrt1.S:74
      20:	0c 94 53 01 	jmp	0x2a6	; 0x2a6 <__bad_interrupt>
../../../../crt1/gcrt1.S:75
      24:	0c 94 53 01 	jmp	0x2a6	; 0x2a6 <__bad_interrupt>
../../../../crt1/gcrt1.S:76
      28:	0c 94 53 01 	jmp	0x2a6	; 0x2a6 <__bad_interrupt>
../../../../crt1/gcrt1.S:77
      2c:	0c 94 5f 0d 	jmp	0x1abe	; 0x1abe <__vector_11>
../../../../crt1/gcrt1.S:78
      30:	0c 94 53 01 	jmp	0x2a6	; 0x2a6 <__bad_interrupt>
../../../../crt1/gcrt1.S:79
      34:	0c 94 53 01 	jmp	0x2a6	; 0x2a6 <__bad_interrupt>
../../../../crt1/gcrt1.S:80
      38:	0c 94 53 01 	jmp	0x2a6	; 0x2a6 <__bad_interrupt>
../../../../crt1/gcrt1.S:81
      3c:	0c 94 53 01 	jmp	0x2a6	; 0x2a6 <__bad_interrupt>
../../../../crt1/gcrt1.S:82
      40:	0c 94 91 0b 	jmp	0x1722	; 0x1722 <__vector_16>
../../../../crt1/gcrt1.S:83
      44:	0c 94 53 01 	jmp	0x2a6	; 0x2a6 <__bad_interrupt>
../../../../crt1/gcrt1.S:84
      48:	0c 94 01 0c 	jmp	0x1802	; 0x1802 <__vector_18>
../../../../crt1/gcrt1.S:85
      4c:	0c 94 db 0b 	jmp	0x17b6	; 0x17b6 <__vector_19>
../../../../crt1/gcrt1.S:86
      50:	0c 94 53 01 	jmp	0x2a6	; 0x2a6 <__bad_interrupt>
../../../../crt1/gcrt1.S:87
      54:	0c 94 53 01 	jmp	0x2a6	; 0x2a6 <__bad_interrupt>
../../../../crt1/gcrt1.S:88
      58:	0c 94 53 01 	jmp	0x2a6	; 0x2a6 <__bad_interrupt>
../../../../crt1/gcrt1.S:89
      5c:	0c 94 53 01 	jmp	0x2a6	; 0x2a6 <__bad_interrupt>
../../../../crt1/gcrt1.S:90
      60:	0c 94 33 0c 	jmp	0x1866	; 0x1866 <__vector_24>
../../../../crt1/gcrt1.S:91
      64:	0c 94 53 01 	jmp	0x2a6	; 0x2a6 <__bad_interrupt>
../../../../crt1/gcrt1.S:92
      68:	0c 94 53 01 	jmp	0x2a6	; 0x2a6 <__bad_interrupt>
../../../../crt1/gcrt1.S:93
      6c:	0c 94 53 01 	jmp	0x2a6	; 0x2a6 <__bad_interrupt>
../../../../crt1/gcrt1.S:94
      70:	0c 94 53 01 	jmp	0x2a6	; 0x2a6 <__bad_interrupt>
../../../../crt1/gcrt1.S:95
      74:	0c 94 53 01 	jmp	0x2a6	; 0x2a6 <__bad_interrupt>
../../../../crt1/gcrt1.S:96
      78:	0c 94 53 01 	jmp	0x2a6	; 0x2a6 <__bad_interrupt>
../../../../crt1/gcrt1.S:97
      7c:	0c 94 53 01 	jmp	0x2a6	; 0x2a6 <__bad_interrupt>
../../../../crt1/gcrt1.S:98
      80:	0c 94 53 01 	jmp	0x2a6	; 0x2a6 <__bad_interrupt>
../../../../crt1/gcrt1.S:99
      84:	0c 94 53 01 	jmp	0x2a6	; 0x2a6 <__bad_interrupt>
../../../../crt1/gcrt1.S:100
      88:	0c 94 53 01 	jmp	0x2a6	; 0x2a6 <__bad_interrupt>
../../../../crt1/gcrt1.S:101
      8c:	0c 94 53 01 	jmp	0x2a6	; 0x2a6 <__bad_interrupt>
../../../../crt1/gcrt1.S:102
      90:	0c 94 53 01 	jmp	0x2a6	; 0x2a6 <__bad_interrupt>
../../../../crt1/gcrt1.S:103
      94:	0c 94 53 01 	jmp	0x2a6	; 0x2a6 <__bad_interrupt>
../../../../crt1/gcrt1.S:104
      98:	0c 94 53 01 	jmp	0x2a6	; 0x2a6 <__bad_interrupt>
../../../../crt1/gcrt1.S:105
      9c:	0c 94 53 01 	jmp	0x2a6	; 0x2a6 <__bad_interrupt>
../../../../crt1/gcrt1.S:106
      a0:	0c 94 53 01 	jmp	0x2a6	; 0x2a6 <__bad_interrupt>
../../../../crt1/gcrt1.S:107
      a4:	0c 94 53 01 	jmp	0x2a6	; 0x2a6 <__bad_interrupt>
../../../../crt1/gcrt1.S:108
      a8:	0c 94 53 01 	jmp	0x2a6	; 0x2a6 <__bad_interrupt>
../../../../crt1/gcrt1.S:109
      ac:	0c 94 53 01 	jmp	0x2a6	; 0x2a6 <__bad_interrupt>
../../../../crt1/gcrt1.S:110
      b0:	0c 94 53 01 	jmp	0x2a6	; 0x2a6 <__bad_interrupt>

000000b4 <__trampolines_end>:
__trampolines_start():
      b4:	4e 41       	sbci	r20, 0x1E	; 30
      b6:	4e 49       	Address 0x00000000000000b6 is out of bounds.
.word	0xffff	; ????

000000b7 <pstr_inity>:
      b7:	49 4e 49 54 59                                      INITY

000000bc <pstr_inf>:
      bc:	49 4e 46                                            INF

000000bf <pwr_m10>:
      bf:	cd cc cc 3d 0a d7 23 3c 17 b7 d1 38 77 cc 2b 32     ...=..#<...8w.+2
      cf:	95 95 e6 24 1f b1 4f 0a                             ...$..O.

000000d7 <pwr_p10>:
      d7:	00 00 20 41 00 00 c8 42 00 40 1c 46 20 bc be 4c     .. A...B.@.F ..L
      e7:	ca 1b 0e 5a ae c5 9d 74 00 40 7a 10 f3 5a 00 a0     ...Z...t.@z..Z..
      f7:	72 4e 18 09 00 10 a5 d4 e8 00 00 e8 76 48 17 00     rN..........vH..
     107:	00 e4 0b 54 02 00 00 ca 9a 3b 00 00 00 e1 f5 05     ...T.....;......
     117:	00 00 80 96 98 00 00 00 40 42 0f 00 00 00 a0 86     ........@B......
     127:	01 00 00 00 10 27 00 00 00 00 e8 03 00 00 00 00     .....'..........
     137:	64 00 00 00 00 00 0a 00 00 00 00 00 01 00 00 00     d...............
     147:	00 00 2c 76 d8 88 dc 67 4f 08 23 df c1 df ae 59     ..,v...gO.#....Y
     157:	e1 b1 b7 96 e5 e3 e4 53 c6 3a e6 51 99 76 96 e8     .......S.:.Q.v..
     167:	e6 c2 84 26 eb 89 8c 9b 62 ed 40 7c 6f fc ef bc     ...&....b.@|o...
     177:	9c 9f 40 f2 ba a5 6f a5 f4 90 05 5a 2a f7 5c 93     ..@...o....Z*.\.
     187:	6b 6c f9 67 6d c1 1b fc e0 e4 0d 47 fe f5 20 e6     kl.gm......G.. .
     197:	b5 00 d0 ed 90 2e 03 00 94 35 77 05 00 80 84 1e     .........5w.....
     1a7:	08 00 00 20 4e 0a 00 00 00 c8 0c 33 33 33 33 0f     ... N......3333.
     1b7:	98 6e 12 83 11 41 ef 8d 21 14 89 3b e6 55 16 cf     .n...A..!..;.U..
     1c7:	fe e6 db 18 d1 84 4b 38 1b f7 7c 1d 90 1d a4 bb     ......K8..|.....
     1d7:	e4 24 20 32 84 72 5e 22 81 00 c9 f1 24 ec a1 e5     .$ 2.r^"....$...
     1e7:	3d 27                                               ='

000001e9 <port_to_mode_PGM>:
     1e9:	00 00 00 00 24 00 27 00 2a 00 2d 00                 ....$.'.*.-.

000001f5 <port_to_output_PGM>:
     1f5:	00 00 00 00 25 00 28 00 2b 00 2e 00                 ....%.(.+...

00000201 <digital_pin_to_port_PGM>:
     201:	04 04 04 04 04 04 04 04 02 02 02 02 02 02 03 03     ................
     211:	03 03 03 03 02 02 03 05 05 05 05                    ...........

0000021c <digital_pin_to_bit_mask_PGM>:
     21c:	01 02 04 08 10 20 40 80 01 02 04 08 10 20 01 02     ..... @...... ..
     22c:	04 08 10 20 40 80 40 01 02 04 08                    ... @.@....

00000237 <digital_pin_to_timer_PGM>:
     237:	0a 0d 0e 09 00 03 02 00 00 04 05 08 00 00 00 00     ................
	...

00000252 <__ctors_start>:
__ctors_start():
     252:	0e 0e       	add	r0, r30

00000254 <__ctors_end>:
__dtors_start():
     254:	48 18       	sub	r4, r8

00000256 <__dtors_end>:
__dtors_end():
../../../../crt1/gcrt1.S:230
     256:	11 24       	eor	r1, r1
../../../../crt1/gcrt1.S:231
     258:	1f be       	out	0x3f, r1	; 63
../../../../crt1/gcrt1.S:232
     25a:	cf ef       	ldi	r28, 0xFF	; 255
../../../../crt1/gcrt1.S:241
     25c:	d8 e0       	ldi	r29, 0x08	; 8
../../../../crt1/gcrt1.S:242
     25e:	de bf       	out	0x3e, r29	; 62
../../../../crt1/gcrt1.S:244
     260:	cd bf       	out	0x3d, r28	; 61

00000262 <__do_clear_bss>:
__do_clear_bss():
/home/jenkins/workspace/avr-gcc-staging/label/debian7-x86_64/gcc-build/avr/avr5/libgcc/../../../../gcc/libgcc/config/avr/lib1funcs.S:2441
     262:	25 e0       	ldi	r18, 0x05	; 5
/home/jenkins/workspace/avr-gcc-staging/label/debian7-x86_64/gcc-build/avr/avr5/libgcc/../../../../gcc/libgcc/config/avr/lib1funcs.S:2442
     264:	a4 e7       	ldi	r26, 0x74	; 116
/home/jenkins/workspace/avr-gcc-staging/label/debian7-x86_64/gcc-build/avr/avr5/libgcc/../../../../gcc/libgcc/config/avr/lib1funcs.S:2443
     266:	b3 e0       	ldi	r27, 0x03	; 3
/home/jenkins/workspace/avr-gcc-staging/label/debian7-x86_64/gcc-build/avr/avr5/libgcc/../../../../gcc/libgcc/config/avr/lib1funcs.S:2444
     268:	01 c0       	rjmp	.+2      	; 0x26c <.do_clear_bss_start>

0000026a <.do_clear_bss_loop>:
/home/jenkins/workspace/avr-gcc-staging/label/debian7-x86_64/gcc-build/avr/avr5/libgcc/../../../../gcc/libgcc/config/avr/lib1funcs.S:2446
     26a:	1d 92       	st	X+, r1

0000026c <.do_clear_bss_start>:
/home/jenkins/workspace/avr-gcc-staging/label/debian7-x86_64/gcc-build/avr/avr5/libgcc/../../../../gcc/libgcc/config/avr/lib1funcs.S:2448
     26c:	a6 3d       	cpi	r26, 0xD6	; 214
/home/jenkins/workspace/avr-gcc-staging/label/debian7-x86_64/gcc-build/avr/avr5/libgcc/../../../../gcc/libgcc/config/avr/lib1funcs.S:2449
     26e:	b2 07       	cpc	r27, r18
/home/jenkins/workspace/avr-gcc-staging/label/debian7-x86_64/gcc-build/avr/avr5/libgcc/../../../../gcc/libgcc/config/avr/lib1funcs.S:2450
     270:	e1 f7       	brne	.-8      	; 0x26a <.do_clear_bss_loop>

00000272 <__do_copy_data>:
__do_copy_data():
/home/jenkins/workspace/avr-gcc-staging/label/debian7-x86_64/gcc-build/avr/avr5/libgcc/../../../../gcc/libgcc/config/avr/lib1funcs.S:2409
     272:	13 e0       	ldi	r17, 0x03	; 3
/home/jenkins/workspace/avr-gcc-staging/label/debian7-x86_64/gcc-build/avr/avr5/libgcc/../../../../gcc/libgcc/config/avr/lib1funcs.S:2410
     274:	a0 e0       	ldi	r26, 0x00	; 0
/home/jenkins/workspace/avr-gcc-staging/label/debian7-x86_64/gcc-build/avr/avr5/libgcc/../../../../gcc/libgcc/config/avr/lib1funcs.S:2411
     276:	b1 e0       	ldi	r27, 0x01	; 1
/home/jenkins/workspace/avr-gcc-staging/label/debian7-x86_64/gcc-build/avr/avr5/libgcc/../../../../gcc/libgcc/config/avr/lib1funcs.S:2412
     278:	ec e0       	ldi	r30, 0x0C	; 12
/home/jenkins/workspace/avr-gcc-staging/label/debian7-x86_64/gcc-build/avr/avr5/libgcc/../../../../gcc/libgcc/config/avr/lib1funcs.S:2413
     27a:	f9 e4       	ldi	r31, 0x49	; 73
/home/jenkins/workspace/avr-gcc-staging/label/debian7-x86_64/gcc-build/avr/avr5/libgcc/../../../../gcc/libgcc/config/avr/lib1funcs.S:2414
     27c:	02 c0       	rjmp	.+4      	; 0x282 <__do_copy_data+0x10>
/home/jenkins/workspace/avr-gcc-staging/label/debian7-x86_64/gcc-build/avr/avr5/libgcc/../../../../gcc/libgcc/config/avr/lib1funcs.S:2417
     27e:	05 90       	lpm	r0, Z+
/home/jenkins/workspace/avr-gcc-staging/label/debian7-x86_64/gcc-build/avr/avr5/libgcc/../../../../gcc/libgcc/config/avr/lib1funcs.S:2422
     280:	0d 92       	st	X+, r0
/home/jenkins/workspace/avr-gcc-staging/label/debian7-x86_64/gcc-build/avr/avr5/libgcc/../../../../gcc/libgcc/config/avr/lib1funcs.S:2424
     282:	a4 37       	cpi	r26, 0x74	; 116
/home/jenkins/workspace/avr-gcc-staging/label/debian7-x86_64/gcc-build/avr/avr5/libgcc/../../../../gcc/libgcc/config/avr/lib1funcs.S:2425
     284:	b1 07       	cpc	r27, r17
/home/jenkins/workspace/avr-gcc-staging/label/debian7-x86_64/gcc-build/avr/avr5/libgcc/../../../../gcc/libgcc/config/avr/lib1funcs.S:2426
     286:	d9 f7       	brne	.-10     	; 0x27e <__do_copy_data+0xc>

00000288 <__do_global_ctors>:
__do_global_ctors():
/home/jenkins/workspace/avr-gcc-staging/label/debian7-x86_64/gcc-build/avr/avr5/libgcc/../../../../gcc/libgcc/config/avr/lib1funcs.S:2466
     288:	11 e0       	ldi	r17, 0x01	; 1
/home/jenkins/workspace/avr-gcc-staging/label/debian7-x86_64/gcc-build/avr/avr5/libgcc/../../../../gcc/libgcc/config/avr/lib1funcs.S:2467
     28a:	ca e2       	ldi	r28, 0x2A	; 42
/home/jenkins/workspace/avr-gcc-staging/label/debian7-x86_64/gcc-build/avr/avr5/libgcc/../../../../gcc/libgcc/config/avr/lib1funcs.S:2468
     28c:	d1 e0       	ldi	r29, 0x01	; 1
/home/jenkins/workspace/avr-gcc-staging/label/debian7-x86_64/gcc-build/avr/avr5/libgcc/../../../../gcc/libgcc/config/avr/lib1funcs.S:2472
     28e:	04 c0       	rjmp	.+8      	; 0x298 <__do_global_ctors+0x10>
/home/jenkins/workspace/avr-gcc-staging/label/debian7-x86_64/gcc-build/avr/avr5/libgcc/../../../../gcc/libgcc/config/avr/lib1funcs.S:2474
     290:	21 97       	sbiw	r28, 0x01	; 1
/home/jenkins/workspace/avr-gcc-staging/label/debian7-x86_64/gcc-build/avr/avr5/libgcc/../../../../gcc/libgcc/config/avr/lib1funcs.S:2480
     292:	fe 01       	movw	r30, r28
/home/jenkins/workspace/avr-gcc-staging/label/debian7-x86_64/gcc-build/avr/avr5/libgcc/../../../../gcc/libgcc/config/avr/lib1funcs.S:2481
     294:	0e 94 1b 22 	call	0x4436	; 0x4436 <__tablejump2__>
/home/jenkins/workspace/avr-gcc-staging/label/debian7-x86_64/gcc-build/avr/avr5/libgcc/../../../../gcc/libgcc/config/avr/lib1funcs.S:2483
     298:	c9 32       	cpi	r28, 0x29	; 41
/home/jenkins/workspace/avr-gcc-staging/label/debian7-x86_64/gcc-build/avr/avr5/libgcc/../../../../gcc/libgcc/config/avr/lib1funcs.S:2484
     29a:	d1 07       	cpc	r29, r17
/home/jenkins/workspace/avr-gcc-staging/label/debian7-x86_64/gcc-build/avr/avr5/libgcc/../../../../gcc/libgcc/config/avr/lib1funcs.S:2489
     29c:	c9 f7       	brne	.-14     	; 0x290 <__do_global_ctors+0x8>
../../../../crt1/gcrt1.S:314
     29e:	0e 94 bf 0f 	call	0x1f7e	; 0x1f7e <main>
../../../../crt1/gcrt1.S:315
     2a2:	0c 94 79 24 	jmp	0x48f2	; 0x48f2 <__do_global_dtors>

000002a6 <__bad_interrupt>:
__vector_38():
../../../../crt1/gcrt1.S:209
     2a6:	0c 94 00 00 	jmp	0	; 0x0 <__vectors>

000002aa <twi_setAddress>:
twi_setAddress():
/home/huser/.arduino15/packages/MiniCore/hardware/avr/3.0.2/libraries/Wire/src/utility/twi.c:131
 * Output   none
 */
void twi_setAddress(uint8_t address)
{
  // set twi slave address (skip over TWGCE bit)
  TWAR = address << 1;
     2aa:	88 0f       	add	r24, r24
     2ac:	80 93 ba 00 	sts	0x00BA, r24	; 0x8000ba <__TEXT_REGION_LENGTH__+0x7f80ba>
/home/huser/.arduino15/packages/MiniCore/hardware/avr/3.0.2/libraries/Wire/src/utility/twi.c:132
}
     2b0:	08 95       	ret

000002b2 <twi_setFrequency>:
twi_setFrequency():
/home/huser/.arduino15/packages/MiniCore/hardware/avr/3.0.2/libraries/Wire/src/utility/twi.c:141
 * Desc     sets twi bit rate
 * Input    Clock frequency
 * Output   none
 */
void twi_setFrequency(uint32_t frequency)
{
     2b2:	9b 01       	movw	r18, r22
     2b4:	ac 01       	movw	r20, r24
/home/huser/.arduino15/packages/MiniCore/hardware/avr/3.0.2/libraries/Wire/src/utility/twi.c:142
  TWBR = ((F_CPU / frequency) - 16) / 2;
     2b6:	60 e0       	ldi	r22, 0x00	; 0
     2b8:	72 e1       	ldi	r23, 0x12	; 18
     2ba:	8a e7       	ldi	r24, 0x7A	; 122
     2bc:	90 e0       	ldi	r25, 0x00	; 0
     2be:	0e 94 f9 21 	call	0x43f2	; 0x43f2 <__udivmodsi4>
     2c2:	20 51       	subi	r18, 0x10	; 16
     2c4:	31 09       	sbc	r19, r1
     2c6:	41 09       	sbc	r20, r1
     2c8:	51 09       	sbc	r21, r1
     2ca:	56 95       	lsr	r21
     2cc:	47 95       	ror	r20
     2ce:	37 95       	ror	r19
     2d0:	27 95       	ror	r18
     2d2:	20 93 b8 00 	sts	0x00B8, r18	; 0x8000b8 <__TEXT_REGION_LENGTH__+0x7f80b8>
/home/huser/.arduino15/packages/MiniCore/hardware/avr/3.0.2/libraries/Wire/src/utility/twi.c:148

  /* twi bit rate formula from atmega128 manual pg 204
  SCL Frequency = CPU Clock Frequency / (16 + (2 * TWBR))
  note: TWBR should be 10 or higher for master mode
  It is 72 for a 16mhz Wiring board with 100kHz TWI */
}
     2d6:	08 95       	ret

000002d8 <twi_reply>:
twi_reply():
/home/huser/.arduino15/packages/MiniCore/hardware/avr/3.0.2/libraries/Wire/src/utility/twi.c:420
 * Output   none
 */
void twi_reply(uint8_t ack)
{
  // transmit master read ready signal, with or without ack
  if(ack){
     2d8:	88 23       	and	r24, r24
     2da:	21 f0       	breq	.+8      	; 0x2e4 <twi_reply+0xc>
/home/huser/.arduino15/packages/MiniCore/hardware/avr/3.0.2/libraries/Wire/src/utility/twi.c:421
    TWCR = _BV(TWEN) | _BV(TWIE) | _BV(TWINT) | _BV(TWEA);
     2dc:	85 ec       	ldi	r24, 0xC5	; 197
/home/huser/.arduino15/packages/MiniCore/hardware/avr/3.0.2/libraries/Wire/src/utility/twi.c:423
  }else{
    TWCR = _BV(TWEN) | _BV(TWIE) | _BV(TWINT);
     2de:	80 93 bc 00 	sts	0x00BC, r24	; 0x8000bc <__TEXT_REGION_LENGTH__+0x7f80bc>
/home/huser/.arduino15/packages/MiniCore/hardware/avr/3.0.2/libraries/Wire/src/utility/twi.c:425
  }
}
     2e2:	08 95       	ret
/home/huser/.arduino15/packages/MiniCore/hardware/avr/3.0.2/libraries/Wire/src/utility/twi.c:423
{
  // transmit master read ready signal, with or without ack
  if(ack){
    TWCR = _BV(TWEN) | _BV(TWIE) | _BV(TWINT) | _BV(TWEA);
  }else{
    TWCR = _BV(TWEN) | _BV(TWIE) | _BV(TWINT);
     2e4:	85 e8       	ldi	r24, 0x85	; 133
     2e6:	fb cf       	rjmp	.-10     	; 0x2de <twi_reply+0x6>

000002e8 <twi_stop>:
twi_stop():
/home/huser/.arduino15/packages/MiniCore/hardware/avr/3.0.2/libraries/Wire/src/utility/twi.c:436
 * Output   none
 */
void twi_stop(void)
{
  // send stop condition
  TWCR = _BV(TWEN) | _BV(TWIE) | _BV(TWEA) | _BV(TWINT) | _BV(TWSTO);
     2e8:	85 ed       	ldi	r24, 0xD5	; 213
     2ea:	80 93 bc 00 	sts	0x00BC, r24	; 0x8000bc <__TEXT_REGION_LENGTH__+0x7f80bc>
/home/huser/.arduino15/packages/MiniCore/hardware/avr/3.0.2/libraries/Wire/src/utility/twi.c:456
          return;
        }
      }
    }
  #else
    while(TWCR & _BV(TWSTO)){
     2ee:	80 91 bc 00 	lds	r24, 0x00BC	; 0x8000bc <__TEXT_REGION_LENGTH__+0x7f80bc>
     2f2:	84 fd       	sbrc	r24, 4
     2f4:	fc cf       	rjmp	.-8      	; 0x2ee <twi_stop+0x6>
/home/huser/.arduino15/packages/MiniCore/hardware/avr/3.0.2/libraries/Wire/src/utility/twi.c:462
      continue;
    }
  #endif

  // update twi state
  twi_state = TWI_READY;
     2f6:	10 92 cd 03 	sts	0x03CD, r1	; 0x8003cd <twi_state>
/home/huser/.arduino15/packages/MiniCore/hardware/avr/3.0.2/libraries/Wire/src/utility/twi.c:463
}
     2fa:	08 95       	ret

000002fc <twi_releaseBus>:
twi_releaseBus():
/home/huser/.arduino15/packages/MiniCore/hardware/avr/3.0.2/libraries/Wire/src/utility/twi.c:474
 * Output   none
 */
void twi_releaseBus(void)
{
  // release bus
  TWCR = _BV(TWEN) | _BV(TWIE) | _BV(TWEA) | _BV(TWINT);
     2fc:	85 ec       	ldi	r24, 0xC5	; 197
     2fe:	80 93 bc 00 	sts	0x00BC, r24	; 0x8000bc <__TEXT_REGION_LENGTH__+0x7f80bc>
/home/huser/.arduino15/packages/MiniCore/hardware/avr/3.0.2/libraries/Wire/src/utility/twi.c:477

  // update twi state
  twi_state = TWI_READY;
     302:	10 92 cd 03 	sts	0x03CD, r1	; 0x8003cd <twi_state>
/home/huser/.arduino15/packages/MiniCore/hardware/avr/3.0.2/libraries/Wire/src/utility/twi.c:478
}
     306:	08 95       	ret

00000308 <digitalWrite>:
digitalWrite():
/home/huser/.arduino15/packages/MiniCore/hardware/avr/3.0.2/cores/MCUdude_corefiles/wiring_digital.c:189
  }
}

void digitalWrite(uint8_t pin, uint8_t val)
{
  uint8_t timer = digitalPinToTimer(pin);
     308:	28 2f       	mov	r18, r24
     30a:	30 e0       	ldi	r19, 0x00	; 0
     30c:	f9 01       	movw	r30, r18
     30e:	e9 5c       	subi	r30, 0xC9	; 201
     310:	fd 4f       	sbci	r31, 0xFD	; 253
     312:	94 91       	lpm	r25, Z
/home/huser/.arduino15/packages/MiniCore/hardware/avr/3.0.2/cores/MCUdude_corefiles/wiring_digital.c:190
  uint8_t bit = digitalPinToBitMask(pin);
     314:	f9 01       	movw	r30, r18
     316:	e4 5e       	subi	r30, 0xE4	; 228
     318:	fd 4f       	sbci	r31, 0xFD	; 253
     31a:	84 91       	lpm	r24, Z
/home/huser/.arduino15/packages/MiniCore/hardware/avr/3.0.2/cores/MCUdude_corefiles/wiring_digital.c:191
  uint8_t port = digitalPinToPort(pin);
     31c:	2f 5f       	subi	r18, 0xFF	; 255
     31e:	3d 4f       	sbci	r19, 0xFD	; 253
     320:	f9 01       	movw	r30, r18
     322:	24 91       	lpm	r18, Z
/home/huser/.arduino15/packages/MiniCore/hardware/avr/3.0.2/cores/MCUdude_corefiles/wiring_digital.c:194
  volatile uint8_t *out;

  if (port == NOT_A_PIN) return;
     324:	22 23       	and	r18, r18
     326:	09 f4       	brne	.+2      	; 0x32a <digitalWrite+0x22>
     328:	2e c0       	rjmp	.+92     	; 0x386 <digitalWrite+0x7e>
/home/huser/.arduino15/packages/MiniCore/hardware/avr/3.0.2/cores/MCUdude_corefiles/wiring_digital.c:198

  // If the pin that support PWM output, we need to turn it off
  // before doing a digital write.
  if (timer != NOT_ON_TIMER) turnOffPWM(timer);
     32a:	99 23       	and	r25, r25
     32c:	d9 f0       	breq	.+54     	; 0x364 <digitalWrite+0x5c>
turnOffPWM():
/home/huser/.arduino15/packages/MiniCore/hardware/avr/3.0.2/cores/MCUdude_corefiles/wiring_digital.c:77
//
//static inline void turnOffPWM(uint8_t timer) __attribute__ ((always_inline));
//static inline void turnOffPWM(uint8_t timer)
static void turnOffPWM(uint8_t timer)
{
  switch (timer)
     32e:	92 50       	subi	r25, 0x02	; 2
     330:	9d 30       	cpi	r25, 0x0D	; 13
     332:	c0 f4       	brcc	.+48     	; 0x364 <digitalWrite+0x5c>
     334:	e9 2f       	mov	r30, r25
     336:	f0 e0       	ldi	r31, 0x00	; 0
     338:	e0 56       	subi	r30, 0x60	; 96
     33a:	fe 4f       	sbci	r31, 0xFE	; 254
     33c:	0c 94 1b 22 	jmp	0x4436	; 0x4436 <__tablejump2__>
     340:	e6 01       	movw	r28, r12
     342:	ea 01       	movw	r28, r20
     344:	ad 01       	movw	r20, r26
     346:	c4 01       	movw	r24, r8
     348:	b2 01       	movw	r22, r4
     34a:	b2 01       	movw	r22, r4
     34c:	c8 01       	movw	r24, r16
     34e:	ce 01       	movw	r24, r28
     350:	d2 01       	movw	r26, r4
     352:	d8 01       	movw	r26, r16
     354:	b2 01       	movw	r22, r4
     356:	dc 01       	movw	r26, r24
     358:	e2 01       	movw	r28, r4
/home/huser/.arduino15/packages/MiniCore/hardware/avr/3.0.2/cores/MCUdude_corefiles/wiring_digital.c:82
  {
    // Timer1
    #if defined(TCCR1A) && defined(COM1A1)
      case TIMER1A:
        TCCR1A &= ~_BV(COM1A1);
     35a:	90 91 80 00 	lds	r25, 0x0080	; 0x800080 <__TEXT_REGION_LENGTH__+0x7f8080>
     35e:	9f 77       	andi	r25, 0x7F	; 127
/home/huser/.arduino15/packages/MiniCore/hardware/avr/3.0.2/cores/MCUdude_corefiles/wiring_digital.c:87
        break;
    #endif
    #if defined(TCCR1A) && defined(COM1B1)
      case TIMER1B:
        TCCR1A &= ~_BV(COM1B1);
     360:	90 93 80 00 	sts	0x0080, r25	; 0x800080 <__TEXT_REGION_LENGTH__+0x7f8080>
digitalWrite():
/home/huser/.arduino15/packages/MiniCore/hardware/avr/3.0.2/cores/MCUdude_corefiles/wiring_digital.c:200

  // If the pin that support PWM output, we need to turn it off
  // before doing a digital write.
  if (timer != NOT_ON_TIMER) turnOffPWM(timer);

  out = portOutputRegister(port);
     364:	e2 2f       	mov	r30, r18
     366:	f0 e0       	ldi	r31, 0x00	; 0
     368:	ee 0f       	add	r30, r30
     36a:	ff 1f       	adc	r31, r31
     36c:	eb 50       	subi	r30, 0x0B	; 11
     36e:	fe 4f       	sbci	r31, 0xFE	; 254
     370:	a5 91       	lpm	r26, Z+
     372:	b4 91       	lpm	r27, Z
/home/huser/.arduino15/packages/MiniCore/hardware/avr/3.0.2/cores/MCUdude_corefiles/wiring_digital.c:202

  uint8_t oldSREG = SREG;
     374:	9f b7       	in	r25, 0x3f	; 63
/home/huser/.arduino15/packages/MiniCore/hardware/avr/3.0.2/cores/MCUdude_corefiles/wiring_digital.c:203
  cli();
     376:	f8 94       	cli
/home/huser/.arduino15/packages/MiniCore/hardware/avr/3.0.2/cores/MCUdude_corefiles/wiring_digital.c:206

  if (val == LOW) {
    *out &= ~bit;
     378:	ec 91       	ld	r30, X
/home/huser/.arduino15/packages/MiniCore/hardware/avr/3.0.2/cores/MCUdude_corefiles/wiring_digital.c:205
  out = portOutputRegister(port);

  uint8_t oldSREG = SREG;
  cli();

  if (val == LOW) {
     37a:	61 11       	cpse	r22, r1
     37c:	2e c0       	rjmp	.+92     	; 0x3da <digitalWrite+0xd2>
/home/huser/.arduino15/packages/MiniCore/hardware/avr/3.0.2/cores/MCUdude_corefiles/wiring_digital.c:206
    *out &= ~bit;
     37e:	80 95       	com	r24
     380:	8e 23       	and	r24, r30
/home/huser/.arduino15/packages/MiniCore/hardware/avr/3.0.2/cores/MCUdude_corefiles/wiring_digital.c:208
  } else {
    *out |= bit;
     382:	8c 93       	st	X, r24
/home/huser/.arduino15/packages/MiniCore/hardware/avr/3.0.2/cores/MCUdude_corefiles/wiring_digital.c:211
  }

  SREG = oldSREG;
     384:	9f bf       	out	0x3f, r25	; 63
/home/huser/.arduino15/packages/MiniCore/hardware/avr/3.0.2/cores/MCUdude_corefiles/wiring_digital.c:212
}
     386:	08 95       	ret
turnOffPWM():
/home/huser/.arduino15/packages/MiniCore/hardware/avr/3.0.2/cores/MCUdude_corefiles/wiring_digital.c:87
        TCCR1A &= ~_BV(COM1A1);
        break;
    #endif
    #if defined(TCCR1A) && defined(COM1B1)
      case TIMER1B:
        TCCR1A &= ~_BV(COM1B1);
     388:	90 91 80 00 	lds	r25, 0x0080	; 0x800080 <__TEXT_REGION_LENGTH__+0x7f8080>
     38c:	9f 7d       	andi	r25, 0xDF	; 223
     38e:	e8 cf       	rjmp	.-48     	; 0x360 <digitalWrite+0x58>
/home/huser/.arduino15/packages/MiniCore/hardware/avr/3.0.2/cores/MCUdude_corefiles/wiring_digital.c:104
        TCCR2 &= ~_BV(COM21);
        break;
    #endif
    #if defined(TCCR2A) && defined(COM2A1)
      case TIMER2A:
        TCCR2A &= ~_BV(COM2A1);
     390:	90 91 b0 00 	lds	r25, 0x00B0	; 0x8000b0 <__TEXT_REGION_LENGTH__+0x7f80b0>
     394:	9f 77       	andi	r25, 0x7F	; 127
/home/huser/.arduino15/packages/MiniCore/hardware/avr/3.0.2/cores/MCUdude_corefiles/wiring_digital.c:109
        break;
    #endif
    #if defined(TCCR2A) && defined(COM2B1)
      case TIMER2B:
        TCCR2A &= ~_BV(COM2B1);
     396:	90 93 b0 00 	sts	0x00B0, r25	; 0x8000b0 <__TEXT_REGION_LENGTH__+0x7f80b0>
     39a:	e4 cf       	rjmp	.-56     	; 0x364 <digitalWrite+0x5c>
     39c:	90 91 b0 00 	lds	r25, 0x00B0	; 0x8000b0 <__TEXT_REGION_LENGTH__+0x7f80b0>
     3a0:	9f 7d       	andi	r25, 0xDF	; 223
     3a2:	f9 cf       	rjmp	.-14     	; 0x396 <digitalWrite+0x8e>
/home/huser/.arduino15/packages/MiniCore/hardware/avr/3.0.2/cores/MCUdude_corefiles/wiring_digital.c:116
    #endif

    // Timer3
    #if defined(TCCR3A) && defined(COM3A1)
      case TIMER3A:
        TCCR3A &= ~_BV(COM3A1);
     3a4:	90 91 90 00 	lds	r25, 0x0090	; 0x800090 <__TEXT_REGION_LENGTH__+0x7f8090>
     3a8:	9f 77       	andi	r25, 0x7F	; 127
/home/huser/.arduino15/packages/MiniCore/hardware/avr/3.0.2/cores/MCUdude_corefiles/wiring_digital.c:121
        break;
    #endif
    #if defined(TCCR3A) && defined(COM3B1)
      case TIMER3B:
        TCCR3A &= ~_BV(COM3B1);
     3aa:	90 93 90 00 	sts	0x0090, r25	; 0x800090 <__TEXT_REGION_LENGTH__+0x7f8090>
     3ae:	da cf       	rjmp	.-76     	; 0x364 <digitalWrite+0x5c>
     3b0:	90 91 90 00 	lds	r25, 0x0090	; 0x800090 <__TEXT_REGION_LENGTH__+0x7f8090>
     3b4:	9f 7d       	andi	r25, 0xDF	; 223
     3b6:	f9 cf       	rjmp	.-14     	; 0x3aa <digitalWrite+0xa2>
/home/huser/.arduino15/packages/MiniCore/hardware/avr/3.0.2/cores/MCUdude_corefiles/wiring_digital.c:133
    #endif

    // Timer4
    #if defined(TCCR4A) && defined(COM4A1)
      case TIMER4A:
        TCCR4A &= ~_BV(COM4A1);
     3b8:	90 91 a0 00 	lds	r25, 0x00A0	; 0x8000a0 <__TEXT_REGION_LENGTH__+0x7f80a0>
     3bc:	9f 77       	andi	r25, 0x7F	; 127
/home/huser/.arduino15/packages/MiniCore/hardware/avr/3.0.2/cores/MCUdude_corefiles/wiring_digital.c:138
        break;
    #endif
    #if defined(TCCR4A) && defined(COM4B1)
      case  TIMER4B:
        TCCR4A &= ~_BV(COM4B1);
     3be:	90 93 a0 00 	sts	0x00A0, r25	; 0x8000a0 <__TEXT_REGION_LENGTH__+0x7f80a0>
     3c2:	d0 cf       	rjmp	.-96     	; 0x364 <digitalWrite+0x5c>
     3c4:	90 91 a0 00 	lds	r25, 0x00A0	; 0x8000a0 <__TEXT_REGION_LENGTH__+0x7f80a0>
     3c8:	9f 7d       	andi	r25, 0xDF	; 223
     3ca:	f9 cf       	rjmp	.-14     	; 0x3be <digitalWrite+0xb6>
/home/huser/.arduino15/packages/MiniCore/hardware/avr/3.0.2/cores/MCUdude_corefiles/wiring_digital.c:176
        TCCR0 &= ~_BV(COM01);
        break;
    #endif
    #if defined(TCCR0A) && defined(COM0A1)
      case TIMER0A:
        TCCR0A &= ~_BV(COM0A1);
     3cc:	94 b5       	in	r25, 0x24	; 36
     3ce:	9f 77       	andi	r25, 0x7F	; 127
/home/huser/.arduino15/packages/MiniCore/hardware/avr/3.0.2/cores/MCUdude_corefiles/wiring_digital.c:181
        break;
    #endif
    #if defined(TCCR0A) && defined(COM0B1)
      case TIMER0B:
        TCCR0A &= ~_BV(COM0B1);
     3d0:	94 bd       	out	0x24, r25	; 36
     3d2:	c8 cf       	rjmp	.-112    	; 0x364 <digitalWrite+0x5c>
     3d4:	94 b5       	in	r25, 0x24	; 36
     3d6:	9f 7d       	andi	r25, 0xDF	; 223
     3d8:	fb cf       	rjmp	.-10     	; 0x3d0 <digitalWrite+0xc8>
digitalWrite():
/home/huser/.arduino15/packages/MiniCore/hardware/avr/3.0.2/cores/MCUdude_corefiles/wiring_digital.c:208
  cli();

  if (val == LOW) {
    *out &= ~bit;
  } else {
    *out |= bit;
     3da:	8e 2b       	or	r24, r30
     3dc:	d2 cf       	rjmp	.-92     	; 0x382 <digitalWrite+0x7a>

000003de <twi_init>:
twi_init():
/home/huser/.arduino15/packages/MiniCore/hardware/avr/3.0.2/libraries/Wire/src/utility/twi.c:84
 * Output   none
 */
void twi_init(void)
{
  // initialize state
  twi_state = TWI_READY;
     3de:	10 92 cd 03 	sts	0x03CD, r1	; 0x8003cd <twi_state>
/home/huser/.arduino15/packages/MiniCore/hardware/avr/3.0.2/libraries/Wire/src/utility/twi.c:85
  twi_sendStop = true; // default value
     3e2:	81 e0       	ldi	r24, 0x01	; 1
     3e4:	80 93 cf 03 	sts	0x03CF, r24	; 0x8003cf <twi_sendStop>
/home/huser/.arduino15/packages/MiniCore/hardware/avr/3.0.2/libraries/Wire/src/utility/twi.c:86
  twi_inRepStart = false;
     3e8:	10 92 ce 03 	sts	0x03CE, r1	; 0x8003ce <twi_inRepStart>
/home/huser/.arduino15/packages/MiniCore/hardware/avr/3.0.2/libraries/Wire/src/utility/twi.c:89

  // activate internal pullups for twi.
  digitalWrite(SDA, 1);
     3ec:	61 e0       	ldi	r22, 0x01	; 1
     3ee:	82 e1       	ldi	r24, 0x12	; 18
     3f0:	0e 94 84 01 	call	0x308	; 0x308 <digitalWrite>
/home/huser/.arduino15/packages/MiniCore/hardware/avr/3.0.2/libraries/Wire/src/utility/twi.c:90
  digitalWrite(SCL, 1);
     3f4:	61 e0       	ldi	r22, 0x01	; 1
     3f6:	83 e1       	ldi	r24, 0x13	; 19
     3f8:	0e 94 84 01 	call	0x308	; 0x308 <digitalWrite>
/home/huser/.arduino15/packages/MiniCore/hardware/avr/3.0.2/libraries/Wire/src/utility/twi.c:93

  // initialize twi prescaler and bit rate
  cbi(TWSR, TWPS0);
     3fc:	e9 eb       	ldi	r30, 0xB9	; 185
     3fe:	f0 e0       	ldi	r31, 0x00	; 0
     400:	80 81       	ld	r24, Z
     402:	8e 7f       	andi	r24, 0xFE	; 254
     404:	80 83       	st	Z, r24
/home/huser/.arduino15/packages/MiniCore/hardware/avr/3.0.2/libraries/Wire/src/utility/twi.c:94
  cbi(TWSR, TWPS1);
     406:	80 81       	ld	r24, Z
     408:	8d 7f       	andi	r24, 0xFD	; 253
     40a:	80 83       	st	Z, r24
/home/huser/.arduino15/packages/MiniCore/hardware/avr/3.0.2/libraries/Wire/src/utility/twi.c:95
  TWBR = ((F_CPU / TWI_FREQ) - 16) / 2;
     40c:	80 e2       	ldi	r24, 0x20	; 32
     40e:	80 93 b8 00 	sts	0x00B8, r24	; 0x8000b8 <__TEXT_REGION_LENGTH__+0x7f80b8>
/home/huser/.arduino15/packages/MiniCore/hardware/avr/3.0.2/libraries/Wire/src/utility/twi.c:103
  SCL Frequency = CPU Clock Frequency / (16 + (2 * TWBR))
  note: TWBR should be 10 or higher for master mode
  It is 72 for a 16mhz Wiring board with 100kHz TWI */

  // enable twi module, acks, and twi interrupt
  TWCR = _BV(TWEN) | _BV(TWIE) | _BV(TWEA);
     412:	85 e4       	ldi	r24, 0x45	; 69
     414:	80 93 bc 00 	sts	0x00BC, r24	; 0x8000bc <__TEXT_REGION_LENGTH__+0x7f80bc>
/home/huser/.arduino15/packages/MiniCore/hardware/avr/3.0.2/libraries/Wire/src/utility/twi.c:104
}
     418:	08 95       	ret

0000041a <twi_disable>:
twi_disable():
/home/huser/.arduino15/packages/MiniCore/hardware/avr/3.0.2/libraries/Wire/src/utility/twi.c:115
 * Output   none
 */
void twi_disable(void)
{
  // disable twi module, acks, and twi interrupt
  TWCR &= ~(_BV(TWEN) | _BV(TWIE) | _BV(TWEA));
     41a:	ec eb       	ldi	r30, 0xBC	; 188
     41c:	f0 e0       	ldi	r31, 0x00	; 0
     41e:	80 81       	ld	r24, Z
     420:	8a 7b       	andi	r24, 0xBA	; 186
     422:	80 83       	st	Z, r24
/home/huser/.arduino15/packages/MiniCore/hardware/avr/3.0.2/libraries/Wire/src/utility/twi.c:118

  // deactivate internal pullups for twi.
  digitalWrite(SDA, 0);
     424:	60 e0       	ldi	r22, 0x00	; 0
     426:	82 e1       	ldi	r24, 0x12	; 18
     428:	0e 94 84 01 	call	0x308	; 0x308 <digitalWrite>
/home/huser/.arduino15/packages/MiniCore/hardware/avr/3.0.2/libraries/Wire/src/utility/twi.c:119
  digitalWrite(SCL, 0);
     42c:	60 e0       	ldi	r22, 0x00	; 0
     42e:	83 e1       	ldi	r24, 0x13	; 19
     430:	0c 94 84 01 	jmp	0x308	; 0x308 <digitalWrite>

00000434 <pinMode>:
pinMode():
/home/huser/.arduino15/packages/MiniCore/hardware/avr/3.0.2/cores/MCUdude_corefiles/wiring_digital.c:30
#define ARDUINO_MAIN
#include "wiring_private.h"
#include "pins_arduino.h"

void pinMode(uint8_t pin, uint8_t mode)
{
     434:	cf 93       	push	r28
     436:	df 93       	push	r29
/home/huser/.arduino15/packages/MiniCore/hardware/avr/3.0.2/cores/MCUdude_corefiles/wiring_digital.c:31
  uint8_t bit = digitalPinToBitMask(pin);
     438:	90 e0       	ldi	r25, 0x00	; 0
     43a:	fc 01       	movw	r30, r24
     43c:	e4 5e       	subi	r30, 0xE4	; 228
     43e:	fd 4f       	sbci	r31, 0xFD	; 253
     440:	24 91       	lpm	r18, Z
/home/huser/.arduino15/packages/MiniCore/hardware/avr/3.0.2/cores/MCUdude_corefiles/wiring_digital.c:32
  uint8_t port = digitalPinToPort(pin);
     442:	8f 5f       	subi	r24, 0xFF	; 255
     444:	9d 4f       	sbci	r25, 0xFD	; 253
     446:	fc 01       	movw	r30, r24
     448:	84 91       	lpm	r24, Z
/home/huser/.arduino15/packages/MiniCore/hardware/avr/3.0.2/cores/MCUdude_corefiles/wiring_digital.c:35
  volatile uint8_t *reg, *out;

  if (port == NOT_A_PIN) return;
     44a:	88 23       	and	r24, r24
     44c:	d1 f0       	breq	.+52     	; 0x482 <pinMode+0x4e>
/home/huser/.arduino15/packages/MiniCore/hardware/avr/3.0.2/cores/MCUdude_corefiles/wiring_digital.c:38

  // JWS: can I let the optimizer do this?
  reg = portModeRegister(port);
     44e:	90 e0       	ldi	r25, 0x00	; 0
     450:	88 0f       	add	r24, r24
     452:	99 1f       	adc	r25, r25
     454:	fc 01       	movw	r30, r24
     456:	e7 51       	subi	r30, 0x17	; 23
     458:	fe 4f       	sbci	r31, 0xFE	; 254
     45a:	a5 91       	lpm	r26, Z+
     45c:	b4 91       	lpm	r27, Z
/home/huser/.arduino15/packages/MiniCore/hardware/avr/3.0.2/cores/MCUdude_corefiles/wiring_digital.c:39
  out = portOutputRegister(port);
     45e:	fc 01       	movw	r30, r24
     460:	eb 50       	subi	r30, 0x0B	; 11
     462:	fe 4f       	sbci	r31, 0xFE	; 254
     464:	c5 91       	lpm	r28, Z+
     466:	d4 91       	lpm	r29, Z
/home/huser/.arduino15/packages/MiniCore/hardware/avr/3.0.2/cores/MCUdude_corefiles/wiring_digital.c:41

  if (mode == INPUT) { 
     468:	61 11       	cpse	r22, r1
     46a:	0e c0       	rjmp	.+28     	; 0x488 <pinMode+0x54>
/home/huser/.arduino15/packages/MiniCore/hardware/avr/3.0.2/cores/MCUdude_corefiles/wiring_digital.c:42
    uint8_t oldSREG = SREG;
     46c:	9f b7       	in	r25, 0x3f	; 63
/home/huser/.arduino15/packages/MiniCore/hardware/avr/3.0.2/cores/MCUdude_corefiles/wiring_digital.c:43
    cli();
     46e:	f8 94       	cli
/home/huser/.arduino15/packages/MiniCore/hardware/avr/3.0.2/cores/MCUdude_corefiles/wiring_digital.c:44
    *reg &= ~bit;
     470:	8c 91       	ld	r24, X
     472:	e2 2f       	mov	r30, r18
     474:	e0 95       	com	r30
     476:	8e 23       	and	r24, r30
     478:	8c 93       	st	X, r24
/home/huser/.arduino15/packages/MiniCore/hardware/avr/3.0.2/cores/MCUdude_corefiles/wiring_digital.c:45
    *out &= ~bit;
     47a:	28 81       	ld	r18, Y
     47c:	e2 23       	and	r30, r18
     47e:	e8 83       	st	Y, r30
/home/huser/.arduino15/packages/MiniCore/hardware/avr/3.0.2/cores/MCUdude_corefiles/wiring_digital.c:46
    SREG = oldSREG;
     480:	9f bf       	out	0x3f, r25	; 63
/home/huser/.arduino15/packages/MiniCore/hardware/avr/3.0.2/cores/MCUdude_corefiles/wiring_digital.c:59
    uint8_t oldSREG = SREG;
    cli();
    *reg |= bit;
    SREG = oldSREG;
  }
}
     482:	df 91       	pop	r29
     484:	cf 91       	pop	r28
     486:	08 95       	ret
/home/huser/.arduino15/packages/MiniCore/hardware/avr/3.0.2/cores/MCUdude_corefiles/wiring_digital.c:54
    cli();
    *reg &= ~bit;
    *out |= bit;
    SREG = oldSREG;
  } else {
    uint8_t oldSREG = SREG;
     488:	8f b7       	in	r24, 0x3f	; 63
/home/huser/.arduino15/packages/MiniCore/hardware/avr/3.0.2/cores/MCUdude_corefiles/wiring_digital.c:55
    cli();
     48a:	f8 94       	cli
/home/huser/.arduino15/packages/MiniCore/hardware/avr/3.0.2/cores/MCUdude_corefiles/wiring_digital.c:56
    *reg |= bit;
     48c:	ec 91       	ld	r30, X
     48e:	e2 2b       	or	r30, r18
     490:	ec 93       	st	X, r30
/home/huser/.arduino15/packages/MiniCore/hardware/avr/3.0.2/cores/MCUdude_corefiles/wiring_digital.c:57
    SREG = oldSREG;
     492:	8f bf       	out	0x3f, r24	; 63
     494:	f6 cf       	rjmp	.-20     	; 0x482 <pinMode+0x4e>

00000496 <delayMicroseconds>:
delayMicroseconds():
/home/huser/.arduino15/packages/MiniCore/hardware/avr/3.0.2/cores/MCUdude_corefiles/wiring.c:761
              // 2 cycles to jump back to delay cycle.
  }

#elif F_CPU >= 8000000L
  // for the 8 MHz clock
  __asm__ __volatile__ (
     496:	00 00       	nop
     498:	00 00       	nop
/home/huser/.arduino15/packages/MiniCore/hardware/avr/3.0.2/cores/MCUdude_corefiles/wiring.c:767
    "nop" "\n\t"
    "nop"); //just waiting 2 cycles

  // for a 1 and 2 microsecond delay, simply return.  the overhead
  // of the function call takes 16 (18) cycles, which is 2us
  if (us <= 2) return; // = 3 cycles, (4 when true)
     49a:	83 30       	cpi	r24, 0x03	; 3
     49c:	91 05       	cpc	r25, r1
     49e:	28 f0       	brcs	.+10     	; 0x4aa <delayMicroseconds+0x14>
/home/huser/.arduino15/packages/MiniCore/hardware/avr/3.0.2/cores/MCUdude_corefiles/wiring.c:772

  // the following loop takes 1/2 of a microsecond (4 cycles)
  // per iteration, so execute it twice for each microsecond of
  // delay requested.
  us <<= 1; //x2 us, = 2 cycles
     4a0:	88 0f       	add	r24, r24
     4a2:	99 1f       	adc	r25, r25
/home/huser/.arduino15/packages/MiniCore/hardware/avr/3.0.2/cores/MCUdude_corefiles/wiring.c:777

  // account for the time taken in the preceeding commands.
  // we just burned 19 (21) cycles above, remove 5, (5*4=20)
  // us is at least 6 so we can substract 5
  us -= 5; // = 2 cycles
     4a4:	05 97       	sbiw	r24, 0x05	; 5
/home/huser/.arduino15/packages/MiniCore/hardware/avr/3.0.2/cores/MCUdude_corefiles/wiring.c:929
  us >>= 2; // us div 4, = 4 cycles

#endif

  // busy wait
  __asm__ __volatile__ (
     4a6:	01 97       	sbiw	r24, 0x01	; 1
     4a8:	f1 f7       	brne	.-4      	; 0x4a6 <delayMicroseconds+0x10>
/home/huser/.arduino15/packages/MiniCore/hardware/avr/3.0.2/cores/MCUdude_corefiles/wiring.c:939
    "   brne 1b"                     // 2 cycles
    : /* no outputs */
    : "w" (us)
  );
  // return = 4 cycles
}
     4aa:	08 95       	ret

000004ac <micros>:
micros():
/home/huser/.arduino15/packages/MiniCore/hardware/avr/3.0.2/cores/MCUdude_corefiles/wiring.c:237
  unsigned char f; // temporary storage for millis fraction counter
  unsigned char q = 0; // record whether an overflow is flagged
#endif
  // t will be the number where the timer0 counter stopped
  uint8_t t;
  uint8_t oldSREG = SREG;
     4ac:	3f b7       	in	r19, 0x3f	; 63
/home/huser/.arduino15/packages/MiniCore/hardware/avr/3.0.2/cores/MCUdude_corefiles/wiring.c:240

  // Stop all interrupts
  cli();
     4ae:	f8 94       	cli
/home/huser/.arduino15/packages/MiniCore/hardware/avr/3.0.2/cores/MCUdude_corefiles/wiring.c:247
#ifdef CORRECT_EXACT_MICROS
  // combine exact millisec and 8usec counters
  m = timer0_millis;
  f = timer0_fract;
#else
  m = timer0_overflow_count;
     4b0:	80 91 76 04 	lds	r24, 0x0476	; 0x800476 <timer0_overflow_count>
     4b4:	90 91 77 04 	lds	r25, 0x0477	; 0x800477 <timer0_overflow_count+0x1>
     4b8:	a0 91 78 04 	lds	r26, 0x0478	; 0x800478 <timer0_overflow_count+0x2>
     4bc:	b0 91 79 04 	lds	r27, 0x0479	; 0x800479 <timer0_overflow_count+0x3>
/home/huser/.arduino15/packages/MiniCore/hardware/avr/3.0.2/cores/MCUdude_corefiles/wiring.c:252
#endif

  // TCNT0 : The Timer Counter Register
#if defined(TCNT0)
  t = TCNT0;
     4c0:	26 b5       	in	r18, 0x26	; 38
/home/huser/.arduino15/packages/MiniCore/hardware/avr/3.0.2/cores/MCUdude_corefiles/wiring.c:261
  #error TIMER 0 not defined
#endif

  // Timer0 Interrupt Flag Register
#ifdef TIFR0
  if ((TIFR0 & _BV(TOV0)) && (t < 255))
     4c2:	a8 9b       	sbis	0x15, 0	; 21
     4c4:	05 c0       	rjmp	.+10     	; 0x4d0 <micros+0x24>
     4c6:	2f 3f       	cpi	r18, 0xFF	; 255
     4c8:	19 f0       	breq	.+6      	; 0x4d0 <micros+0x24>
/home/huser/.arduino15/packages/MiniCore/hardware/avr/3.0.2/cores/MCUdude_corefiles/wiring.c:263
#ifndef CORRECT_EXACT_MICROS
    m++;
     4ca:	01 96       	adiw	r24, 0x01	; 1
     4cc:	a1 1d       	adc	r26, r1
     4ce:	b1 1d       	adc	r27, r1
/home/huser/.arduino15/packages/MiniCore/hardware/avr/3.0.2/cores/MCUdude_corefiles/wiring.c:276
#else
    q = 1;
#endif
#endif
  // Restore SREG
  SREG = oldSREG;
     4d0:	3f bf       	out	0x3f, r19	; 63
/home/huser/.arduino15/packages/MiniCore/hardware/avr/3.0.2/cores/MCUdude_corefiles/wiring.c:292
      ((t * MICROSECONDS_PER_TIMER0_OVERFLOW) >> 8);
  return q ? m + MICROSECONDS_PER_TIMER0_OVERFLOW : m;
#elif 1
  /* All power-of-two Megahertz frequencies enter here, as well as 12.8 MHz.
     We only end up here if right shift before multiplication is exact. */
  return ((m << 8) + t) * (MICROSECONDS_PER_TIMER0_OVERFLOW >> 8);
     4d2:	ba 2f       	mov	r27, r26
     4d4:	a9 2f       	mov	r26, r25
     4d6:	98 2f       	mov	r25, r24
     4d8:	88 27       	eor	r24, r24
     4da:	bc 01       	movw	r22, r24
     4dc:	cd 01       	movw	r24, r26
     4de:	62 0f       	add	r22, r18
     4e0:	71 1d       	adc	r23, r1
     4e2:	81 1d       	adc	r24, r1
     4e4:	91 1d       	adc	r25, r1
     4e6:	43 e0       	ldi	r20, 0x03	; 3
     4e8:	66 0f       	add	r22, r22
     4ea:	77 1f       	adc	r23, r23
     4ec:	88 1f       	adc	r24, r24
     4ee:	99 1f       	adc	r25, r25
     4f0:	4a 95       	dec	r20
     4f2:	d1 f7       	brne	.-12     	; 0x4e8 <micros+0x3c>
/home/huser/.arduino15/packages/MiniCore/hardware/avr/3.0.2/cores/MCUdude_corefiles/wiring.c:393
  // m & t are multiplied by 4 (since it was already multiplied by 256)
  // t is multiplied by 4
  return ((m << 8) + t) * (64 / clockCyclesPerMicrosecond());
#endif
#endif // 0
}
     4f4:	08 95       	ret

000004f6 <delay>:
delay():
/home/huser/.arduino15/packages/MiniCore/hardware/avr/3.0.2/cores/MCUdude_corefiles/wiring.c:396

void delay(unsigned long ms)
{
     4f6:	8f 92       	push	r8
     4f8:	9f 92       	push	r9
     4fa:	af 92       	push	r10
     4fc:	bf 92       	push	r11
     4fe:	cf 92       	push	r12
     500:	df 92       	push	r13
     502:	ef 92       	push	r14
     504:	ff 92       	push	r15
     506:	4b 01       	movw	r8, r22
     508:	5c 01       	movw	r10, r24
/home/huser/.arduino15/packages/MiniCore/hardware/avr/3.0.2/cores/MCUdude_corefiles/wiring.c:397
  unsigned long start = micros();
     50a:	0e 94 56 02 	call	0x4ac	; 0x4ac <micros>
     50e:	6b 01       	movw	r12, r22
     510:	7c 01       	movw	r14, r24
/home/huser/.arduino15/packages/MiniCore/hardware/avr/3.0.2/cores/MCUdude_corefiles/wiring.c:401

  while (ms > 0UL) {
    yield();
    while (ms > 0UL && (micros() - start) >= 1000UL) {
     512:	0e 94 56 02 	call	0x4ac	; 0x4ac <micros>
     516:	6c 19       	sub	r22, r12
     518:	7d 09       	sbc	r23, r13
     51a:	8e 09       	sbc	r24, r14
     51c:	9f 09       	sbc	r25, r15
     51e:	68 3e       	cpi	r22, 0xE8	; 232
     520:	73 40       	sbci	r23, 0x03	; 3
     522:	81 05       	cpc	r24, r1
     524:	91 05       	cpc	r25, r1
     526:	a8 f3       	brcs	.-22     	; 0x512 <delay+0x1c>
/home/huser/.arduino15/packages/MiniCore/hardware/avr/3.0.2/cores/MCUdude_corefiles/wiring.c:402
      ms--;
     528:	21 e0       	ldi	r18, 0x01	; 1
     52a:	82 1a       	sub	r8, r18
     52c:	91 08       	sbc	r9, r1
     52e:	a1 08       	sbc	r10, r1
     530:	b1 08       	sbc	r11, r1
/home/huser/.arduino15/packages/MiniCore/hardware/avr/3.0.2/cores/MCUdude_corefiles/wiring.c:403
      start += 1000UL;
     532:	88 ee       	ldi	r24, 0xE8	; 232
     534:	c8 0e       	add	r12, r24
     536:	83 e0       	ldi	r24, 0x03	; 3
     538:	d8 1e       	adc	r13, r24
     53a:	e1 1c       	adc	r14, r1
     53c:	f1 1c       	adc	r15, r1
/home/huser/.arduino15/packages/MiniCore/hardware/avr/3.0.2/cores/MCUdude_corefiles/wiring.c:401
{
  unsigned long start = micros();

  while (ms > 0UL) {
    yield();
    while (ms > 0UL && (micros() - start) >= 1000UL) {
     53e:	81 14       	cp	r8, r1
     540:	91 04       	cpc	r9, r1
     542:	a1 04       	cpc	r10, r1
     544:	b1 04       	cpc	r11, r1
     546:	29 f7       	brne	.-54     	; 0x512 <delay+0x1c>
/home/huser/.arduino15/packages/MiniCore/hardware/avr/3.0.2/cores/MCUdude_corefiles/wiring.c:406
      ms--;
      start += 1000UL;
    }
  }
}
     548:	ff 90       	pop	r15
     54a:	ef 90       	pop	r14
     54c:	df 90       	pop	r13
     54e:	cf 90       	pop	r12
     550:	bf 90       	pop	r11
     552:	af 90       	pop	r10
     554:	9f 90       	pop	r9
     556:	8f 90       	pop	r8
     558:	08 95       	ret

0000055a <String::StringIfHelper() const>:
_ZNK6String14StringIfHelperEv():
/home/huser/.arduino15/packages/MiniCore/hardware/avr/3.0.2/cores/MCUdude_corefiles/WString.h:51
{
  // use a function pointer to allow for "if (s)" without the
  // complications of an operator bool(). for more information, see:
  // http://www.artima.com/cppsource/safebool.html
  typedef void (String::*StringIfHelperType)() const;
  void StringIfHelper() const {}
     55a:	08 95       	ret

0000055c <Print::write(unsigned char const*, unsigned int)>:
_ZN5Print5writeEPKhj():
/home/huser/.arduino15/packages/MiniCore/hardware/avr/3.0.2/cores/MCUdude_corefiles/Print.cpp:35

// Public Methods //////////////////////////////////////////////////////////////

/* default implementation: may be overridden */
size_t Print::write(const uint8_t *buffer, size_t size)
{
     55c:	af 92       	push	r10
     55e:	bf 92       	push	r11
     560:	cf 92       	push	r12
     562:	df 92       	push	r13
     564:	ef 92       	push	r14
     566:	ff 92       	push	r15
     568:	0f 93       	push	r16
     56a:	1f 93       	push	r17
     56c:	cf 93       	push	r28
     56e:	df 93       	push	r29
     570:	6c 01       	movw	r12, r24
     572:	7b 01       	movw	r14, r22
     574:	8b 01       	movw	r16, r22
     576:	04 0f       	add	r16, r20
     578:	15 1f       	adc	r17, r21
     57a:	eb 01       	movw	r28, r22
     57c:	5e 01       	movw	r10, r28
     57e:	ae 18       	sub	r10, r14
     580:	bf 08       	sbc	r11, r15
/home/huser/.arduino15/packages/MiniCore/hardware/avr/3.0.2/cores/MCUdude_corefiles/Print.cpp:37
  size_t n = 0;
  while (size--) {
     582:	c0 17       	cp	r28, r16
     584:	d1 07       	cpc	r29, r17
     586:	59 f0       	breq	.+22     	; 0x59e <Print::write(unsigned char const*, unsigned int)+0x42>
/home/huser/.arduino15/packages/MiniCore/hardware/avr/3.0.2/cores/MCUdude_corefiles/Print.cpp:38
    if (write(*buffer++)) n++;
     588:	69 91       	ld	r22, Y+
     58a:	d6 01       	movw	r26, r12
     58c:	ed 91       	ld	r30, X+
     58e:	fc 91       	ld	r31, X
     590:	01 90       	ld	r0, Z+
     592:	f0 81       	ld	r31, Z
     594:	e0 2d       	mov	r30, r0
     596:	c6 01       	movw	r24, r12
     598:	09 95       	icall
     59a:	89 2b       	or	r24, r25
     59c:	79 f7       	brne	.-34     	; 0x57c <Print::write(unsigned char const*, unsigned int)+0x20>
/home/huser/.arduino15/packages/MiniCore/hardware/avr/3.0.2/cores/MCUdude_corefiles/Print.cpp:42
    else break;
  }
  return n;
}
     59e:	c5 01       	movw	r24, r10
     5a0:	df 91       	pop	r29
     5a2:	cf 91       	pop	r28
     5a4:	1f 91       	pop	r17
     5a6:	0f 91       	pop	r16
     5a8:	ff 90       	pop	r15
     5aa:	ef 90       	pop	r14
     5ac:	df 90       	pop	r13
     5ae:	cf 90       	pop	r12
     5b0:	bf 90       	pop	r11
     5b2:	af 90       	pop	r10
     5b4:	08 95       	ret

000005b6 <HardwareSerial::availableForWrite()>:
_ZN14HardwareSerial17availableForWriteEv():
/home/huser/.arduino15/packages/MiniCore/hardware/avr/3.0.2/cores/MCUdude_corefiles/HardwareSerial.cpp:195
{
  tx_buffer_index_t head;
  tx_buffer_index_t tail;

  TX_BUFFER_ATOMIC {
    head = _tx_buffer_head;
     5b6:	fc 01       	movw	r30, r24
     5b8:	53 8d       	ldd	r21, Z+27	; 0x1b
/home/huser/.arduino15/packages/MiniCore/hardware/avr/3.0.2/cores/MCUdude_corefiles/HardwareSerial.cpp:196
    tail = _tx_buffer_tail;
     5ba:	44 8d       	ldd	r20, Z+28	; 0x1c
     5bc:	25 2f       	mov	r18, r21
     5be:	30 e0       	ldi	r19, 0x00	; 0
     5c0:	84 2f       	mov	r24, r20
     5c2:	90 e0       	ldi	r25, 0x00	; 0
/home/huser/.arduino15/packages/MiniCore/hardware/avr/3.0.2/cores/MCUdude_corefiles/HardwareSerial.cpp:198
  }
  if (head >= tail) return SERIAL_TX_BUFFER_SIZE - 1 - head + tail;
     5c4:	82 1b       	sub	r24, r18
     5c6:	93 0b       	sbc	r25, r19
     5c8:	54 17       	cp	r21, r20
     5ca:	10 f0       	brcs	.+4      	; 0x5d0 <HardwareSerial::availableForWrite()+0x1a>
     5cc:	cf 96       	adiw	r24, 0x3f	; 63
     5ce:	08 95       	ret
/home/huser/.arduino15/packages/MiniCore/hardware/avr/3.0.2/cores/MCUdude_corefiles/HardwareSerial.cpp:199
  return tail - head - 1;
     5d0:	01 97       	sbiw	r24, 0x01	; 1
/home/huser/.arduino15/packages/MiniCore/hardware/avr/3.0.2/cores/MCUdude_corefiles/HardwareSerial.cpp:200
}
     5d2:	08 95       	ret

000005d4 <HardwareSerial::read()>:
_ZN14HardwareSerial4readEv():
/home/huser/.arduino15/packages/MiniCore/hardware/avr/3.0.2/cores/MCUdude_corefiles/HardwareSerial.cpp:178
    return _rx_buffer[_rx_buffer_tail];
  }
}

int HardwareSerial::read(void)
{
     5d4:	fc 01       	movw	r30, r24
/home/huser/.arduino15/packages/MiniCore/hardware/avr/3.0.2/cores/MCUdude_corefiles/HardwareSerial.cpp:180
  // if the head isn't ahead of the tail, we don't have any characters
  if (_rx_buffer_head == _rx_buffer_tail) {
     5d6:	91 8d       	ldd	r25, Z+25	; 0x19
     5d8:	82 8d       	ldd	r24, Z+26	; 0x1a
     5da:	98 17       	cp	r25, r24
     5dc:	61 f0       	breq	.+24     	; 0x5f6 <HardwareSerial::read()+0x22>
/home/huser/.arduino15/packages/MiniCore/hardware/avr/3.0.2/cores/MCUdude_corefiles/HardwareSerial.cpp:183
    return -1;
  } else {
    unsigned char c = _rx_buffer[_rx_buffer_tail];
     5de:	a2 8d       	ldd	r26, Z+26	; 0x1a
     5e0:	ae 0f       	add	r26, r30
     5e2:	bf 2f       	mov	r27, r31
     5e4:	b1 1d       	adc	r27, r1
     5e6:	5d 96       	adiw	r26, 0x1d	; 29
     5e8:	8c 91       	ld	r24, X
/home/huser/.arduino15/packages/MiniCore/hardware/avr/3.0.2/cores/MCUdude_corefiles/HardwareSerial.cpp:184
    _rx_buffer_tail = (rx_buffer_index_t)(_rx_buffer_tail + 1) % SERIAL_RX_BUFFER_SIZE;
     5ea:	92 8d       	ldd	r25, Z+26	; 0x1a
     5ec:	9f 5f       	subi	r25, 0xFF	; 255
     5ee:	9f 73       	andi	r25, 0x3F	; 63
     5f0:	92 8f       	std	Z+26, r25	; 0x1a
/home/huser/.arduino15/packages/MiniCore/hardware/avr/3.0.2/cores/MCUdude_corefiles/HardwareSerial.cpp:185
    return c;
     5f2:	90 e0       	ldi	r25, 0x00	; 0
     5f4:	08 95       	ret
/home/huser/.arduino15/packages/MiniCore/hardware/avr/3.0.2/cores/MCUdude_corefiles/HardwareSerial.cpp:181

int HardwareSerial::read(void)
{
  // if the head isn't ahead of the tail, we don't have any characters
  if (_rx_buffer_head == _rx_buffer_tail) {
    return -1;
     5f6:	8f ef       	ldi	r24, 0xFF	; 255
     5f8:	9f ef       	ldi	r25, 0xFF	; 255
/home/huser/.arduino15/packages/MiniCore/hardware/avr/3.0.2/cores/MCUdude_corefiles/HardwareSerial.cpp:187
  } else {
    unsigned char c = _rx_buffer[_rx_buffer_tail];
    _rx_buffer_tail = (rx_buffer_index_t)(_rx_buffer_tail + 1) % SERIAL_RX_BUFFER_SIZE;
    return c;
  }
}
     5fa:	08 95       	ret

000005fc <Stream::timedRead() [clone .constprop.45]>:
_ZN6Stream9timedReadEv.constprop.45():
/home/huser/.arduino15/packages/MiniCore/hardware/avr/3.0.2/cores/MCUdude_corefiles/wiring.c:218
}

unsigned long millis()
{
  unsigned long m;
  uint8_t oldSREG = SREG;
     5fc:	2f b7       	in	r18, 0x3f	; 63
/home/huser/.arduino15/packages/MiniCore/hardware/avr/3.0.2/cores/MCUdude_corefiles/wiring.c:222

  // disable interrupts while we read timer0_millis or we might get an
  // inconsistent value (e.g. in the middle of a write to timer0_millis)
  cli();
     5fe:	f8 94       	cli
/home/huser/.arduino15/packages/MiniCore/hardware/avr/3.0.2/cores/MCUdude_corefiles/wiring.c:223
  m = timer0_millis;
     600:	80 91 1b 05 	lds	r24, 0x051B	; 0x80051b <timer0_millis>
     604:	90 91 1c 05 	lds	r25, 0x051C	; 0x80051c <timer0_millis+0x1>
     608:	a0 91 1d 05 	lds	r26, 0x051D	; 0x80051d <timer0_millis+0x2>
     60c:	b0 91 1e 05 	lds	r27, 0x051E	; 0x80051e <timer0_millis+0x3>
/home/huser/.arduino15/packages/MiniCore/hardware/avr/3.0.2/cores/MCUdude_corefiles/wiring.c:224
  SREG = oldSREG;
     610:	2f bf       	out	0x3f, r18	; 63
/home/huser/.arduino15/packages/MiniCore/hardware/avr/3.0.2/cores/MCUdude_corefiles/Stream.cpp:34

// private method to read stream with timeout
int Stream::timedRead()
{
  int c;
  _startMillis = millis();
     612:	80 93 82 04 	sts	0x0482, r24	; 0x800482 <Serial+0x8>
     616:	90 93 83 04 	sts	0x0483, r25	; 0x800483 <Serial+0x9>
     61a:	a0 93 84 04 	sts	0x0484, r26	; 0x800484 <Serial+0xa>
     61e:	b0 93 85 04 	sts	0x0485, r27	; 0x800485 <Serial+0xb>
/home/huser/.arduino15/packages/MiniCore/hardware/avr/3.0.2/cores/MCUdude_corefiles/Stream.cpp:36
  do {
    c = read();
     622:	8a e7       	ldi	r24, 0x7A	; 122
     624:	94 e0       	ldi	r25, 0x04	; 4
     626:	0e 94 ea 02 	call	0x5d4	; 0x5d4 <HardwareSerial::read()>
/home/huser/.arduino15/packages/MiniCore/hardware/avr/3.0.2/cores/MCUdude_corefiles/Stream.cpp:37
    if (c >= 0) return c;
     62a:	97 ff       	sbrs	r25, 7
     62c:	26 c0       	rjmp	.+76     	; 0x67a <Stream::timedRead() [clone .constprop.45]+0x7e>
millis():
/home/huser/.arduino15/packages/MiniCore/hardware/avr/3.0.2/cores/MCUdude_corefiles/wiring.c:218
}

unsigned long millis()
{
  unsigned long m;
  uint8_t oldSREG = SREG;
     62e:	2f b7       	in	r18, 0x3f	; 63
/home/huser/.arduino15/packages/MiniCore/hardware/avr/3.0.2/cores/MCUdude_corefiles/wiring.c:222

  // disable interrupts while we read timer0_millis or we might get an
  // inconsistent value (e.g. in the middle of a write to timer0_millis)
  cli();
     630:	f8 94       	cli
/home/huser/.arduino15/packages/MiniCore/hardware/avr/3.0.2/cores/MCUdude_corefiles/wiring.c:223
  m = timer0_millis;
     632:	80 91 1b 05 	lds	r24, 0x051B	; 0x80051b <timer0_millis>
     636:	90 91 1c 05 	lds	r25, 0x051C	; 0x80051c <timer0_millis+0x1>
     63a:	a0 91 1d 05 	lds	r26, 0x051D	; 0x80051d <timer0_millis+0x2>
     63e:	b0 91 1e 05 	lds	r27, 0x051E	; 0x80051e <timer0_millis+0x3>
/home/huser/.arduino15/packages/MiniCore/hardware/avr/3.0.2/cores/MCUdude_corefiles/wiring.c:224
  SREG = oldSREG;
     642:	2f bf       	out	0x3f, r18	; 63
_ZN6Stream9timedReadEv.constprop.45():
/home/huser/.arduino15/packages/MiniCore/hardware/avr/3.0.2/cores/MCUdude_corefiles/Stream.cpp:38
  } while(millis() - _startMillis < _timeout);
     644:	40 91 82 04 	lds	r20, 0x0482	; 0x800482 <Serial+0x8>
     648:	50 91 83 04 	lds	r21, 0x0483	; 0x800483 <Serial+0x9>
     64c:	60 91 84 04 	lds	r22, 0x0484	; 0x800484 <Serial+0xa>
     650:	70 91 85 04 	lds	r23, 0x0485	; 0x800485 <Serial+0xb>
     654:	84 1b       	sub	r24, r20
     656:	95 0b       	sbc	r25, r21
     658:	a6 0b       	sbc	r26, r22
     65a:	b7 0b       	sbc	r27, r23
     65c:	40 91 7e 04 	lds	r20, 0x047E	; 0x80047e <Serial+0x4>
     660:	50 91 7f 04 	lds	r21, 0x047F	; 0x80047f <Serial+0x5>
     664:	60 91 80 04 	lds	r22, 0x0480	; 0x800480 <Serial+0x6>
     668:	70 91 81 04 	lds	r23, 0x0481	; 0x800481 <Serial+0x7>
     66c:	84 17       	cp	r24, r20
     66e:	95 07       	cpc	r25, r21
     670:	a6 07       	cpc	r26, r22
     672:	b7 07       	cpc	r27, r23
     674:	b0 f2       	brcs	.-84     	; 0x622 <Stream::timedRead() [clone .constprop.45]+0x26>
/home/huser/.arduino15/packages/MiniCore/hardware/avr/3.0.2/cores/MCUdude_corefiles/Stream.cpp:39
  return -1;     // -1 indicates timeout
     676:	8f ef       	ldi	r24, 0xFF	; 255
     678:	9f ef       	ldi	r25, 0xFF	; 255
/home/huser/.arduino15/packages/MiniCore/hardware/avr/3.0.2/cores/MCUdude_corefiles/Stream.cpp:40
}
     67a:	08 95       	ret

0000067c <HardwareSerial::peek()>:
_ZN14HardwareSerial4peekEv():
/home/huser/.arduino15/packages/MiniCore/hardware/avr/3.0.2/cores/MCUdude_corefiles/HardwareSerial.cpp:169
{
  return ((unsigned int)(SERIAL_RX_BUFFER_SIZE + _rx_buffer_head - _rx_buffer_tail)) % SERIAL_RX_BUFFER_SIZE;
}

int HardwareSerial::peek(void)
{
     67c:	fc 01       	movw	r30, r24
/home/huser/.arduino15/packages/MiniCore/hardware/avr/3.0.2/cores/MCUdude_corefiles/HardwareSerial.cpp:170
  if (_rx_buffer_head == _rx_buffer_tail) {
     67e:	91 8d       	ldd	r25, Z+25	; 0x19
     680:	82 8d       	ldd	r24, Z+26	; 0x1a
     682:	98 17       	cp	r25, r24
     684:	31 f0       	breq	.+12     	; 0x692 <HardwareSerial::peek()+0x16>
/home/huser/.arduino15/packages/MiniCore/hardware/avr/3.0.2/cores/MCUdude_corefiles/HardwareSerial.cpp:173
    return -1;
  } else {
    return _rx_buffer[_rx_buffer_tail];
     686:	82 8d       	ldd	r24, Z+26	; 0x1a
     688:	e8 0f       	add	r30, r24
     68a:	f1 1d       	adc	r31, r1
     68c:	85 8d       	ldd	r24, Z+29	; 0x1d
     68e:	90 e0       	ldi	r25, 0x00	; 0
     690:	08 95       	ret
/home/huser/.arduino15/packages/MiniCore/hardware/avr/3.0.2/cores/MCUdude_corefiles/HardwareSerial.cpp:171
}

int HardwareSerial::peek(void)
{
  if (_rx_buffer_head == _rx_buffer_tail) {
    return -1;
     692:	8f ef       	ldi	r24, 0xFF	; 255
     694:	9f ef       	ldi	r25, 0xFF	; 255
/home/huser/.arduino15/packages/MiniCore/hardware/avr/3.0.2/cores/MCUdude_corefiles/HardwareSerial.cpp:175
  } else {
    return _rx_buffer[_rx_buffer_tail];
  }
}
     696:	08 95       	ret

00000698 <HardwareSerial::available()>:
_ZN14HardwareSerial9availableEv():
/home/huser/.arduino15/packages/MiniCore/hardware/avr/3.0.2/cores/MCUdude_corefiles/HardwareSerial.cpp:164
  // clear any received data
  _rx_buffer_head = _rx_buffer_tail;
}

int HardwareSerial::available(void)
{
     698:	fc 01       	movw	r30, r24
/home/huser/.arduino15/packages/MiniCore/hardware/avr/3.0.2/cores/MCUdude_corefiles/HardwareSerial.cpp:165
  return ((unsigned int)(SERIAL_RX_BUFFER_SIZE + _rx_buffer_head - _rx_buffer_tail)) % SERIAL_RX_BUFFER_SIZE;
     69a:	91 8d       	ldd	r25, Z+25	; 0x19
     69c:	22 8d       	ldd	r18, Z+26	; 0x1a
     69e:	89 2f       	mov	r24, r25
     6a0:	90 e0       	ldi	r25, 0x00	; 0
     6a2:	80 5c       	subi	r24, 0xC0	; 192
     6a4:	9f 4f       	sbci	r25, 0xFF	; 255
     6a6:	82 1b       	sub	r24, r18
     6a8:	91 09       	sbc	r25, r1
/home/huser/.arduino15/packages/MiniCore/hardware/avr/3.0.2/cores/MCUdude_corefiles/HardwareSerial.cpp:166
}
     6aa:	8f 73       	andi	r24, 0x3F	; 63
     6ac:	99 27       	eor	r25, r25
     6ae:	08 95       	ret

000006b0 <Serial0_available()>:
_Z17Serial0_availablev():
/home/huser/.arduino15/packages/MiniCore/hardware/avr/3.0.2/cores/MCUdude_corefiles/HardwareSerial0.cpp:76
#endif

// Function that can be weakly referenced by serialEventRun to prevent
// pulling in this file if it's not otherwise used.
bool Serial0_available() {
  return Serial.available();
     6b0:	8a e7       	ldi	r24, 0x7A	; 122
     6b2:	94 e0       	ldi	r25, 0x04	; 4
     6b4:	0e 94 4c 03 	call	0x698	; 0x698 <HardwareSerial::available()>
     6b8:	21 e0       	ldi	r18, 0x01	; 1
     6ba:	89 2b       	or	r24, r25
     6bc:	09 f4       	brne	.+2      	; 0x6c0 <Serial0_available()+0x10>
     6be:	20 e0       	ldi	r18, 0x00	; 0
/home/huser/.arduino15/packages/MiniCore/hardware/avr/3.0.2/cores/MCUdude_corefiles/HardwareSerial0.cpp:77
}
     6c0:	82 2f       	mov	r24, r18
     6c2:	08 95       	ret

000006c4 <HardwareSerial::_tx_udr_empty_irq()>:
_ZN14HardwareSerial17_tx_udr_empty_irqEv():
/home/huser/.arduino15/packages/MiniCore/hardware/avr/3.0.2/cores/MCUdude_corefiles/HardwareSerial.cpp:90
#endif

// Actual interrupt handlers //////////////////////////////////////////////////////////////

void HardwareSerial::_tx_udr_empty_irq(void)
{
     6c4:	fc 01       	movw	r30, r24
/home/huser/.arduino15/packages/MiniCore/hardware/avr/3.0.2/cores/MCUdude_corefiles/HardwareSerial.cpp:93
  // If interrupts are enabled, there must be more data in the output
  // buffer. Send the next byte
  unsigned char c = _tx_buffer[_tx_buffer_tail];
     6c6:	a4 8d       	ldd	r26, Z+28	; 0x1c
     6c8:	a8 0f       	add	r26, r24
     6ca:	b9 2f       	mov	r27, r25
     6cc:	b1 1d       	adc	r27, r1
     6ce:	a3 5a       	subi	r26, 0xA3	; 163
     6d0:	bf 4f       	sbci	r27, 0xFF	; 255
     6d2:	2c 91       	ld	r18, X
/home/huser/.arduino15/packages/MiniCore/hardware/avr/3.0.2/cores/MCUdude_corefiles/HardwareSerial.cpp:94
  _tx_buffer_tail = (_tx_buffer_tail + 1) % SERIAL_TX_BUFFER_SIZE;
     6d4:	84 8d       	ldd	r24, Z+28	; 0x1c
     6d6:	90 e0       	ldi	r25, 0x00	; 0
     6d8:	01 96       	adiw	r24, 0x01	; 1
     6da:	8f 73       	andi	r24, 0x3F	; 63
     6dc:	99 27       	eor	r25, r25
     6de:	84 8f       	std	Z+28, r24	; 0x1c
/home/huser/.arduino15/packages/MiniCore/hardware/avr/3.0.2/cores/MCUdude_corefiles/HardwareSerial.cpp:96

  *_udr = c;
     6e0:	a6 89       	ldd	r26, Z+22	; 0x16
     6e2:	b7 89       	ldd	r27, Z+23	; 0x17
     6e4:	2c 93       	st	X, r18
/home/huser/.arduino15/packages/MiniCore/hardware/avr/3.0.2/cores/MCUdude_corefiles/HardwareSerial.cpp:104
  // location". This makes sure flush() won't return until the bytes
  // actually got written. Other r/w bits are preserved, and zeroes
  // written to the rest.

  #ifdef MPCM0
    *_ucsra = ((*_ucsra) & ((1 << U2X0) | (1 << MPCM0))) | (1 << TXC0);
     6e6:	a0 89       	ldd	r26, Z+16	; 0x10
     6e8:	b1 89       	ldd	r27, Z+17	; 0x11
     6ea:	8c 91       	ld	r24, X
     6ec:	83 70       	andi	r24, 0x03	; 3
     6ee:	80 64       	ori	r24, 0x40	; 64
     6f0:	8c 93       	st	X, r24
/home/huser/.arduino15/packages/MiniCore/hardware/avr/3.0.2/cores/MCUdude_corefiles/HardwareSerial.cpp:109
  #else
    *_ucsra = ((*_ucsra) & ((1 << U2X0) | (1 << TXC0)));
  #endif

  if (_tx_buffer_head == _tx_buffer_tail) {
     6f2:	93 8d       	ldd	r25, Z+27	; 0x1b
     6f4:	84 8d       	ldd	r24, Z+28	; 0x1c
     6f6:	98 13       	cpse	r25, r24
     6f8:	06 c0       	rjmp	.+12     	; 0x706 <HardwareSerial::_tx_udr_empty_irq()+0x42>
/home/huser/.arduino15/packages/MiniCore/hardware/avr/3.0.2/cores/MCUdude_corefiles/HardwareSerial.cpp:111
    // Buffer empty, so disable interrupts
    *_ucsrb &= ~_BV(UDRIE0);
     6fa:	02 88       	ldd	r0, Z+18	; 0x12
     6fc:	f3 89       	ldd	r31, Z+19	; 0x13
     6fe:	e0 2d       	mov	r30, r0
     700:	80 81       	ld	r24, Z
     702:	8f 7d       	andi	r24, 0xDF	; 223
     704:	80 83       	st	Z, r24
/home/huser/.arduino15/packages/MiniCore/hardware/avr/3.0.2/cores/MCUdude_corefiles/HardwareSerial.cpp:113
  }
}
     706:	08 95       	ret

00000708 <HardwareSerial::write(unsigned char)>:
_ZN14HardwareSerial5writeEh():
/home/huser/.arduino15/packages/MiniCore/hardware/avr/3.0.2/cores/MCUdude_corefiles/HardwareSerial.cpp:223
  // If we get here, nothing is queued anymore (DRIE is disabled) and
  // the hardware finished tranmission (TXC is set).
}

size_t HardwareSerial::write(uint8_t c)
{
     708:	ef 92       	push	r14
     70a:	ff 92       	push	r15
     70c:	0f 93       	push	r16
     70e:	1f 93       	push	r17
     710:	cf 93       	push	r28
     712:	df 93       	push	r29
     714:	ec 01       	movw	r28, r24
/home/huser/.arduino15/packages/MiniCore/hardware/avr/3.0.2/cores/MCUdude_corefiles/HardwareSerial.cpp:224
  _written = true;
     716:	81 e0       	ldi	r24, 0x01	; 1
     718:	88 8f       	std	Y+24, r24	; 0x18
/home/huser/.arduino15/packages/MiniCore/hardware/avr/3.0.2/cores/MCUdude_corefiles/HardwareSerial.cpp:229
  // If the buffer and the data register is empty, just write the byte
  // to the data register and be done. This shortcut helps
  // significantly improve the effective datarate at high (>
  // 500kbit/s) bitrates, where interrupt overhead becomes a slowdown.
  if (_tx_buffer_head == _tx_buffer_tail && bit_is_set(*_ucsra, UDRE0)) {
     71a:	9b 8d       	ldd	r25, Y+27	; 0x1b
     71c:	8c 8d       	ldd	r24, Y+28	; 0x1c
     71e:	98 13       	cpse	r25, r24
     720:	1a c0       	rjmp	.+52     	; 0x756 <HardwareSerial::write(unsigned char)+0x4e>
     722:	e8 89       	ldd	r30, Y+16	; 0x10
     724:	f9 89       	ldd	r31, Y+17	; 0x11
     726:	80 81       	ld	r24, Z
     728:	85 ff       	sbrs	r24, 5
     72a:	15 c0       	rjmp	.+42     	; 0x756 <HardwareSerial::write(unsigned char)+0x4e>
/home/huser/.arduino15/packages/MiniCore/hardware/avr/3.0.2/cores/MCUdude_corefiles/HardwareSerial.cpp:238
    // So writing UDR must happen first.
    // Writing UDR and clearing TC must be done atomically, otherwise
    // interrupts might delay the TXC clear so the byte written to UDR
    // is transmitted (setting TXC) before clearing TXC. Then TXC will
    // be cleared when no bytes are left, causing flush() to hang
    ATOMIC_BLOCK(ATOMIC_RESTORESTATE) {
     72c:	9f b7       	in	r25, 0x3f	; 63
__iCliRetVal():
/home/huser/.arduino15/packages/arduino/tools/avr-gcc/7.3.0-atmel3.6.1-arduino7/avr/include/util/atomic.h:50
    return 1;
}

static __inline__ uint8_t __iCliRetVal(void)
{
    cli();
     72e:	f8 94       	cli
_ZN14HardwareSerial5writeEh():
/home/huser/.arduino15/packages/MiniCore/hardware/avr/3.0.2/cores/MCUdude_corefiles/HardwareSerial.cpp:239
      *_udr = c;
     730:	ee 89       	ldd	r30, Y+22	; 0x16
     732:	ff 89       	ldd	r31, Y+23	; 0x17
     734:	60 83       	st	Z, r22
/home/huser/.arduino15/packages/MiniCore/hardware/avr/3.0.2/cores/MCUdude_corefiles/HardwareSerial.cpp:241
      #ifdef MPCM0
        *_ucsra = ((*_ucsra) & ((1 << U2X0) | (1 << MPCM0))) | (1 << TXC0);
     736:	e8 89       	ldd	r30, Y+16	; 0x10
     738:	f9 89       	ldd	r31, Y+17	; 0x11
     73a:	80 81       	ld	r24, Z
     73c:	83 70       	andi	r24, 0x03	; 3
     73e:	80 64       	ori	r24, 0x40	; 64
/home/huser/.arduino15/packages/MiniCore/hardware/avr/3.0.2/cores/MCUdude_corefiles/HardwareSerial.cpp:271
  // make atomic to prevent execution of ISR between setting the
  // head pointer and setting the interrupt flag resulting in buffer
  // retransmission
  ATOMIC_BLOCK(ATOMIC_RESTORESTATE) {
    _tx_buffer_head = i;
    *_ucsrb |= _BV(UDRIE0);
     740:	80 83       	st	Z, r24
__iRestore():
/home/huser/.arduino15/packages/arduino/tools/avr-gcc/7.3.0-atmel3.6.1-arduino7/avr/include/util/atomic.h:70
    (void)__s;
}

static __inline__ void __iRestore(const  uint8_t *__s)
{
    SREG = *__s;
     742:	9f bf       	out	0x3f, r25	; 63
_ZN14HardwareSerial5writeEh():
/home/huser/.arduino15/packages/MiniCore/hardware/avr/3.0.2/cores/MCUdude_corefiles/HardwareSerial.cpp:275
  }
  
  return 1;
}
     744:	81 e0       	ldi	r24, 0x01	; 1
     746:	90 e0       	ldi	r25, 0x00	; 0
     748:	df 91       	pop	r29
     74a:	cf 91       	pop	r28
     74c:	1f 91       	pop	r17
     74e:	0f 91       	pop	r16
     750:	ff 90       	pop	r15
     752:	ef 90       	pop	r14
     754:	08 95       	ret
     756:	f6 2e       	mov	r15, r22
/home/huser/.arduino15/packages/MiniCore/hardware/avr/3.0.2/cores/MCUdude_corefiles/HardwareSerial.cpp:248
        *_ucsra = ((*_ucsra) & ((1 << U2X0) | (1 << TXC0)));
      #endif
    }
    return 1;
  }
  tx_buffer_index_t i = (_tx_buffer_head + 1) % SERIAL_TX_BUFFER_SIZE;
     758:	0b 8d       	ldd	r16, Y+27	; 0x1b
     75a:	10 e0       	ldi	r17, 0x00	; 0
     75c:	0f 5f       	subi	r16, 0xFF	; 255
     75e:	1f 4f       	sbci	r17, 0xFF	; 255
     760:	0f 73       	andi	r16, 0x3F	; 63
     762:	11 27       	eor	r17, r17
     764:	e0 2e       	mov	r14, r16
/home/huser/.arduino15/packages/MiniCore/hardware/avr/3.0.2/cores/MCUdude_corefiles/HardwareSerial.cpp:252

  // If the output buffer is full, there's nothing for it other than to 
  // wait for the interrupt handler to empty it a bit
  while (i == _tx_buffer_tail) {
     766:	8c 8d       	ldd	r24, Y+28	; 0x1c
     768:	8e 11       	cpse	r24, r14
     76a:	0c c0       	rjmp	.+24     	; 0x784 <HardwareSerial::write(unsigned char)+0x7c>
/home/huser/.arduino15/packages/MiniCore/hardware/avr/3.0.2/cores/MCUdude_corefiles/HardwareSerial.cpp:253
    if (bit_is_clear(SREG, SREG_I)) {
     76c:	0f b6       	in	r0, 0x3f	; 63
     76e:	07 fc       	sbrc	r0, 7
     770:	fa cf       	rjmp	.-12     	; 0x766 <HardwareSerial::write(unsigned char)+0x5e>
/home/huser/.arduino15/packages/MiniCore/hardware/avr/3.0.2/cores/MCUdude_corefiles/HardwareSerial.cpp:258
      // Interrupts are disabled, so we'll have to poll the data
      // register empty flag ourselves. If it is set, pretend an
      // interrupt has happened and call the handler to free up
      // space for us.
      if(bit_is_set(*_ucsra, UDRE0))
     772:	e8 89       	ldd	r30, Y+16	; 0x10
     774:	f9 89       	ldd	r31, Y+17	; 0x11
     776:	80 81       	ld	r24, Z
     778:	85 ff       	sbrs	r24, 5
     77a:	f5 cf       	rjmp	.-22     	; 0x766 <HardwareSerial::write(unsigned char)+0x5e>
/home/huser/.arduino15/packages/MiniCore/hardware/avr/3.0.2/cores/MCUdude_corefiles/HardwareSerial.cpp:259
        _tx_udr_empty_irq();
     77c:	ce 01       	movw	r24, r28
     77e:	0e 94 62 03 	call	0x6c4	; 0x6c4 <HardwareSerial::_tx_udr_empty_irq()>
     782:	f1 cf       	rjmp	.-30     	; 0x766 <HardwareSerial::write(unsigned char)+0x5e>
/home/huser/.arduino15/packages/MiniCore/hardware/avr/3.0.2/cores/MCUdude_corefiles/HardwareSerial.cpp:265
    } else {
      // nop, the interrupt handler will free up space for us
    }
  }

  _tx_buffer[_tx_buffer_head] = c;
     784:	eb 8d       	ldd	r30, Y+27	; 0x1b
     786:	ec 0f       	add	r30, r28
     788:	fd 2f       	mov	r31, r29
     78a:	f1 1d       	adc	r31, r1
     78c:	e3 5a       	subi	r30, 0xA3	; 163
     78e:	ff 4f       	sbci	r31, 0xFF	; 255
     790:	f0 82       	st	Z, r15
/home/huser/.arduino15/packages/MiniCore/hardware/avr/3.0.2/cores/MCUdude_corefiles/HardwareSerial.cpp:269
  // make atomic to prevent execution of ISR between setting the
  // head pointer and setting the interrupt flag resulting in buffer
  // retransmission
  ATOMIC_BLOCK(ATOMIC_RESTORESTATE) {
     792:	9f b7       	in	r25, 0x3f	; 63
__iCliRetVal():
/home/huser/.arduino15/packages/arduino/tools/avr-gcc/7.3.0-atmel3.6.1-arduino7/avr/include/util/atomic.h:50
    return 1;
}

static __inline__ uint8_t __iCliRetVal(void)
{
    cli();
     794:	f8 94       	cli
_ZN14HardwareSerial5writeEh():
/home/huser/.arduino15/packages/MiniCore/hardware/avr/3.0.2/cores/MCUdude_corefiles/HardwareSerial.cpp:270
    _tx_buffer_head = i;
     796:	0b 8f       	std	Y+27, r16	; 0x1b
/home/huser/.arduino15/packages/MiniCore/hardware/avr/3.0.2/cores/MCUdude_corefiles/HardwareSerial.cpp:271
    *_ucsrb |= _BV(UDRIE0);
     798:	ea 89       	ldd	r30, Y+18	; 0x12
     79a:	fb 89       	ldd	r31, Y+19	; 0x13
     79c:	80 81       	ld	r24, Z
     79e:	80 62       	ori	r24, 0x20	; 32
     7a0:	cf cf       	rjmp	.-98     	; 0x740 <HardwareSerial::write(unsigned char)+0x38>

000007a2 <HardwareSerial::flush()>:
_ZN14HardwareSerial5flushEv():
/home/huser/.arduino15/packages/MiniCore/hardware/avr/3.0.2/cores/MCUdude_corefiles/HardwareSerial.cpp:203
  if (head >= tail) return SERIAL_TX_BUFFER_SIZE - 1 - head + tail;
  return tail - head - 1;
}

void HardwareSerial::flush()
{
     7a2:	cf 93       	push	r28
     7a4:	df 93       	push	r29
     7a6:	ec 01       	movw	r28, r24
/home/huser/.arduino15/packages/MiniCore/hardware/avr/3.0.2/cores/MCUdude_corefiles/HardwareSerial.cpp:207
  // If we have never written a byte, no need to flush. This special
  // case is needed since there is no way to force the TXC (transmit
  // complete) bit to 1 during initialization
  if (!_written)
     7a8:	88 8d       	ldd	r24, Y+24	; 0x18
     7aa:	88 23       	and	r24, r24
     7ac:	b9 f0       	breq	.+46     	; 0x7dc <HardwareSerial::flush()+0x3a>
/home/huser/.arduino15/packages/MiniCore/hardware/avr/3.0.2/cores/MCUdude_corefiles/HardwareSerial.cpp:210
    return;

  while (bit_is_set(*_ucsrb, UDRIE0) || bit_is_clear(*_ucsra, TXC0)) {
     7ae:	aa 89       	ldd	r26, Y+18	; 0x12
     7b0:	bb 89       	ldd	r27, Y+19	; 0x13
     7b2:	e8 89       	ldd	r30, Y+16	; 0x10
     7b4:	f9 89       	ldd	r31, Y+17	; 0x11
     7b6:	8c 91       	ld	r24, X
     7b8:	85 fd       	sbrc	r24, 5
     7ba:	03 c0       	rjmp	.+6      	; 0x7c2 <HardwareSerial::flush()+0x20>
     7bc:	80 81       	ld	r24, Z
     7be:	86 fd       	sbrc	r24, 6
     7c0:	0d c0       	rjmp	.+26     	; 0x7dc <HardwareSerial::flush()+0x3a>
/home/huser/.arduino15/packages/MiniCore/hardware/avr/3.0.2/cores/MCUdude_corefiles/HardwareSerial.cpp:211
    if (bit_is_clear(SREG, SREG_I) && bit_is_set(*_ucsrb, UDRIE0))
     7c2:	0f b6       	in	r0, 0x3f	; 63
     7c4:	07 fc       	sbrc	r0, 7
     7c6:	f7 cf       	rjmp	.-18     	; 0x7b6 <HardwareSerial::flush()+0x14>
     7c8:	8c 91       	ld	r24, X
     7ca:	85 ff       	sbrs	r24, 5
     7cc:	f2 cf       	rjmp	.-28     	; 0x7b2 <HardwareSerial::flush()+0x10>
/home/huser/.arduino15/packages/MiniCore/hardware/avr/3.0.2/cores/MCUdude_corefiles/HardwareSerial.cpp:215
      // Interrupts are globally disabled, but the DR empty
      // interrupt should be enabled, so poll the DR empty flag to
      // prevent deadlock
      if (bit_is_set(*_ucsra, UDRE0))
     7ce:	80 81       	ld	r24, Z
     7d0:	85 ff       	sbrs	r24, 5
     7d2:	ed cf       	rjmp	.-38     	; 0x7ae <HardwareSerial::flush()+0xc>
/home/huser/.arduino15/packages/MiniCore/hardware/avr/3.0.2/cores/MCUdude_corefiles/HardwareSerial.cpp:216
        _tx_udr_empty_irq();
     7d4:	ce 01       	movw	r24, r28
     7d6:	0e 94 62 03 	call	0x6c4	; 0x6c4 <HardwareSerial::_tx_udr_empty_irq()>
     7da:	e9 cf       	rjmp	.-46     	; 0x7ae <HardwareSerial::flush()+0xc>
/home/huser/.arduino15/packages/MiniCore/hardware/avr/3.0.2/cores/MCUdude_corefiles/HardwareSerial.cpp:220
  }
  // If we get here, nothing is queued anymore (DRIE is disabled) and
  // the hardware finished tranmission (TXC is set).
}
     7dc:	df 91       	pop	r29
     7de:	cf 91       	pop	r28
     7e0:	08 95       	ret

000007e2 <serialEventRun()>:
_Z14serialEventRunv():
/home/huser/.arduino15/packages/MiniCore/hardware/avr/3.0.2/cores/MCUdude_corefiles/HardwareSerial.cpp:67
#endif

void serialEventRun(void)
{
#if defined(HAVE_HWSERIAL0)
  if (Serial0_available && serialEvent && Serial0_available()) serialEvent();
     7e2:	80 e0       	ldi	r24, 0x00	; 0
     7e4:	90 e0       	ldi	r25, 0x00	; 0
     7e6:	89 2b       	or	r24, r25
     7e8:	29 f0       	breq	.+10     	; 0x7f4 <serialEventRun()+0x12>
     7ea:	0e 94 58 03 	call	0x6b0	; 0x6b0 <Serial0_available()>
     7ee:	81 11       	cpse	r24, r1
     7f0:	0e 94 00 00 	call	0	; 0x0 <__vectors>
/home/huser/.arduino15/packages/MiniCore/hardware/avr/3.0.2/cores/MCUdude_corefiles/HardwareSerial.cpp:70
#endif
#if defined(HAVE_HWSERIAL1)
  if (Serial1_available && serialEvent1 && Serial1_available()) serialEvent1();
     7f4:	80 e0       	ldi	r24, 0x00	; 0
     7f6:	90 e0       	ldi	r25, 0x00	; 0
     7f8:	89 2b       	or	r24, r25
     7fa:	49 f0       	breq	.+18     	; 0x80e <__DATA_REGION_LENGTH__+0xe>
     7fc:	80 e0       	ldi	r24, 0x00	; 0
     7fe:	90 e0       	ldi	r25, 0x00	; 0
     800:	89 2b       	or	r24, r25
     802:	29 f0       	breq	.+10     	; 0x80e <__DATA_REGION_LENGTH__+0xe>
     804:	0e 94 00 00 	call	0	; 0x0 <__vectors>
     808:	81 11       	cpse	r24, r1
     80a:	0c 94 00 00 	jmp	0	; 0x0 <__vectors>
/home/huser/.arduino15/packages/MiniCore/hardware/avr/3.0.2/cores/MCUdude_corefiles/HardwareSerial.cpp:78
  if (Serial2_available && serialEvent2 && Serial2_available()) serialEvent2();
#endif
#if defined(HAVE_HWSERIAL3)
  if (Serial3_available && serialEvent3 && Serial3_available()) serialEvent3();
#endif
}
     80e:	08 95       	ret

00000810 <twi_transmit>:
twi_transmit():
/home/huser/.arduino15/packages/MiniCore/hardware/avr/3.0.2/libraries/Wire/src/utility/twi.c:371
uint8_t twi_transmit(const uint8_t* data, uint8_t length)
{
  uint8_t i;

  // ensure data will fit into buffer
  if(TWI_BUFFER_SIZE < (twi_txBufferLength+length)){
     810:	20 91 a9 03 	lds	r18, 0x03A9	; 0x8003a9 <twi_txBufferLength>
     814:	26 0f       	add	r18, r22
     816:	33 27       	eor	r19, r19
     818:	33 1f       	adc	r19, r19
     81a:	21 32       	cpi	r18, 0x21	; 33
     81c:	31 05       	cpc	r19, r1
     81e:	ec f4       	brge	.+58     	; 0x85a <twi_transmit+0x4a>
/home/huser/.arduino15/packages/MiniCore/hardware/avr/3.0.2/libraries/Wire/src/utility/twi.c:376
    return 1;
  }

  // ensure we are currently a slave transmitter
  if(TWI_STX != twi_state){
     820:	20 91 cd 03 	lds	r18, 0x03CD	; 0x8003cd <twi_state>
     824:	fc 01       	movw	r30, r24
     826:	90 e0       	ldi	r25, 0x00	; 0
     828:	80 e0       	ldi	r24, 0x00	; 0
     82a:	24 30       	cpi	r18, 0x04	; 4
     82c:	69 f0       	breq	.+26     	; 0x848 <twi_transmit+0x38>
/home/huser/.arduino15/packages/MiniCore/hardware/avr/3.0.2/libraries/Wire/src/utility/twi.c:377
    return 2;
     82e:	82 e0       	ldi	r24, 0x02	; 2
/home/huser/.arduino15/packages/MiniCore/hardware/avr/3.0.2/libraries/Wire/src/utility/twi.c:387
    twi_txBuffer[twi_txBufferLength+i] = data[i];
  }
  twi_txBufferLength += length;

  return 0;
}
     830:	08 95       	ret
/home/huser/.arduino15/packages/MiniCore/hardware/avr/3.0.2/libraries/Wire/src/utility/twi.c:382
    return 2;
  }

  // set length and copy data into tx buffer
  for(i = 0; i < length; ++i){
    twi_txBuffer[twi_txBufferLength+i] = data[i];
     832:	a0 91 a9 03 	lds	r26, 0x03A9	; 0x8003a9 <twi_txBufferLength>
     836:	21 91       	ld	r18, Z+
     838:	ac 01       	movw	r20, r24
     83a:	47 57       	subi	r20, 0x77	; 119
     83c:	5c 4f       	sbci	r21, 0xFC	; 252
     83e:	a4 0f       	add	r26, r20
     840:	b5 2f       	mov	r27, r21
     842:	b1 1d       	adc	r27, r1
     844:	2c 93       	st	X, r18
     846:	01 96       	adiw	r24, 0x01	; 1
/home/huser/.arduino15/packages/MiniCore/hardware/avr/3.0.2/libraries/Wire/src/utility/twi.c:381
  if(TWI_STX != twi_state){
    return 2;
  }

  // set length and copy data into tx buffer
  for(i = 0; i < length; ++i){
     848:	86 17       	cp	r24, r22
     84a:	98 f3       	brcs	.-26     	; 0x832 <twi_transmit+0x22>
/home/huser/.arduino15/packages/MiniCore/hardware/avr/3.0.2/libraries/Wire/src/utility/twi.c:384
    twi_txBuffer[twi_txBufferLength+i] = data[i];
  }
  twi_txBufferLength += length;
     84c:	80 91 a9 03 	lds	r24, 0x03A9	; 0x8003a9 <twi_txBufferLength>
     850:	68 0f       	add	r22, r24
     852:	60 93 a9 03 	sts	0x03A9, r22	; 0x8003a9 <twi_txBufferLength>
     856:	80 e0       	ldi	r24, 0x00	; 0
     858:	08 95       	ret
/home/huser/.arduino15/packages/MiniCore/hardware/avr/3.0.2/libraries/Wire/src/utility/twi.c:372
{
  uint8_t i;

  // ensure data will fit into buffer
  if(TWI_BUFFER_SIZE < (twi_txBufferLength+length)){
    return 1;
     85a:	81 e0       	ldi	r24, 0x01	; 1
     85c:	08 95       	ret

0000085e <twi_writeTo>:
twi_writeTo():
/home/huser/.arduino15/packages/MiniCore/hardware/avr/3.0.2/libraries/Wire/src/utility/twi.c:266
 *          3 .. data send, NACK received
 *          4 .. other twi error (lost bus arbitration, bus error, ..)
 *          5 .. timeout
 */
uint8_t twi_writeTo(uint8_t address, uint8_t* data, uint8_t length, uint8_t wait, uint8_t sendStop)
{
     85e:	0f 93       	push	r16
/home/huser/.arduino15/packages/MiniCore/hardware/avr/3.0.2/libraries/Wire/src/utility/twi.c:268
  // ensure data will fit into buffer
  if(TWI_BUFFER_SIZE < length){
     860:	41 32       	cpi	r20, 0x21	; 33
     862:	08 f0       	brcs	.+2      	; 0x866 <twi_writeTo+0x8>
     864:	44 c0       	rjmp	.+136    	; 0x8ee <twi_writeTo+0x90>
/home/huser/.arduino15/packages/MiniCore/hardware/avr/3.0.2/libraries/Wire/src/utility/twi.c:282
        twi_handleTimeout(twi_do_reset_on_timeout);
        return (5);
      }
    }
  #else
    while(TWI_READY != twi_state){
     866:	90 91 cd 03 	lds	r25, 0x03CD	; 0x8003cd <twi_state>
     86a:	91 11       	cpse	r25, r1
     86c:	fc cf       	rjmp	.-8      	; 0x866 <twi_writeTo+0x8>
/home/huser/.arduino15/packages/MiniCore/hardware/avr/3.0.2/libraries/Wire/src/utility/twi.c:287
      continue;
    }
  #endif

  twi_state = TWI_MTX;
     86e:	92 e0       	ldi	r25, 0x02	; 2
     870:	90 93 cd 03 	sts	0x03CD, r25	; 0x8003cd <twi_state>
/home/huser/.arduino15/packages/MiniCore/hardware/avr/3.0.2/libraries/Wire/src/utility/twi.c:288
  twi_sendStop = sendStop;
     874:	00 93 cf 03 	sts	0x03CF, r16	; 0x8003cf <twi_sendStop>
/home/huser/.arduino15/packages/MiniCore/hardware/avr/3.0.2/libraries/Wire/src/utility/twi.c:290
  // reset error state (0xFF.. no error occurred)
  twi_error = 0xFF;
     878:	9f ef       	ldi	r25, 0xFF	; 255
     87a:	90 93 cc 03 	sts	0x03CC, r25	; 0x8003cc <twi_error>
/home/huser/.arduino15/packages/MiniCore/hardware/avr/3.0.2/libraries/Wire/src/utility/twi.c:293

  // initialize buffer iteration vars
  twi_masterBuffer = data;
     87e:	70 93 d1 03 	sts	0x03D1, r23	; 0x8003d1 <twi_masterBuffer+0x1>
     882:	60 93 d0 03 	sts	0x03D0, r22	; 0x8003d0 <twi_masterBuffer>
/home/huser/.arduino15/packages/MiniCore/hardware/avr/3.0.2/libraries/Wire/src/utility/twi.c:294
  twi_masterBufferIndex = 0;
     886:	10 92 d3 03 	sts	0x03D3, r1	; 0x8003d3 <twi_masterBufferIndex>
/home/huser/.arduino15/packages/MiniCore/hardware/avr/3.0.2/libraries/Wire/src/utility/twi.c:295
  twi_masterBufferLength = length;
     88a:	40 93 d2 03 	sts	0x03D2, r20	; 0x8003d2 <twi_masterBufferLength>
/home/huser/.arduino15/packages/MiniCore/hardware/avr/3.0.2/libraries/Wire/src/utility/twi.c:298

  // build sla+w, slave device address + w bit
  twi_slarw = TW_WRITE;
     88e:	10 92 d4 03 	sts	0x03D4, r1	; 0x8003d4 <twi_slarw>
/home/huser/.arduino15/packages/MiniCore/hardware/avr/3.0.2/libraries/Wire/src/utility/twi.c:299
  twi_slarw |= address << 1;
     892:	90 91 d4 03 	lds	r25, 0x03D4	; 0x8003d4 <twi_slarw>
     896:	88 0f       	add	r24, r24
     898:	89 2b       	or	r24, r25
     89a:	80 93 d4 03 	sts	0x03D4, r24	; 0x8003d4 <twi_slarw>
/home/huser/.arduino15/packages/MiniCore/hardware/avr/3.0.2/libraries/Wire/src/utility/twi.c:304

  // if we're in a repeated start, then we've already sent the START
  // in the ISR. Don't do it again.
  //
  if (true == twi_inRepStart) {
     89e:	80 91 ce 03 	lds	r24, 0x03CE	; 0x8003ce <twi_inRepStart>
     8a2:	81 30       	cpi	r24, 0x01	; 1
     8a4:	11 f5       	brne	.+68     	; 0x8ea <twi_writeTo+0x8c>
/home/huser/.arduino15/packages/MiniCore/hardware/avr/3.0.2/libraries/Wire/src/utility/twi.c:311
    // (@@@ we hope), and the TWI statemachine is just waiting for the address byte.
    // We need to remove ourselves from the repeated start state before we enable interrupts,
    // since the ISR is ASYNC, and we could get confused if we hit the ISR before cleaning
    // up. Also, don't enable the START interrupt. There may be one pending from the 
    // repeated start that we sent ourselves, and that would really confuse things.
    twi_inRepStart = false; // Remember, we're dealing with an ASYNC ISR
     8a6:	10 92 ce 03 	sts	0x03CE, r1	; 0x8003ce <twi_inRepStart>
/home/huser/.arduino15/packages/MiniCore/hardware/avr/3.0.2/libraries/Wire/src/utility/twi.c:322
          return (5);
        }
      } while(TWCR & _BV(TWWC));
    #else
      do {
        TWDR = twi_slarw;
     8aa:	80 91 d4 03 	lds	r24, 0x03D4	; 0x8003d4 <twi_slarw>
     8ae:	80 93 bb 00 	sts	0x00BB, r24	; 0x8000bb <__TEXT_REGION_LENGTH__+0x7f80bb>
/home/huser/.arduino15/packages/MiniCore/hardware/avr/3.0.2/libraries/Wire/src/utility/twi.c:323
      } while(TWCR & _BV(TWWC));
     8b2:	80 91 bc 00 	lds	r24, 0x00BC	; 0x8000bc <__TEXT_REGION_LENGTH__+0x7f80bc>
     8b6:	83 fd       	sbrc	r24, 3
     8b8:	f8 cf       	rjmp	.-16     	; 0x8aa <twi_writeTo+0x4c>
/home/huser/.arduino15/packages/MiniCore/hardware/avr/3.0.2/libraries/Wire/src/utility/twi.c:325
    #endif
    TWCR = _BV(TWINT) | _BV(TWEA) | _BV(TWEN) | _BV(TWIE);  // enable INTs, but not START
     8ba:	85 ec       	ldi	r24, 0xC5	; 197
/home/huser/.arduino15/packages/MiniCore/hardware/avr/3.0.2/libraries/Wire/src/utility/twi.c:329
  }
  else
    // send start condition
    TWCR = _BV(TWINT) | _BV(TWEA) | _BV(TWEN) | _BV(TWIE) | _BV(TWSTA); // enable INTs
     8bc:	80 93 bc 00 	sts	0x00BC, r24	; 0x8000bc <__TEXT_REGION_LENGTH__+0x7f80bc>
/home/huser/.arduino15/packages/MiniCore/hardware/avr/3.0.2/libraries/Wire/src/utility/twi.c:341
        twi_handleTimeout(twi_do_reset_on_timeout);
        return (5);
      }
    }
  #else
    while(wait && (TWI_MTX == twi_state)){
     8c0:	22 23       	and	r18, r18
     8c2:	21 f0       	breq	.+8      	; 0x8cc <twi_writeTo+0x6e>
     8c4:	80 91 cd 03 	lds	r24, 0x03CD	; 0x8003cd <twi_state>
     8c8:	82 30       	cpi	r24, 0x02	; 2
     8ca:	d1 f3       	breq	.-12     	; 0x8c0 <twi_writeTo+0x62>
/home/huser/.arduino15/packages/MiniCore/hardware/avr/3.0.2/libraries/Wire/src/utility/twi.c:346
      continue;
    }
  #endif

  if (twi_error == 0xFF)
     8cc:	80 91 cc 03 	lds	r24, 0x03CC	; 0x8003cc <twi_error>
     8d0:	8f 3f       	cpi	r24, 0xFF	; 255
     8d2:	79 f0       	breq	.+30     	; 0x8f2 <twi_writeTo+0x94>
/home/huser/.arduino15/packages/MiniCore/hardware/avr/3.0.2/libraries/Wire/src/utility/twi.c:348
    return 0; // success
  else if (twi_error == TW_MT_SLA_NACK)
     8d4:	80 91 cc 03 	lds	r24, 0x03CC	; 0x8003cc <twi_error>
     8d8:	80 32       	cpi	r24, 0x20	; 32
     8da:	69 f0       	breq	.+26     	; 0x8f6 <twi_writeTo+0x98>
/home/huser/.arduino15/packages/MiniCore/hardware/avr/3.0.2/libraries/Wire/src/utility/twi.c:350
    return 2; // error: address send, nack received
  else if (twi_error == TW_MT_DATA_NACK)
     8dc:	80 91 cc 03 	lds	r24, 0x03CC	; 0x8003cc <twi_error>
     8e0:	80 33       	cpi	r24, 0x30	; 48
     8e2:	59 f0       	breq	.+22     	; 0x8fa <twi_writeTo+0x9c>
/home/huser/.arduino15/packages/MiniCore/hardware/avr/3.0.2/libraries/Wire/src/utility/twi.c:353
    return 3; // error: data send, nack received
  else
    return 4; // other twi error
     8e4:	84 e0       	ldi	r24, 0x04	; 4
/home/huser/.arduino15/packages/MiniCore/hardware/avr/3.0.2/libraries/Wire/src/utility/twi.c:354
}
     8e6:	0f 91       	pop	r16
     8e8:	08 95       	ret
/home/huser/.arduino15/packages/MiniCore/hardware/avr/3.0.2/libraries/Wire/src/utility/twi.c:329
    #endif
    TWCR = _BV(TWINT) | _BV(TWEA) | _BV(TWEN) | _BV(TWIE);  // enable INTs, but not START
  }
  else
    // send start condition
    TWCR = _BV(TWINT) | _BV(TWEA) | _BV(TWEN) | _BV(TWIE) | _BV(TWSTA); // enable INTs
     8ea:	85 ee       	ldi	r24, 0xE5	; 229
     8ec:	e7 cf       	rjmp	.-50     	; 0x8bc <twi_writeTo+0x5e>
/home/huser/.arduino15/packages/MiniCore/hardware/avr/3.0.2/libraries/Wire/src/utility/twi.c:269
 */
uint8_t twi_writeTo(uint8_t address, uint8_t* data, uint8_t length, uint8_t wait, uint8_t sendStop)
{
  // ensure data will fit into buffer
  if(TWI_BUFFER_SIZE < length){
    return 1;
     8ee:	81 e0       	ldi	r24, 0x01	; 1
     8f0:	fa cf       	rjmp	.-12     	; 0x8e6 <twi_writeTo+0x88>
/home/huser/.arduino15/packages/MiniCore/hardware/avr/3.0.2/libraries/Wire/src/utility/twi.c:347
      continue;
    }
  #endif

  if (twi_error == 0xFF)
    return 0; // success
     8f2:	80 e0       	ldi	r24, 0x00	; 0
     8f4:	f8 cf       	rjmp	.-16     	; 0x8e6 <twi_writeTo+0x88>
/home/huser/.arduino15/packages/MiniCore/hardware/avr/3.0.2/libraries/Wire/src/utility/twi.c:349
  else if (twi_error == TW_MT_SLA_NACK)
    return 2; // error: address send, nack received
     8f6:	82 e0       	ldi	r24, 0x02	; 2
     8f8:	f6 cf       	rjmp	.-20     	; 0x8e6 <twi_writeTo+0x88>
/home/huser/.arduino15/packages/MiniCore/hardware/avr/3.0.2/libraries/Wire/src/utility/twi.c:351
  else if (twi_error == TW_MT_DATA_NACK)
    return 3; // error: data send, nack received
     8fa:	83 e0       	ldi	r24, 0x03	; 3
     8fc:	f4 cf       	rjmp	.-24     	; 0x8e6 <twi_writeTo+0x88>

000008fe <twi_readFrom>:
twi_readFrom():
/home/huser/.arduino15/packages/MiniCore/hardware/avr/3.0.2/libraries/Wire/src/utility/twi.c:163
 * Output   number of bytes read
 */
uint8_t twi_readFrom(uint8_t address, uint8_t* data, uint8_t length, uint8_t sendStop)
{
  // ensure data will fit into buffer
  if(TWI_BUFFER_SIZE < length){
     8fe:	41 32       	cpi	r20, 0x21	; 33
     900:	e0 f5       	brcc	.+120    	; 0x97a <__stack+0x7b>
/home/huser/.arduino15/packages/MiniCore/hardware/avr/3.0.2/libraries/Wire/src/utility/twi.c:177
        twi_handleTimeout(twi_do_reset_on_timeout);
        return 0;
      }
    }
  #else
    while(TWI_READY != twi_state){
     902:	90 91 cd 03 	lds	r25, 0x03CD	; 0x8003cd <twi_state>
     906:	91 11       	cpse	r25, r1
     908:	fc cf       	rjmp	.-8      	; 0x902 <__stack+0x3>
/home/huser/.arduino15/packages/MiniCore/hardware/avr/3.0.2/libraries/Wire/src/utility/twi.c:181
      continue;
    }
  #endif
  twi_state = TWI_MRX;
     90a:	91 e0       	ldi	r25, 0x01	; 1
     90c:	90 93 cd 03 	sts	0x03CD, r25	; 0x8003cd <twi_state>
/home/huser/.arduino15/packages/MiniCore/hardware/avr/3.0.2/libraries/Wire/src/utility/twi.c:182
  twi_sendStop = sendStop;
     910:	20 93 cf 03 	sts	0x03CF, r18	; 0x8003cf <twi_sendStop>
/home/huser/.arduino15/packages/MiniCore/hardware/avr/3.0.2/libraries/Wire/src/utility/twi.c:184
  // reset error state (0xFF.. no error occurred)
  twi_error = 0xFF;
     914:	2f ef       	ldi	r18, 0xFF	; 255
     916:	20 93 cc 03 	sts	0x03CC, r18	; 0x8003cc <twi_error>
/home/huser/.arduino15/packages/MiniCore/hardware/avr/3.0.2/libraries/Wire/src/utility/twi.c:187

  // initialize buffer iteration vars
  twi_masterBuffer = data;
     91a:	70 93 d1 03 	sts	0x03D1, r23	; 0x8003d1 <twi_masterBuffer+0x1>
     91e:	60 93 d0 03 	sts	0x03D0, r22	; 0x8003d0 <twi_masterBuffer>
/home/huser/.arduino15/packages/MiniCore/hardware/avr/3.0.2/libraries/Wire/src/utility/twi.c:188
  twi_masterBufferIndex = 0;
     922:	10 92 d3 03 	sts	0x03D3, r1	; 0x8003d3 <twi_masterBufferIndex>
/home/huser/.arduino15/packages/MiniCore/hardware/avr/3.0.2/libraries/Wire/src/utility/twi.c:189
  twi_masterBufferLength = length-1;  // This is not intuitive, read on...
     926:	24 0f       	add	r18, r20
     928:	20 93 d2 03 	sts	0x03D2, r18	; 0x8003d2 <twi_masterBufferLength>
/home/huser/.arduino15/packages/MiniCore/hardware/avr/3.0.2/libraries/Wire/src/utility/twi.c:197
  // Therefore we must actually set NACK when the _next_ to last byte is
  // received, causing that NACK to be sent in response to receiving the last
  // expected byte of data.

  // build sla+w, slave device address + w bit
  twi_slarw = TW_READ;
     92c:	90 93 d4 03 	sts	0x03D4, r25	; 0x8003d4 <twi_slarw>
/home/huser/.arduino15/packages/MiniCore/hardware/avr/3.0.2/libraries/Wire/src/utility/twi.c:198
  twi_slarw |= address << 1;
     930:	90 91 d4 03 	lds	r25, 0x03D4	; 0x8003d4 <twi_slarw>
     934:	88 0f       	add	r24, r24
     936:	89 2b       	or	r24, r25
     938:	80 93 d4 03 	sts	0x03D4, r24	; 0x8003d4 <twi_slarw>
/home/huser/.arduino15/packages/MiniCore/hardware/avr/3.0.2/libraries/Wire/src/utility/twi.c:200

  if (true == twi_inRepStart) {
     93c:	80 91 ce 03 	lds	r24, 0x03CE	; 0x8003ce <twi_inRepStart>
     940:	81 30       	cpi	r24, 0x01	; 1
     942:	c9 f4       	brne	.+50     	; 0x976 <__stack+0x77>
/home/huser/.arduino15/packages/MiniCore/hardware/avr/3.0.2/libraries/Wire/src/utility/twi.c:207
    // (@@@ we hope), and the TWI statemachine is just waiting for the address byte.
    // We need to remove ourselves from the repeated start state before we enable interrupts,
    // since the ISR is ASYNC, and we could get confused if we hit the ISR before cleaning
    // up. Also, don't enable the START interrupt. There may be one pending from the
    // repeated start that we sent ourselves, and that would really confuse things.
    twi_inRepStart = false; // Remember, we're dealing with an ASYNC ISR
     944:	10 92 ce 03 	sts	0x03CE, r1	; 0x8003ce <twi_inRepStart>
/home/huser/.arduino15/packages/MiniCore/hardware/avr/3.0.2/libraries/Wire/src/utility/twi.c:219
          return 0;
        }
      } while(TWCR & _BV(TWWC));
    #else
      do {
        TWDR = twi_slarw;
     948:	80 91 d4 03 	lds	r24, 0x03D4	; 0x8003d4 <twi_slarw>
     94c:	80 93 bb 00 	sts	0x00BB, r24	; 0x8000bb <__TEXT_REGION_LENGTH__+0x7f80bb>
/home/huser/.arduino15/packages/MiniCore/hardware/avr/3.0.2/libraries/Wire/src/utility/twi.c:220
      } while(TWCR & _BV(TWWC));
     950:	80 91 bc 00 	lds	r24, 0x00BC	; 0x8000bc <__TEXT_REGION_LENGTH__+0x7f80bc>
     954:	83 fd       	sbrc	r24, 3
     956:	f8 cf       	rjmp	.-16     	; 0x948 <__stack+0x49>
/home/huser/.arduino15/packages/MiniCore/hardware/avr/3.0.2/libraries/Wire/src/utility/twi.c:222
    #endif
    TWCR = _BV(TWINT) | _BV(TWEA) | _BV(TWEN) | _BV(TWIE);  // enable INTs, but not START
     958:	85 ec       	ldi	r24, 0xC5	; 197
/home/huser/.arduino15/packages/MiniCore/hardware/avr/3.0.2/libraries/Wire/src/utility/twi.c:226
  }
  else
    // send start condition
    TWCR = _BV(TWEN) | _BV(TWIE) | _BV(TWEA) | _BV(TWINT) | _BV(TWSTA);
     95a:	80 93 bc 00 	sts	0x00BC, r24	; 0x8000bc <__TEXT_REGION_LENGTH__+0x7f80bc>
/home/huser/.arduino15/packages/MiniCore/hardware/avr/3.0.2/libraries/Wire/src/utility/twi.c:238
        twi_handleTimeout(twi_do_reset_on_timeout);
        return 0;
      }
    }
  #else
    while(TWI_MRX == twi_state){
     95e:	80 91 cd 03 	lds	r24, 0x03CD	; 0x8003cd <twi_state>
     962:	81 30       	cpi	r24, 0x01	; 1
     964:	e1 f3       	breq	.-8      	; 0x95e <__stack+0x5f>
/home/huser/.arduino15/packages/MiniCore/hardware/avr/3.0.2/libraries/Wire/src/utility/twi.c:243
      continue;
    }
  #endif

  if (twi_masterBufferIndex < length)
     966:	80 91 d3 03 	lds	r24, 0x03D3	; 0x8003d3 <twi_masterBufferIndex>
     96a:	84 17       	cp	r24, r20
     96c:	10 f4       	brcc	.+4      	; 0x972 <__stack+0x73>
/home/huser/.arduino15/packages/MiniCore/hardware/avr/3.0.2/libraries/Wire/src/utility/twi.c:244
    length = twi_masterBufferIndex;
     96e:	40 91 d3 03 	lds	r20, 0x03D3	; 0x8003d3 <twi_masterBufferIndex>
/home/huser/.arduino15/packages/MiniCore/hardware/avr/3.0.2/libraries/Wire/src/utility/twi.c:247

  return length;
}
     972:	84 2f       	mov	r24, r20
     974:	08 95       	ret
/home/huser/.arduino15/packages/MiniCore/hardware/avr/3.0.2/libraries/Wire/src/utility/twi.c:226
    #endif
    TWCR = _BV(TWINT) | _BV(TWEA) | _BV(TWEN) | _BV(TWIE);  // enable INTs, but not START
  }
  else
    // send start condition
    TWCR = _BV(TWEN) | _BV(TWIE) | _BV(TWEA) | _BV(TWINT) | _BV(TWSTA);
     976:	85 ee       	ldi	r24, 0xE5	; 229
     978:	f0 cf       	rjmp	.-32     	; 0x95a <__stack+0x5b>
/home/huser/.arduino15/packages/MiniCore/hardware/avr/3.0.2/libraries/Wire/src/utility/twi.c:164
 */
uint8_t twi_readFrom(uint8_t address, uint8_t* data, uint8_t length, uint8_t sendStop)
{
  // ensure data will fit into buffer
  if(TWI_BUFFER_SIZE < length){
    return 0;
     97a:	40 e0       	ldi	r20, 0x00	; 0
     97c:	fa cf       	rjmp	.-12     	; 0x972 <__stack+0x73>

0000097e <{lambda()#2}::_FUN()>:
_ZNUlvE0_4_FUNEv():
/home/huser/.arduino15/packages/MiniCore/hardware/avr/3.0.2/libraries/Wire/src/Wire.cpp:743

// behind the scenes function that is called when data is requested
void TwoWire::onRequestService(void)
{
  // don't bother if user hasn't registered a callback
  if(!user_onRequest){
     97e:	e0 91 b8 05 	lds	r30, 0x05B8	; 0x8005b8 <Wire+0x18>
     982:	f0 91 b9 05 	lds	r31, 0x05B9	; 0x8005b9 <Wire+0x19>
     986:	30 97       	sbiw	r30, 0x00	; 0
     988:	29 f0       	breq	.+10     	; 0x994 <{lambda()#2}::_FUN()+0x16>
/home/huser/.arduino15/packages/MiniCore/hardware/avr/3.0.2/libraries/Wire/src/Wire.cpp:748
    return;
  }
  // reset tx buffer iterator vars
  // !!! this will kill any pending pre-master sendTo() activity
  txBufferIndex = 0;
     98a:	10 92 b5 05 	sts	0x05B5, r1	; 0x8005b5 <Wire+0x15>
/home/huser/.arduino15/packages/MiniCore/hardware/avr/3.0.2/libraries/Wire/src/Wire.cpp:749
  txBufferLength = 0;
     98e:	10 92 b6 05 	sts	0x05B6, r1	; 0x8005b6 <Wire+0x16>
/home/huser/.arduino15/packages/MiniCore/hardware/avr/3.0.2/libraries/Wire/src/Wire.cpp:751
  // alert user program
  user_onRequest();
     992:	09 94       	ijmp
/home/huser/.arduino15/packages/MiniCore/hardware/avr/3.0.2/libraries/Wire/src/Wire.cpp:787
                         twi_manageTimeoutFlag,
                       #endif
                       twi_attachSlaveRxEvent,
                       [](uint8_t* v, int len){ Wire.onReceiveService(v, len); },
                       twi_attachSlaveTxEvent,
                       [](){ Wire.onRequestService(); });
     994:	08 95       	ret

00000996 <{lambda(unsigned char*, int)#1}::_FUN(unsigned char*, int)>:
_ZNUlPhiE_4_FUNES_i():
/home/huser/.arduino15/packages/MiniCore/hardware/avr/3.0.2/libraries/Wire/src/Wire.cpp:785
                         twi_setTimeoutInMicros,
                         twi_handleTimeout,
                         twi_manageTimeoutFlag,
                       #endif
                       twi_attachSlaveRxEvent,
                       [](uint8_t* v, int len){ Wire.onReceiveService(v, len); },
     996:	dc 01       	movw	r26, r24
onReceiveService():
/home/huser/.arduino15/packages/MiniCore/hardware/avr/3.0.2/libraries/Wire/src/Wire.cpp:718

// behind the scenes function that is called when data is received
void TwoWire::onReceiveService(uint8_t* inBytes, int numBytes)
{
  // don't bother if user hasn't registered a callback
  if(!user_onReceive){
     998:	80 91 ba 05 	lds	r24, 0x05BA	; 0x8005ba <Wire+0x1a>
     99c:	90 91 bb 05 	lds	r25, 0x05BB	; 0x8005bb <Wire+0x1b>
     9a0:	89 2b       	or	r24, r25
     9a2:	19 f1       	breq	.+70     	; 0x9ea <{lambda(unsigned char*, int)#1}::_FUN(unsigned char*, int)+0x54>
/home/huser/.arduino15/packages/MiniCore/hardware/avr/3.0.2/libraries/Wire/src/Wire.cpp:724
    return;
  }
  // don't bother if rx buffer is in use by a master requestFrom() op
  // i know this drops data, but it allows for slight stupidity
  // meaning, they may not have read all the master requestFrom() data yet
  if(rxBufferIndex < rxBufferLength){
     9a4:	90 91 b0 05 	lds	r25, 0x05B0	; 0x8005b0 <Wire+0x10>
     9a8:	80 91 b1 05 	lds	r24, 0x05B1	; 0x8005b1 <Wire+0x11>
     9ac:	98 17       	cp	r25, r24
     9ae:	e8 f0       	brcs	.+58     	; 0x9ea <{lambda(unsigned char*, int)#1}::_FUN(unsigned char*, int)+0x54>
_ZNUlPhiE_4_FUNES_i():
/home/huser/.arduino15/packages/MiniCore/hardware/avr/3.0.2/libraries/Wire/src/Wire.cpp:729
    return;
  }
  // copy twi rx buffer into local read buffer
  // this enables new reads to happen in parallel
  for(uint8_t i = 0; i < numBytes; ++i){
     9b0:	90 e0       	ldi	r25, 0x00	; 0
onReceiveService():
     9b2:	29 2f       	mov	r18, r25
     9b4:	30 e0       	ldi	r19, 0x00	; 0
     9b6:	26 17       	cp	r18, r22
     9b8:	37 07       	cpc	r19, r23
     9ba:	6c f4       	brge	.+26     	; 0x9d6 <{lambda(unsigned char*, int)#1}::_FUN(unsigned char*, int)+0x40>
/home/huser/.arduino15/packages/MiniCore/hardware/avr/3.0.2/libraries/Wire/src/Wire.cpp:730
    rxBuffer[i] = inBytes[i];
     9bc:	fd 01       	movw	r30, r26
     9be:	e2 0f       	add	r30, r18
     9c0:	f3 1f       	adc	r31, r19
     9c2:	40 81       	ld	r20, Z
     9c4:	e0 91 ae 05 	lds	r30, 0x05AE	; 0x8005ae <Wire+0xe>
     9c8:	f0 91 af 05 	lds	r31, 0x05AF	; 0x8005af <Wire+0xf>
     9cc:	e2 0f       	add	r30, r18
     9ce:	f3 1f       	adc	r31, r19
     9d0:	40 83       	st	Z, r20
/home/huser/.arduino15/packages/MiniCore/hardware/avr/3.0.2/libraries/Wire/src/Wire.cpp:729
  if(rxBufferIndex < rxBufferLength){
    return;
  }
  // copy twi rx buffer into local read buffer
  // this enables new reads to happen in parallel
  for(uint8_t i = 0; i < numBytes; ++i){
     9d2:	9f 5f       	subi	r25, 0xFF	; 255
     9d4:	ee cf       	rjmp	.-36     	; 0x9b2 <{lambda(unsigned char*, int)#1}::_FUN(unsigned char*, int)+0x1c>
/home/huser/.arduino15/packages/MiniCore/hardware/avr/3.0.2/libraries/Wire/src/Wire.cpp:733
    rxBuffer[i] = inBytes[i];
  }
  // set rx iterator vars
  rxBufferIndex = 0;
     9d6:	10 92 b0 05 	sts	0x05B0, r1	; 0x8005b0 <Wire+0x10>
/home/huser/.arduino15/packages/MiniCore/hardware/avr/3.0.2/libraries/Wire/src/Wire.cpp:734
  rxBufferLength = numBytes;
     9da:	60 93 b1 05 	sts	0x05B1, r22	; 0x8005b1 <Wire+0x11>
/home/huser/.arduino15/packages/MiniCore/hardware/avr/3.0.2/libraries/Wire/src/Wire.cpp:736
  // alert user program
  user_onReceive(numBytes);
     9de:	e0 91 ba 05 	lds	r30, 0x05BA	; 0x8005ba <Wire+0x1a>
     9e2:	f0 91 bb 05 	lds	r31, 0x05BB	; 0x8005bb <Wire+0x1b>
     9e6:	cb 01       	movw	r24, r22
     9e8:	09 94       	ijmp
_ZNUlPhiE_4_FUNES_i():
/home/huser/.arduino15/packages/MiniCore/hardware/avr/3.0.2/libraries/Wire/src/Wire.cpp:785
                         twi_setTimeoutInMicros,
                         twi_handleTimeout,
                         twi_manageTimeoutFlag,
                       #endif
                       twi_attachSlaveRxEvent,
                       [](uint8_t* v, int len){ Wire.onReceiveService(v, len); },
     9ea:	08 95       	ret

000009ec <TwoWire::flush()>:
_ZN7TwoWire5flushEv():
/home/huser/.arduino15/packages/MiniCore/hardware/avr/3.0.2/libraries/Wire/src/Wire.cpp:712
}

void TwoWire::flush(void)
{
  // XXX: to be implemented.
}
     9ec:	08 95       	ret

000009ee <TwoWire::peek()>:
_ZN7TwoWire4peekEv():
/home/huser/.arduino15/packages/MiniCore/hardware/avr/3.0.2/libraries/Wire/src/Wire.cpp:699

// must be called in:
// slave rx event callback
// or after requestFrom(address, numBytes)
int TwoWire::peek(void)
{
     9ee:	dc 01       	movw	r26, r24
/home/huser/.arduino15/packages/MiniCore/hardware/avr/3.0.2/libraries/Wire/src/Wire.cpp:702
  int value = -1;

  if(rxBufferIndex < rxBufferLength){
     9f0:	50 96       	adiw	r26, 0x10	; 16
     9f2:	ec 91       	ld	r30, X
     9f4:	50 97       	sbiw	r26, 0x10	; 16
     9f6:	51 96       	adiw	r26, 0x11	; 17
     9f8:	8c 91       	ld	r24, X
     9fa:	51 97       	sbiw	r26, 0x11	; 17
     9fc:	e8 17       	cp	r30, r24
     9fe:	48 f4       	brcc	.+18     	; 0xa12 <TwoWire::peek()+0x24>
/home/huser/.arduino15/packages/MiniCore/hardware/avr/3.0.2/libraries/Wire/src/Wire.cpp:703
    value = rxBuffer[rxBufferIndex];
     a00:	1e 96       	adiw	r26, 0x0e	; 14
     a02:	8d 91       	ld	r24, X+
     a04:	9c 91       	ld	r25, X
     a06:	e8 0f       	add	r30, r24
     a08:	f9 2f       	mov	r31, r25
     a0a:	f1 1d       	adc	r31, r1
     a0c:	80 81       	ld	r24, Z
     a0e:	90 e0       	ldi	r25, 0x00	; 0
     a10:	08 95       	ret
/home/huser/.arduino15/packages/MiniCore/hardware/avr/3.0.2/libraries/Wire/src/Wire.cpp:700
// must be called in:
// slave rx event callback
// or after requestFrom(address, numBytes)
int TwoWire::peek(void)
{
  int value = -1;
     a12:	8f ef       	ldi	r24, 0xFF	; 255
     a14:	9f ef       	ldi	r25, 0xFF	; 255
/home/huser/.arduino15/packages/MiniCore/hardware/avr/3.0.2/libraries/Wire/src/Wire.cpp:707
  if(rxBufferIndex < rxBufferLength){
    value = rxBuffer[rxBufferIndex];
  }

  return value;
}
     a16:	08 95       	ret

00000a18 <TwoWire::read()>:
_ZN7TwoWire4readEv():
/home/huser/.arduino15/packages/MiniCore/hardware/avr/3.0.2/libraries/Wire/src/Wire.cpp:683

// must be called in:
// slave rx event callback
// or after requestFrom(address, numBytes)
int TwoWire::read(void)
{
     a18:	fc 01       	movw	r30, r24
/home/huser/.arduino15/packages/MiniCore/hardware/avr/3.0.2/libraries/Wire/src/Wire.cpp:687
  int value = -1;

  // get each successive byte on each call
  if(rxBufferIndex < rxBufferLength){
     a1a:	90 89       	ldd	r25, Z+16	; 0x10
     a1c:	81 89       	ldd	r24, Z+17	; 0x11
/home/huser/.arduino15/packages/MiniCore/hardware/avr/3.0.2/libraries/Wire/src/Wire.cpp:684
// must be called in:
// slave rx event callback
// or after requestFrom(address, numBytes)
int TwoWire::read(void)
{
  int value = -1;
     a1e:	2f ef       	ldi	r18, 0xFF	; 255
     a20:	3f ef       	ldi	r19, 0xFF	; 255
/home/huser/.arduino15/packages/MiniCore/hardware/avr/3.0.2/libraries/Wire/src/Wire.cpp:687

  // get each successive byte on each call
  if(rxBufferIndex < rxBufferLength){
     a22:	98 17       	cp	r25, r24
     a24:	40 f4       	brcc	.+16     	; 0xa36 <TwoWire::read()+0x1e>
/home/huser/.arduino15/packages/MiniCore/hardware/avr/3.0.2/libraries/Wire/src/Wire.cpp:688
    value = rxBuffer[rxBufferIndex];
     a26:	a6 85       	ldd	r26, Z+14	; 0x0e
     a28:	b7 85       	ldd	r27, Z+15	; 0x0f
     a2a:	a9 0f       	add	r26, r25
     a2c:	b1 1d       	adc	r27, r1
     a2e:	2c 91       	ld	r18, X
     a30:	30 e0       	ldi	r19, 0x00	; 0
/home/huser/.arduino15/packages/MiniCore/hardware/avr/3.0.2/libraries/Wire/src/Wire.cpp:689
    ++rxBufferIndex;
     a32:	9f 5f       	subi	r25, 0xFF	; 255
     a34:	90 8b       	std	Z+16, r25	; 0x10
/home/huser/.arduino15/packages/MiniCore/hardware/avr/3.0.2/libraries/Wire/src/Wire.cpp:693
  }

  return value;
}
     a36:	c9 01       	movw	r24, r18
     a38:	08 95       	ret

00000a3a <TwoWire::available()>:
_ZN7TwoWire9availableEv():
/home/huser/.arduino15/packages/MiniCore/hardware/avr/3.0.2/libraries/Wire/src/Wire.cpp:675

// must be called in:
// slave rx event callback
// or after requestFrom(address, numBytes)
int TwoWire::available(void)
{
     a3a:	fc 01       	movw	r30, r24
/home/huser/.arduino15/packages/MiniCore/hardware/avr/3.0.2/libraries/Wire/src/Wire.cpp:676
  return rxBufferLength - rxBufferIndex;
     a3c:	81 89       	ldd	r24, Z+17	; 0x11
     a3e:	90 89       	ldd	r25, Z+16	; 0x10
/home/huser/.arduino15/packages/MiniCore/hardware/avr/3.0.2/libraries/Wire/src/Wire.cpp:677
}
     a40:	89 1b       	sub	r24, r25
     a42:	99 0b       	sbc	r25, r25
     a44:	08 95       	ret

00000a46 <TwoWire::write(unsigned char const*, unsigned int)>:
_ZN7TwoWire5writeEPKhj():
/home/huser/.arduino15/packages/MiniCore/hardware/avr/3.0.2/libraries/Wire/src/Wire.cpp:657

// must be called in:
// slave tx event callback
// or after beginTransmission(address)
size_t TwoWire::write(const uint8_t *data, size_t quantity)
{
     a46:	cf 92       	push	r12
     a48:	df 92       	push	r13
     a4a:	ef 92       	push	r14
     a4c:	ff 92       	push	r15
     a4e:	0f 93       	push	r16
     a50:	1f 93       	push	r17
     a52:	cf 93       	push	r28
     a54:	df 93       	push	r29
     a56:	8c 01       	movw	r16, r24
     a58:	cb 01       	movw	r24, r22
     a5a:	7a 01       	movw	r14, r20
/home/huser/.arduino15/packages/MiniCore/hardware/avr/3.0.2/libraries/Wire/src/Wire.cpp:658
  if(transmitting){
     a5c:	d8 01       	movw	r26, r16
     a5e:	57 96       	adiw	r26, 0x17	; 23
     a60:	2c 91       	ld	r18, X
     a62:	57 97       	sbiw	r26, 0x17	; 23
     a64:	22 23       	and	r18, r18
     a66:	89 f0       	breq	.+34     	; 0xa8a <TwoWire::write(unsigned char const*, unsigned int)+0x44>
     a68:	eb 01       	movw	r28, r22
     a6a:	6b 01       	movw	r12, r22
     a6c:	c4 0e       	add	r12, r20
     a6e:	d5 1e       	adc	r13, r21
/home/huser/.arduino15/packages/MiniCore/hardware/avr/3.0.2/libraries/Wire/src/Wire.cpp:660
  // in master transmitter mode
    for(size_t i = 0; i < quantity; ++i){
     a70:	cc 15       	cp	r28, r12
     a72:	dd 05       	cpc	r29, r13
     a74:	79 f0       	breq	.+30     	; 0xa94 <TwoWire::write(unsigned char const*, unsigned int)+0x4e>
/home/huser/.arduino15/packages/MiniCore/hardware/avr/3.0.2/libraries/Wire/src/Wire.cpp:661
      write(data[i]);
     a76:	69 91       	ld	r22, Y+
     a78:	d8 01       	movw	r26, r16
     a7a:	ed 91       	ld	r30, X+
     a7c:	fc 91       	ld	r31, X
     a7e:	01 90       	ld	r0, Z+
     a80:	f0 81       	ld	r31, Z
     a82:	e0 2d       	mov	r30, r0
     a84:	c8 01       	movw	r24, r16
     a86:	09 95       	icall
     a88:	f3 cf       	rjmp	.-26     	; 0xa70 <TwoWire::write(unsigned char const*, unsigned int)+0x2a>
/home/huser/.arduino15/packages/MiniCore/hardware/avr/3.0.2/libraries/Wire/src/Wire.cpp:666
    }
  }else{
  // in slave send mode
    // reply to master
    tw_transmit(data, quantity);
     a8a:	98 96       	adiw	r26, 0x28	; 40
     a8c:	ed 91       	ld	r30, X+
     a8e:	fc 91       	ld	r31, X
     a90:	64 2f       	mov	r22, r20
     a92:	09 95       	icall
/home/huser/.arduino15/packages/MiniCore/hardware/avr/3.0.2/libraries/Wire/src/Wire.cpp:669
  }
  return quantity;
}
     a94:	c7 01       	movw	r24, r14
     a96:	df 91       	pop	r29
     a98:	cf 91       	pop	r28
     a9a:	1f 91       	pop	r17
     a9c:	0f 91       	pop	r16
     a9e:	ff 90       	pop	r15
     aa0:	ef 90       	pop	r14
     aa2:	df 90       	pop	r13
     aa4:	cf 90       	pop	r12
     aa6:	08 95       	ret

00000aa8 <TwoWire::write(unsigned char)>:
_ZN7TwoWire5writeEh():
/home/huser/.arduino15/packages/MiniCore/hardware/avr/3.0.2/libraries/Wire/src/Wire.cpp:632

// must be called in:
// slave tx event callback
// or after beginTransmission(address)
size_t TwoWire::write(uint8_t data)
{
     aa8:	cf 93       	push	r28
     aaa:	df 93       	push	r29
     aac:	1f 92       	push	r1
     aae:	cd b7       	in	r28, 0x3d	; 61
     ab0:	de b7       	in	r29, 0x3e	; 62
     ab2:	fc 01       	movw	r30, r24
     ab4:	69 83       	std	Y+1, r22	; 0x01
/home/huser/.arduino15/packages/MiniCore/hardware/avr/3.0.2/libraries/Wire/src/Wire.cpp:633
  if(transmitting){
     ab6:	87 89       	ldd	r24, Z+23	; 0x17
     ab8:	88 23       	and	r24, r24
     aba:	f9 f0       	breq	.+62     	; 0xafa <TwoWire::write(unsigned char)+0x52>
/home/huser/.arduino15/packages/MiniCore/hardware/avr/3.0.2/libraries/Wire/src/Wire.cpp:636
  // in master transmitter mode
    // don't bother if buffer is full
    if(txBufferLength >= bufferLength){
     abc:	26 89       	ldd	r18, Z+22	; 0x16
     abe:	84 85       	ldd	r24, Z+12	; 0x0c
     ac0:	95 85       	ldd	r25, Z+13	; 0x0d
     ac2:	28 17       	cp	r18, r24
     ac4:	19 06       	cpc	r1, r25
     ac6:	54 f0       	brlt	.+20     	; 0xadc <TwoWire::write(unsigned char)+0x34>
_ZN5Print13setWriteErrorEi():
/home/huser/.arduino15/packages/MiniCore/hardware/avr/3.0.2/cores/MCUdude_corefiles/Print.h:44
  private:
    int write_error;
    size_t printNumber(unsigned long, uint8_t);
    size_t printFloat(double, uint8_t);
  protected:
    void setWriteError(int err = 1) { write_error = err; }
     ac8:	81 e0       	ldi	r24, 0x01	; 1
     aca:	90 e0       	ldi	r25, 0x00	; 0
     acc:	93 83       	std	Z+3, r25	; 0x03
     ace:	82 83       	std	Z+2, r24	; 0x02
_ZN7TwoWire5writeEh():
/home/huser/.arduino15/packages/MiniCore/hardware/avr/3.0.2/libraries/Wire/src/Wire.cpp:638
      setWriteError();
      return 0;
     ad0:	90 e0       	ldi	r25, 0x00	; 0
     ad2:	80 e0       	ldi	r24, 0x00	; 0
/home/huser/.arduino15/packages/MiniCore/hardware/avr/3.0.2/libraries/Wire/src/Wire.cpp:651
  // in slave send mode
    // reply to master
    tw_transmit(&data, 1);
  }
  return 1;
}
     ad4:	0f 90       	pop	r0
     ad6:	df 91       	pop	r29
     ad8:	cf 91       	pop	r28
     ada:	08 95       	ret
/home/huser/.arduino15/packages/MiniCore/hardware/avr/3.0.2/libraries/Wire/src/Wire.cpp:641
    if(txBufferLength >= bufferLength){
      setWriteError();
      return 0;
    }
    // put byte in tx buffer
    txBuffer[txBufferIndex] = data;
     adc:	89 81       	ldd	r24, Y+1	; 0x01
     ade:	a5 89       	ldd	r26, Z+21	; 0x15
     ae0:	23 89       	ldd	r18, Z+19	; 0x13
     ae2:	34 89       	ldd	r19, Z+20	; 0x14
     ae4:	a2 0f       	add	r26, r18
     ae6:	b3 2f       	mov	r27, r19
     ae8:	b1 1d       	adc	r27, r1
     aea:	8c 93       	st	X, r24
/home/huser/.arduino15/packages/MiniCore/hardware/avr/3.0.2/libraries/Wire/src/Wire.cpp:642
    ++txBufferIndex;
     aec:	85 89       	ldd	r24, Z+21	; 0x15
     aee:	8f 5f       	subi	r24, 0xFF	; 255
     af0:	85 8b       	std	Z+21, r24	; 0x15
/home/huser/.arduino15/packages/MiniCore/hardware/avr/3.0.2/libraries/Wire/src/Wire.cpp:644
    // update amount in buffer
    txBufferLength = txBufferIndex;
     af2:	86 8b       	std	Z+22, r24	; 0x16
/home/huser/.arduino15/packages/MiniCore/hardware/avr/3.0.2/libraries/Wire/src/Wire.cpp:650
  }else{
  // in slave send mode
    // reply to master
    tw_transmit(&data, 1);
  }
  return 1;
     af4:	81 e0       	ldi	r24, 0x01	; 1
     af6:	90 e0       	ldi	r25, 0x00	; 0
     af8:	ed cf       	rjmp	.-38     	; 0xad4 <TwoWire::write(unsigned char)+0x2c>
/home/huser/.arduino15/packages/MiniCore/hardware/avr/3.0.2/libraries/Wire/src/Wire.cpp:648
    // update amount in buffer
    txBufferLength = txBufferIndex;
  }else{
  // in slave send mode
    // reply to master
    tw_transmit(&data, 1);
     afa:	00 a4       	ldd	r0, Z+40	; 0x28
     afc:	f1 a5       	ldd	r31, Z+41	; 0x29
     afe:	e0 2d       	mov	r30, r0
     b00:	61 e0       	ldi	r22, 0x01	; 1
     b02:	ce 01       	movw	r24, r28
     b04:	01 96       	adiw	r24, 0x01	; 1
     b06:	09 95       	icall
     b08:	f5 cf       	rjmp	.-22     	; 0xaf4 <TwoWire::write(unsigned char)+0x4c>

00000b0a <Print::availableForWrite()>:
_ZN5Print17availableForWriteEv():
/home/huser/.arduino15/packages/MiniCore/hardware/avr/3.0.2/cores/MCUdude_corefiles/Print.h:63
      return write((const uint8_t *)buffer, size);
    }

    // default to zero, meaning "a single write may block"
    // should be overriden by subclasses with buffering
    virtual int availableForWrite() { return 0; }
     b0a:	90 e0       	ldi	r25, 0x00	; 0
     b0c:	80 e0       	ldi	r24, 0x00	; 0
     b0e:	08 95       	ret

00000b10 <Adafruit_SPIDevice::endTransactionWithDeassertingCS()>:
_ZN18Adafruit_SPIDevice31endTransactionWithDeassertingCSEv():
/home/huser/Arduino/libraries/Adafruit_BusIO/Adafruit_SPIDevice.cpp:307
/*!
 *    @brief  Assert/Deassert the CS pin if it is defined
 *    @param  value The state the CS is set to
 */
void Adafruit_SPIDevice::setChipSelect(int value) {
  if (_cs != -1) {
     b10:	fc 01       	movw	r30, r24
     b12:	83 85       	ldd	r24, Z+11	; 0x0b
     b14:	8f 3f       	cpi	r24, 0xFF	; 255
     b16:	19 f0       	breq	.+6      	; 0xb1e <Adafruit_SPIDevice::endTransactionWithDeassertingCS()+0xe>
/home/huser/Arduino/libraries/Adafruit_BusIO/Adafruit_SPIDevice.cpp:308
    digitalWrite(_cs, value);
     b18:	61 e0       	ldi	r22, 0x01	; 1
     b1a:	0c 94 84 01 	jmp	0x308	; 0x308 <digitalWrite>
/home/huser/Arduino/libraries/Adafruit_BusIO/Adafruit_SPIDevice.cpp:330
 *            with deasserting the CS pin
 */
void Adafruit_SPIDevice::endTransactionWithDeassertingCS() {
  setChipSelect(HIGH);
  endTransaction();
}
     b1e:	08 95       	ret

00000b20 <Adafruit_SPIDevice::beginTransactionWithAssertingCS()>:
_ZN18Adafruit_SPIDevice31beginTransactionWithAssertingCSEv():
/home/huser/Arduino/libraries/Adafruit_BusIO/Adafruit_SPIDevice.cpp:318
 *    @brief  Write a buffer or two to the SPI device, with transaction
 * management.
 *    @brief  Manually begin a transaction (calls beginTransaction if hardware
 *            SPI) with asserting the CS pin
 */
void Adafruit_SPIDevice::beginTransactionWithAssertingCS() {
     b20:	fc 01       	movw	r30, r24
beginTransaction():
/home/huser/Arduino/libraries/Adafruit_BusIO/Adafruit_SPIDevice.cpp:284
/*!
 *    @brief  Manually begin a transaction (calls beginTransaction if hardware
 * SPI)
 */
void Adafruit_SPIDevice::beginTransaction(void) {
  if (_spi) {
     b22:	80 81       	ld	r24, Z
     b24:	91 81       	ldd	r25, Z+1	; 0x01
     b26:	89 2b       	or	r24, r25
     b28:	39 f0       	breq	.+14     	; 0xb38 <Adafruit_SPIDevice::beginTransactionWithAssertingCS()+0x18>
/home/huser/Arduino/libraries/Adafruit_BusIO/Adafruit_SPIDevice.cpp:286
#ifdef BUSIO_HAS_HW_SPI
    _spi->beginTransaction(*_spiSetting);
     b2a:	a2 81       	ldd	r26, Z+2	; 0x02
     b2c:	b3 81       	ldd	r27, Z+3	; 0x03
     b2e:	9c 91       	ld	r25, X
     b30:	11 96       	adiw	r26, 0x01	; 1
     b32:	8c 91       	ld	r24, X
/home/huser/.arduino15/packages/MiniCore/hardware/avr/3.0.2/libraries/SPI/src/SPI.h:206
      digitalWrite(SPI_TRANSACTION_MISMATCH_LED, HIGH);
    }
    inTransactionFlag = 1;
    #endif

    SPCR = settings.spcr;
     b34:	9c bd       	out	0x2c, r25	; 44
/home/huser/.arduino15/packages/MiniCore/hardware/avr/3.0.2/libraries/SPI/src/SPI.h:207
    SPSR = settings.spsr;
     b36:	8d bd       	out	0x2d, r24	; 45
setChipSelect():
/home/huser/Arduino/libraries/Adafruit_BusIO/Adafruit_SPIDevice.cpp:307
/*!
 *    @brief  Assert/Deassert the CS pin if it is defined
 *    @param  value The state the CS is set to
 */
void Adafruit_SPIDevice::setChipSelect(int value) {
  if (_cs != -1) {
     b38:	83 85       	ldd	r24, Z+11	; 0x0b
     b3a:	8f 3f       	cpi	r24, 0xFF	; 255
     b3c:	19 f0       	breq	.+6      	; 0xb44 <Adafruit_SPIDevice::beginTransactionWithAssertingCS()+0x24>
/home/huser/Arduino/libraries/Adafruit_BusIO/Adafruit_SPIDevice.cpp:308
    digitalWrite(_cs, value);
     b3e:	60 e0       	ldi	r22, 0x00	; 0
     b40:	0c 94 84 01 	jmp	0x308	; 0x308 <digitalWrite>
_ZN18Adafruit_SPIDevice31beginTransactionWithAssertingCSEv():
/home/huser/Arduino/libraries/Adafruit_BusIO/Adafruit_SPIDevice.cpp:321
 *            SPI) with asserting the CS pin
 */
void Adafruit_SPIDevice::beginTransactionWithAssertingCS() {
  beginTransaction();
  setChipSelect(LOW);
}
     b44:	08 95       	ret

00000b46 <Adafruit_SPIDevice::transfer(unsigned char)>:
_ZN18Adafruit_SPIDevice8transferEh():
/home/huser/Arduino/libraries/Adafruit_BusIO/Adafruit_SPIDevice.cpp:273
 *    @brief  Transfer (send/receive) one byte over hard/soft SPI, without
 * transaction management
 *    @param  send The byte to send
 *    @return The byte received while transmitting
 */
uint8_t Adafruit_SPIDevice::transfer(uint8_t send) {
     b46:	af 92       	push	r10
     b48:	bf 92       	push	r11
     b4a:	cf 92       	push	r12
     b4c:	df 92       	push	r13
     b4e:	ef 92       	push	r14
     b50:	ff 92       	push	r15
     b52:	0f 93       	push	r16
     b54:	1f 93       	push	r17
     b56:	cf 93       	push	r28
     b58:	df 93       	push	r29
     b5a:	ec 01       	movw	r28, r24
transfer():
/home/huser/Arduino/libraries/Adafruit_BusIO/Adafruit_SPIDevice.cpp:135
 */
void Adafruit_SPIDevice::transfer(uint8_t *buffer, size_t len) {
  //
  // HARDWARE SPI
  //
  if (_spi) {
     b5c:	88 81       	ld	r24, Y
     b5e:	99 81       	ldd	r25, Y+1	; 0x01
     b60:	89 2b       	or	r24, r25
     b62:	89 f0       	breq	.+34     	; 0xb86 <Adafruit_SPIDevice::transfer(unsigned char)+0x40>
/home/huser/.arduino15/packages/MiniCore/hardware/avr/3.0.2/libraries/SPI/src/SPI.h:250
    return out.val;
  }
  inline static void transfer(void *buf, size_t count) {
    if (count == 0) return;
    uint8_t *p = (uint8_t *)buf;
    SPDR = *p;
     b64:	6e bd       	out	0x2e, r22	; 46
/home/huser/.arduino15/packages/MiniCore/hardware/avr/3.0.2/libraries/SPI/src/SPI.h:258
      while (!(SPSR & _BV(SPIF))) ;
      uint8_t in = SPDR;
      SPDR = out;
      *p++ = in;
    }
    while (!(SPSR & _BV(SPIF))) ;
     b66:	0d b4       	in	r0, 0x2d	; 45
     b68:	07 fe       	sbrs	r0, 7
     b6a:	fd cf       	rjmp	.-6      	; 0xb66 <Adafruit_SPIDevice::transfer(unsigned char)+0x20>
/home/huser/.arduino15/packages/MiniCore/hardware/avr/3.0.2/libraries/SPI/src/SPI.h:259
    *p = SPDR;
     b6c:	be b4       	in	r11, 0x2e	; 46
_ZN18Adafruit_SPIDevice8transferEh():
/home/huser/Arduino/libraries/Adafruit_BusIO/Adafruit_SPIDevice.cpp:277
 */
uint8_t Adafruit_SPIDevice::transfer(uint8_t send) {
  uint8_t data = send;
  transfer(&data, 1);
  return data;
}
     b6e:	8b 2d       	mov	r24, r11
     b70:	df 91       	pop	r29
     b72:	cf 91       	pop	r28
     b74:	1f 91       	pop	r17
     b76:	0f 91       	pop	r16
     b78:	ff 90       	pop	r15
     b7a:	ef 90       	pop	r14
     b7c:	df 90       	pop	r13
     b7e:	cf 90       	pop	r12
     b80:	bf 90       	pop	r11
     b82:	af 90       	pop	r10
     b84:	08 95       	ret
transfer():
/home/huser/Arduino/libraries/Adafruit_BusIO/Adafruit_SPIDevice.cpp:154

  //
  // SOFTWARE SPI
  //
  uint8_t startbit;
  if (_dataOrder == SPI_BITORDER_LSBFIRST) {
     b86:	88 85       	ldd	r24, Y+8	; 0x08
     b88:	99 85       	ldd	r25, Y+9	; 0x09
_ZN18Adafruit_SPIDevice8transferEh():
/home/huser/Arduino/libraries/Adafruit_BusIO/Adafruit_SPIDevice.cpp:155
    startbit = 0x1;
     b8a:	11 e0       	ldi	r17, 0x01	; 1
transfer():
/home/huser/Arduino/libraries/Adafruit_BusIO/Adafruit_SPIDevice.cpp:154

  //
  // SOFTWARE SPI
  //
  uint8_t startbit;
  if (_dataOrder == SPI_BITORDER_LSBFIRST) {
     b8c:	89 2b       	or	r24, r25
     b8e:	09 f0       	breq	.+2      	; 0xb92 <Adafruit_SPIDevice::transfer(unsigned char)+0x4c>
_ZN18Adafruit_SPIDevice8transferEh():
/home/huser/Arduino/libraries/Adafruit_BusIO/Adafruit_SPIDevice.cpp:157
    startbit = 0x1;
  } else {
    startbit = 0x80;
     b90:	10 e8       	ldi	r17, 0x80	; 128
transfer():
/home/huser/Arduino/libraries/Adafruit_BusIO/Adafruit_SPIDevice.cpp:160
  }

  bool towrite, lastmosi = !(buffer[0] & startbit);
     b92:	aa 24       	eor	r10, r10
     b94:	a3 94       	inc	r10
     b96:	86 2f       	mov	r24, r22
     b98:	81 23       	and	r24, r17
     b9a:	09 f0       	breq	.+2      	; 0xb9e <Adafruit_SPIDevice::transfer(unsigned char)+0x58>
     b9c:	a1 2c       	mov	r10, r1
     b9e:	06 2f       	mov	r16, r22
/home/huser/Arduino/libraries/Adafruit_BusIO/Adafruit_SPIDevice.cpp:161
  uint8_t bitdelay_us = (1000000 / _freq) / 2;
     ba0:	2c 81       	ldd	r18, Y+4	; 0x04
     ba2:	3d 81       	ldd	r19, Y+5	; 0x05
     ba4:	4e 81       	ldd	r20, Y+6	; 0x06
     ba6:	5f 81       	ldd	r21, Y+7	; 0x07
     ba8:	60 e2       	ldi	r22, 0x20	; 32
     baa:	71 ea       	ldi	r23, 0xA1	; 161
     bac:	87 e0       	ldi	r24, 0x07	; 7
     bae:	90 e0       	ldi	r25, 0x00	; 0
     bb0:	0e 94 f9 21 	call	0x43f2	; 0x43f2 <__udivmodsi4>
     bb4:	f2 2e       	mov	r15, r18
_ZN18Adafruit_SPIDevice8transferEh():
/home/huser/Arduino/libraries/Adafruit_BusIO/Adafruit_SPIDevice.cpp:274
 * transaction management
 *    @param  send The byte to send
 *    @return The byte received while transmitting
 */
uint8_t Adafruit_SPIDevice::transfer(uint8_t send) {
  uint8_t data = send;
     bb6:	b0 2e       	mov	r11, r16
/home/huser/Arduino/libraries/Adafruit_BusIO/Adafruit_SPIDevice.cpp:164

  bool towrite, lastmosi = !(buffer[0] & startbit);
  uint8_t bitdelay_us = (1000000 / _freq) / 2;

  for (size_t i = 0; i < len; i++) {
    uint8_t reply = 0;
     bb8:	e1 2c       	mov	r14, r1
transfer():
/home/huser/Arduino/libraries/Adafruit_BusIO/Adafruit_SPIDevice.cpp:178
    // Serial.print(send, HEX);
    for (uint8_t b = startbit; b != 0;
         b = (_dataOrder == SPI_BITORDER_LSBFIRST) ? b << 1 : b >> 1) {

      if (bitdelay_us) {
        delayMicroseconds(bitdelay_us);
     bba:	c2 2e       	mov	r12, r18
     bbc:	d1 2c       	mov	r13, r1
/home/huser/Arduino/libraries/Adafruit_BusIO/Adafruit_SPIDevice.cpp:177

    // Serial.print(send, HEX);
    for (uint8_t b = startbit; b != 0;
         b = (_dataOrder == SPI_BITORDER_LSBFIRST) ? b << 1 : b >> 1) {

      if (bitdelay_us) {
     bbe:	ff 20       	and	r15, r15
     bc0:	19 f0       	breq	.+6      	; 0xbc8 <Adafruit_SPIDevice::transfer(unsigned char)+0x82>
/home/huser/Arduino/libraries/Adafruit_BusIO/Adafruit_SPIDevice.cpp:178
        delayMicroseconds(bitdelay_us);
     bc2:	c6 01       	movw	r24, r12
     bc4:	0e 94 4b 02 	call	0x496	; 0x496 <delayMicroseconds>
/home/huser/Arduino/libraries/Adafruit_BusIO/Adafruit_SPIDevice.cpp:181
      }

      if (_dataMode == SPI_MODE0 || _dataMode == SPI_MODE2) {
     bc8:	8a 85       	ldd	r24, Y+10	; 0x0a
     bca:	87 7f       	andi	r24, 0xF7	; 247
     bcc:	09 f0       	breq	.+2      	; 0xbd0 <Adafruit_SPIDevice::transfer(unsigned char)+0x8a>
     bce:	42 c0       	rjmp	.+132    	; 0xc54 <Adafruit_SPIDevice::transfer(unsigned char)+0x10e>
/home/huser/Arduino/libraries/Adafruit_BusIO/Adafruit_SPIDevice.cpp:183
        towrite = send & b;
        if ((_mosi != -1) && (lastmosi != towrite)) {
     bd0:	8d 85       	ldd	r24, Y+13	; 0x0d
     bd2:	8f 3f       	cpi	r24, 0xFF	; 255
     bd4:	89 f0       	breq	.+34     	; 0xbf8 <Adafruit_SPIDevice::transfer(unsigned char)+0xb2>
/home/huser/Arduino/libraries/Adafruit_BusIO/Adafruit_SPIDevice.cpp:182
      if (bitdelay_us) {
        delayMicroseconds(bitdelay_us);
      }

      if (_dataMode == SPI_MODE0 || _dataMode == SPI_MODE2) {
        towrite = send & b;
     bd6:	90 2f       	mov	r25, r16
     bd8:	91 23       	and	r25, r17
     bda:	81 e0       	ldi	r24, 0x01	; 1
     bdc:	09 f4       	brne	.+2      	; 0xbe0 <Adafruit_SPIDevice::transfer(unsigned char)+0x9a>
     bde:	80 e0       	ldi	r24, 0x00	; 0
/home/huser/Arduino/libraries/Adafruit_BusIO/Adafruit_SPIDevice.cpp:183
        if ((_mosi != -1) && (lastmosi != towrite)) {
     be0:	8a 15       	cp	r24, r10
     be2:	51 f0       	breq	.+20     	; 0xbf8 <Adafruit_SPIDevice::transfer(unsigned char)+0xb2>
     be4:	ef 85       	ldd	r30, Y+15	; 0x0f
     be6:	f8 89       	ldd	r31, Y+16	; 0x10
     be8:	8f 89       	ldd	r24, Y+23	; 0x17
/home/huser/Arduino/libraries/Adafruit_BusIO/Adafruit_SPIDevice.cpp:185
#ifdef BUSIO_USE_FAST_PINIO
          if (towrite)
     bea:	99 23       	and	r25, r25
     bec:	69 f1       	breq	.+90     	; 0xc48 <Adafruit_SPIDevice::transfer(unsigned char)+0x102>
/home/huser/Arduino/libraries/Adafruit_BusIO/Adafruit_SPIDevice.cpp:186
            *mosiPort = *mosiPort | mosiPinMask;
     bee:	90 81       	ld	r25, Z
     bf0:	89 2b       	or	r24, r25
     bf2:	80 83       	st	Z, r24
     bf4:	aa 24       	eor	r10, r10
     bf6:	a3 94       	inc	r10
/home/huser/Arduino/libraries/Adafruit_BusIO/Adafruit_SPIDevice.cpp:196
#endif
          lastmosi = towrite;
        }

#ifdef BUSIO_USE_FAST_PINIO
        *clkPort = *clkPort | clkPinMask; // Clock high
     bf8:	e9 89       	ldd	r30, Y+17	; 0x11
     bfa:	fa 89       	ldd	r31, Y+18	; 0x12
     bfc:	80 81       	ld	r24, Z
     bfe:	99 8d       	ldd	r25, Y+25	; 0x19
     c00:	89 2b       	or	r24, r25
     c02:	80 83       	st	Z, r24
/home/huser/Arduino/libraries/Adafruit_BusIO/Adafruit_SPIDevice.cpp:201
#else
        digitalWrite(_sck, HIGH);
#endif

        if (bitdelay_us) {
     c04:	ff 20       	and	r15, r15
     c06:	19 f0       	breq	.+6      	; 0xc0e <Adafruit_SPIDevice::transfer(unsigned char)+0xc8>
/home/huser/Arduino/libraries/Adafruit_BusIO/Adafruit_SPIDevice.cpp:202
          delayMicroseconds(bitdelay_us);
     c08:	c6 01       	movw	r24, r12
     c0a:	0e 94 4b 02 	call	0x496	; 0x496 <delayMicroseconds>
/home/huser/Arduino/libraries/Adafruit_BusIO/Adafruit_SPIDevice.cpp:205
        }

        if (_miso != -1) {
     c0e:	8e 85       	ldd	r24, Y+14	; 0x0e
     c10:	8f 3f       	cpi	r24, 0xFF	; 255
     c12:	39 f0       	breq	.+14     	; 0xc22 <Adafruit_SPIDevice::transfer(unsigned char)+0xdc>
/home/huser/Arduino/libraries/Adafruit_BusIO/Adafruit_SPIDevice.cpp:207
#ifdef BUSIO_USE_FAST_PINIO
          if (*misoPort & misoPinMask) {
     c14:	eb 89       	ldd	r30, Y+19	; 0x13
     c16:	fc 89       	ldd	r31, Y+20	; 0x14
     c18:	80 81       	ld	r24, Z
     c1a:	98 8d       	ldd	r25, Y+24	; 0x18
     c1c:	89 23       	and	r24, r25
     c1e:	09 f0       	breq	.+2      	; 0xc22 <Adafruit_SPIDevice::transfer(unsigned char)+0xdc>
/home/huser/Arduino/libraries/Adafruit_BusIO/Adafruit_SPIDevice.cpp:211
#else
          if (digitalRead(_miso)) {
#endif
            reply |= b;
     c20:	e1 2a       	or	r14, r17
/home/huser/Arduino/libraries/Adafruit_BusIO/Adafruit_SPIDevice.cpp:216
          }
        }

#ifdef BUSIO_USE_FAST_PINIO
        *clkPort = *clkPort & ~clkPinMask; // Clock low
     c22:	e9 89       	ldd	r30, Y+17	; 0x11
     c24:	fa 89       	ldd	r31, Y+18	; 0x12
     c26:	90 81       	ld	r25, Z
     c28:	89 8d       	ldd	r24, Y+25	; 0x19
     c2a:	80 95       	com	r24
     c2c:	89 23       	and	r24, r25
     c2e:	80 83       	st	Z, r24
/home/huser/Arduino/libraries/Adafruit_BusIO/Adafruit_SPIDevice.cpp:259
#endif
            reply |= b;
          }
        }
      }
      if (_miso != -1) {
     c30:	8e 85       	ldd	r24, Y+14	; 0x0e
     c32:	8f 3f       	cpi	r24, 0xFF	; 255
     c34:	09 f0       	breq	.+2      	; 0xc38 <Adafruit_SPIDevice::transfer(unsigned char)+0xf2>
/home/huser/Arduino/libraries/Adafruit_BusIO/Adafruit_SPIDevice.cpp:260
        buffer[i] = reply;
     c36:	be 2c       	mov	r11, r14
/home/huser/Arduino/libraries/Adafruit_BusIO/Adafruit_SPIDevice.cpp:174
    Serial.print(send, HEX);
    Serial.print(" -> 0x");
    */

    // Serial.print(send, HEX);
    for (uint8_t b = startbit; b != 0;
     c38:	88 85       	ldd	r24, Y+8	; 0x08
     c3a:	99 85       	ldd	r25, Y+9	; 0x09
     c3c:	89 2b       	or	r24, r25
     c3e:	b9 f5       	brne	.+110    	; 0xcae <Adafruit_SPIDevice::transfer(unsigned char)+0x168>
     c40:	11 0f       	add	r17, r17
     c42:	11 11       	cpse	r17, r1
     c44:	bc cf       	rjmp	.-136    	; 0xbbe <Adafruit_SPIDevice::transfer(unsigned char)+0x78>
     c46:	93 cf       	rjmp	.-218    	; 0xb6e <Adafruit_SPIDevice::transfer(unsigned char)+0x28>
/home/huser/Arduino/libraries/Adafruit_BusIO/Adafruit_SPIDevice.cpp:188
        if ((_mosi != -1) && (lastmosi != towrite)) {
#ifdef BUSIO_USE_FAST_PINIO
          if (towrite)
            *mosiPort = *mosiPort | mosiPinMask;
          else
            *mosiPort = *mosiPort & ~mosiPinMask;
     c48:	90 81       	ld	r25, Z
     c4a:	80 95       	com	r24
     c4c:	89 23       	and	r24, r25
     c4e:	80 83       	st	Z, r24
     c50:	a1 2c       	mov	r10, r1
     c52:	d2 cf       	rjmp	.-92     	; 0xbf8 <Adafruit_SPIDevice::transfer(unsigned char)+0xb2>
/home/huser/Arduino/libraries/Adafruit_BusIO/Adafruit_SPIDevice.cpp:223
        digitalWrite(_sck, LOW);
#endif
      } else { // if (_dataMode == SPI_MODE1 || _dataMode == SPI_MODE3)

#ifdef BUSIO_USE_FAST_PINIO
        *clkPort = *clkPort | clkPinMask; // Clock high
     c54:	e9 89       	ldd	r30, Y+17	; 0x11
     c56:	fa 89       	ldd	r31, Y+18	; 0x12
     c58:	80 81       	ld	r24, Z
     c5a:	99 8d       	ldd	r25, Y+25	; 0x19
     c5c:	89 2b       	or	r24, r25
     c5e:	80 83       	st	Z, r24
/home/huser/Arduino/libraries/Adafruit_BusIO/Adafruit_SPIDevice.cpp:228
#else
        digitalWrite(_sck, HIGH);
#endif

        if (bitdelay_us) {
     c60:	ff 20       	and	r15, r15
     c62:	19 f0       	breq	.+6      	; 0xc6a <Adafruit_SPIDevice::transfer(unsigned char)+0x124>
/home/huser/Arduino/libraries/Adafruit_BusIO/Adafruit_SPIDevice.cpp:229
          delayMicroseconds(bitdelay_us);
     c64:	c6 01       	movw	r24, r12
     c66:	0e 94 4b 02 	call	0x496	; 0x496 <delayMicroseconds>
/home/huser/Arduino/libraries/Adafruit_BusIO/Adafruit_SPIDevice.cpp:232
        }

        if (_mosi != -1) {
     c6a:	8d 85       	ldd	r24, Y+13	; 0x0d
     c6c:	8f 3f       	cpi	r24, 0xFF	; 255
     c6e:	49 f0       	breq	.+18     	; 0xc82 <Adafruit_SPIDevice::transfer(unsigned char)+0x13c>
     c70:	ef 85       	ldd	r30, Y+15	; 0x0f
     c72:	f8 89       	ldd	r31, Y+16	; 0x10
     c74:	8f 89       	ldd	r24, Y+23	; 0x17
/home/huser/Arduino/libraries/Adafruit_BusIO/Adafruit_SPIDevice.cpp:234
#ifdef BUSIO_USE_FAST_PINIO
          if (send & b)
     c76:	90 2f       	mov	r25, r16
     c78:	91 23       	and	r25, r17
     c7a:	a9 f0       	breq	.+42     	; 0xca6 <Adafruit_SPIDevice::transfer(unsigned char)+0x160>
/home/huser/Arduino/libraries/Adafruit_BusIO/Adafruit_SPIDevice.cpp:235
            *mosiPort = *mosiPort | mosiPinMask;
     c7c:	90 81       	ld	r25, Z
     c7e:	89 2b       	or	r24, r25
/home/huser/Arduino/libraries/Adafruit_BusIO/Adafruit_SPIDevice.cpp:237
          else
            *mosiPort = *mosiPort & ~mosiPinMask;
     c80:	80 83       	st	Z, r24
/home/huser/Arduino/libraries/Adafruit_BusIO/Adafruit_SPIDevice.cpp:244
          digitalWrite(_mosi, send & b);
#endif
        }

#ifdef BUSIO_USE_FAST_PINIO
        *clkPort = *clkPort & ~clkPinMask; // Clock low
     c82:	e9 89       	ldd	r30, Y+17	; 0x11
     c84:	fa 89       	ldd	r31, Y+18	; 0x12
     c86:	90 81       	ld	r25, Z
     c88:	89 8d       	ldd	r24, Y+25	; 0x19
     c8a:	80 95       	com	r24
     c8c:	89 23       	and	r24, r25
     c8e:	80 83       	st	Z, r24
/home/huser/Arduino/libraries/Adafruit_BusIO/Adafruit_SPIDevice.cpp:249
#else
        digitalWrite(_sck, LOW);
#endif

        if (_miso != -1) {
     c90:	8e 85       	ldd	r24, Y+14	; 0x0e
     c92:	8f 3f       	cpi	r24, 0xFF	; 255
     c94:	69 f2       	breq	.-102    	; 0xc30 <Adafruit_SPIDevice::transfer(unsigned char)+0xea>
/home/huser/Arduino/libraries/Adafruit_BusIO/Adafruit_SPIDevice.cpp:251
#ifdef BUSIO_USE_FAST_PINIO
          if (*misoPort & misoPinMask) {
     c96:	eb 89       	ldd	r30, Y+19	; 0x13
     c98:	fc 89       	ldd	r31, Y+20	; 0x14
     c9a:	80 81       	ld	r24, Z
     c9c:	98 8d       	ldd	r25, Y+24	; 0x18
     c9e:	89 23       	and	r24, r25
     ca0:	39 f2       	breq	.-114    	; 0xc30 <Adafruit_SPIDevice::transfer(unsigned char)+0xea>
/home/huser/Arduino/libraries/Adafruit_BusIO/Adafruit_SPIDevice.cpp:255
#else
          if (digitalRead(_miso)) {
#endif
            reply |= b;
     ca2:	e1 2a       	or	r14, r17
     ca4:	c5 cf       	rjmp	.-118    	; 0xc30 <Adafruit_SPIDevice::transfer(unsigned char)+0xea>
/home/huser/Arduino/libraries/Adafruit_BusIO/Adafruit_SPIDevice.cpp:237
        if (_mosi != -1) {
#ifdef BUSIO_USE_FAST_PINIO
          if (send & b)
            *mosiPort = *mosiPort | mosiPinMask;
          else
            *mosiPort = *mosiPort & ~mosiPinMask;
     ca6:	90 81       	ld	r25, Z
     ca8:	80 95       	com	r24
     caa:	89 23       	and	r24, r25
     cac:	e9 cf       	rjmp	.-46     	; 0xc80 <Adafruit_SPIDevice::transfer(unsigned char)+0x13a>
/home/huser/Arduino/libraries/Adafruit_BusIO/Adafruit_SPIDevice.cpp:174
    Serial.print(send, HEX);
    Serial.print(" -> 0x");
    */

    // Serial.print(send, HEX);
    for (uint8_t b = startbit; b != 0;
     cae:	16 95       	lsr	r17
     cb0:	c8 cf       	rjmp	.-112    	; 0xc42 <Adafruit_SPIDevice::transfer(unsigned char)+0xfc>

00000cb2 <Adafruit_SPIDevice::write_then_read(unsigned char const*, unsigned int, unsigned char*, unsigned int, unsigned char) [clone .constprop.52]>:
_ZN18Adafruit_SPIDevice15write_then_readEPKhjPhjh.constprop.52():
/home/huser/Arduino/libraries/Adafruit_BusIO/Adafruit_SPIDevice.cpp:438
 *    @param  sendvalue The 8-bits of data to write when doing the data read,
 * defaults to 0xFF
 *    @return Always returns true because there's no way to test success of SPI
 * writes
 */
bool Adafruit_SPIDevice::write_then_read(const uint8_t *write_buffer,
     cb2:	cf 92       	push	r12
     cb4:	df 92       	push	r13
     cb6:	ef 92       	push	r14
     cb8:	ff 92       	push	r15
     cba:	0f 93       	push	r16
     cbc:	1f 93       	push	r17
     cbe:	cf 93       	push	r28
     cc0:	df 93       	push	r29
     cc2:	8c 01       	movw	r16, r24
     cc4:	eb 01       	movw	r28, r22
     cc6:	6a 01       	movw	r12, r20
     cc8:	79 01       	movw	r14, r18
/home/huser/Arduino/libraries/Adafruit_BusIO/Adafruit_SPIDevice.cpp:441
                                         size_t write_len, uint8_t *read_buffer,
                                         size_t read_len, uint8_t sendvalue) {
  beginTransactionWithAssertingCS();
     cca:	0e 94 90 05 	call	0xb20	; 0xb20 <Adafruit_SPIDevice::beginTransactionWithAssertingCS()>
/home/huser/Arduino/libraries/Adafruit_BusIO/Adafruit_SPIDevice.cpp:452
    }
  } else
#endif
  {
    for (size_t i = 0; i < write_len; i++) {
      transfer(write_buffer[i]);
     cce:	68 81       	ld	r22, Y
     cd0:	c8 01       	movw	r24, r16
     cd2:	0e 94 a3 05 	call	0xb46	; 0xb46 <Adafruit_SPIDevice::transfer(unsigned char)>
     cd6:	e6 01       	movw	r28, r12
     cd8:	ec 0c       	add	r14, r12
     cda:	fd 1c       	adc	r15, r13
/home/huser/Arduino/libraries/Adafruit_BusIO/Adafruit_SPIDevice.cpp:470
  }
  DEBUG_SERIAL.println();
#endif

  // do the reading
  for (size_t i = 0; i < read_len; i++) {
     cdc:	ce 15       	cp	r28, r14
     cde:	df 05       	cpc	r29, r15
     ce0:	31 f0       	breq	.+12     	; 0xcee <Adafruit_SPIDevice::write_then_read(unsigned char const*, unsigned int, unsigned char*, unsigned int, unsigned char) [clone .constprop.52]+0x3c>
/home/huser/Arduino/libraries/Adafruit_BusIO/Adafruit_SPIDevice.cpp:471
    read_buffer[i] = transfer(sendvalue);
     ce2:	6f ef       	ldi	r22, 0xFF	; 255
     ce4:	c8 01       	movw	r24, r16
     ce6:	0e 94 a3 05 	call	0xb46	; 0xb46 <Adafruit_SPIDevice::transfer(unsigned char)>
     cea:	89 93       	st	Y+, r24
     cec:	f7 cf       	rjmp	.-18     	; 0xcdc <Adafruit_SPIDevice::write_then_read(unsigned char const*, unsigned int, unsigned char*, unsigned int, unsigned char) [clone .constprop.52]+0x2a>
/home/huser/Arduino/libraries/Adafruit_BusIO/Adafruit_SPIDevice.cpp:487
    }
  }
  DEBUG_SERIAL.println();
#endif

  endTransactionWithDeassertingCS();
     cee:	c8 01       	movw	r24, r16
     cf0:	0e 94 88 05 	call	0xb10	; 0xb10 <Adafruit_SPIDevice::endTransactionWithDeassertingCS()>
/home/huser/Arduino/libraries/Adafruit_BusIO/Adafruit_SPIDevice.cpp:490

  return true;
}
     cf4:	81 e0       	ldi	r24, 0x01	; 1
     cf6:	df 91       	pop	r29
     cf8:	cf 91       	pop	r28
     cfa:	1f 91       	pop	r17
     cfc:	0f 91       	pop	r16
     cfe:	ff 90       	pop	r15
     d00:	ef 90       	pop	r14
     d02:	df 90       	pop	r13
     d04:	cf 90       	pop	r12
     d06:	08 95       	ret

00000d08 <Adafruit_MAX31865::writeRegister8(unsigned char, unsigned char)>:
_ZN17Adafruit_MAX3186514writeRegister8Ehh():
/home/huser/Arduino/libraries/Adafruit_MAX31865_library/Adafruit_MAX31865.cpp:342
  addr &= 0x7F; // make sure top bit is not set

  spi_dev.write_then_read(&addr, 1, buffer, n);
}

void Adafruit_MAX31865::writeRegister8(uint8_t addr, uint8_t data) {
     d08:	0f 93       	push	r16
     d0a:	1f 93       	push	r17
     d0c:	cf 93       	push	r28
     d0e:	df 93       	push	r29
     d10:	ec 01       	movw	r28, r24
     d12:	16 2f       	mov	r17, r22
     d14:	04 2f       	mov	r16, r20
write():
/home/huser/Arduino/libraries/Adafruit_BusIO/Adafruit_SPIDevice.cpp:346
 * writes
 */
bool Adafruit_SPIDevice::write(const uint8_t *buffer, size_t len,
                               const uint8_t *prefix_buffer,
                               size_t prefix_len) {
  beginTransactionWithAssertingCS();
     d16:	0e 94 90 05 	call	0xb20	; 0xb20 <Adafruit_SPIDevice::beginTransactionWithAssertingCS()>
_ZN17Adafruit_MAX3186514writeRegister8Ehh():
/home/huser/Arduino/libraries/Adafruit_MAX31865_library/Adafruit_MAX31865.cpp:343
  addr |= 0x80; // make sure top bit is set
     d1a:	61 2f       	mov	r22, r17
     d1c:	60 68       	ori	r22, 0x80	; 128
write():
/home/huser/Arduino/libraries/Adafruit_BusIO/Adafruit_SPIDevice.cpp:364
  {
    for (size_t i = 0; i < prefix_len; i++) {
      transfer(prefix_buffer[i]);
    }
    for (size_t i = 0; i < len; i++) {
      transfer(buffer[i]);
     d1e:	ce 01       	movw	r24, r28
     d20:	0e 94 a3 05 	call	0xb46	; 0xb46 <Adafruit_SPIDevice::transfer(unsigned char)>
     d24:	60 2f       	mov	r22, r16
     d26:	ce 01       	movw	r24, r28
     d28:	0e 94 a3 05 	call	0xb46	; 0xb46 <Adafruit_SPIDevice::transfer(unsigned char)>
/home/huser/Arduino/libraries/Adafruit_BusIO/Adafruit_SPIDevice.cpp:367
    }
  }
  endTransactionWithDeassertingCS();
     d2c:	ce 01       	movw	r24, r28
_ZN17Adafruit_MAX3186514writeRegister8Ehh():
/home/huser/Arduino/libraries/Adafruit_MAX31865_library/Adafruit_MAX31865.cpp:347

  uint8_t buffer[2] = {addr, data};
  spi_dev.write(buffer, 2);
}
     d2e:	df 91       	pop	r29
     d30:	cf 91       	pop	r28
     d32:	1f 91       	pop	r17
     d34:	0f 91       	pop	r16
write():
/home/huser/Arduino/libraries/Adafruit_BusIO/Adafruit_SPIDevice.cpp:367
     d36:	0c 94 88 05 	jmp	0xb10	; 0xb10 <Adafruit_SPIDevice::endTransactionWithDeassertingCS()>

00000d3a <Adafruit_MAX31865::readRegister8(unsigned char)>:
_ZN17Adafruit_MAX3186513readRegister8Eh():
/home/huser/Arduino/libraries/Adafruit_MAX31865_library/Adafruit_MAX31865.cpp:317
  return rtd;
}

/**********************************************/

uint8_t Adafruit_MAX31865::readRegister8(uint8_t addr) {
     d3a:	cf 93       	push	r28
     d3c:	df 93       	push	r29
     d3e:	00 d0       	rcall	.+0      	; 0xd40 <Adafruit_MAX31865::readRegister8(unsigned char)+0x6>
     d40:	cd b7       	in	r28, 0x3d	; 61
     d42:	de b7       	in	r29, 0x3e	; 62
/home/huser/Arduino/libraries/Adafruit_MAX31865_library/Adafruit_MAX31865.cpp:318
  uint8_t ret = 0;
     d44:	1a 82       	std	Y+2, r1	; 0x02
     d46:	69 83       	std	Y+1, r22	; 0x01
readRegisterN():
/home/huser/Arduino/libraries/Adafruit_MAX31865_library/Adafruit_MAX31865.cpp:339

void Adafruit_MAX31865::readRegisterN(uint8_t addr, uint8_t buffer[],
                                      uint8_t n) {
  addr &= 0x7F; // make sure top bit is not set

  spi_dev.write_then_read(&addr, 1, buffer, n);
     d48:	21 e0       	ldi	r18, 0x01	; 1
     d4a:	30 e0       	ldi	r19, 0x00	; 0
     d4c:	ae 01       	movw	r20, r28
     d4e:	4e 5f       	subi	r20, 0xFE	; 254
     d50:	5f 4f       	sbci	r21, 0xFF	; 255
     d52:	be 01       	movw	r22, r28
     d54:	6f 5f       	subi	r22, 0xFF	; 255
     d56:	7f 4f       	sbci	r23, 0xFF	; 255
     d58:	0e 94 59 06 	call	0xcb2	; 0xcb2 <Adafruit_SPIDevice::write_then_read(unsigned char const*, unsigned int, unsigned char*, unsigned int, unsigned char) [clone .constprop.52]>
_ZN17Adafruit_MAX3186513readRegister8Eh():
/home/huser/Arduino/libraries/Adafruit_MAX31865_library/Adafruit_MAX31865.cpp:322
uint8_t Adafruit_MAX31865::readRegister8(uint8_t addr) {
  uint8_t ret = 0;
  readRegisterN(addr, &ret, 1);

  return ret;
}
     d5c:	8a 81       	ldd	r24, Y+2	; 0x02
     d5e:	0f 90       	pop	r0
     d60:	0f 90       	pop	r0
     d62:	df 91       	pop	r29
     d64:	cf 91       	pop	r28
     d66:	08 95       	ret

00000d68 <Adafruit_MAX31865::enableBias(bool)>:
_ZN17Adafruit_MAX3186510enableBiasEb():
/home/huser/Arduino/libraries/Adafruit_MAX31865_library/Adafruit_MAX31865.cpp:123
/*!
    @brief Enable the bias voltage on the RTD sensor
    @param b If true bias is enabled, else disabled
*/
/**************************************************************************/
void Adafruit_MAX31865::enableBias(bool b) {
     d68:	1f 93       	push	r17
     d6a:	cf 93       	push	r28
     d6c:	df 93       	push	r29
     d6e:	ec 01       	movw	r28, r24
     d70:	16 2f       	mov	r17, r22
/home/huser/Arduino/libraries/Adafruit_MAX31865_library/Adafruit_MAX31865.cpp:124
  uint8_t t = readRegister8(MAX31865_CONFIG_REG);
     d72:	60 e0       	ldi	r22, 0x00	; 0
     d74:	0e 94 9d 06 	call	0xd3a	; 0xd3a <Adafruit_MAX31865::readRegister8(unsigned char)>
/home/huser/Arduino/libraries/Adafruit_MAX31865_library/Adafruit_MAX31865.cpp:126
  if (b) {
    t |= MAX31865_CONFIG_BIAS; // enable bias
     d78:	48 2f       	mov	r20, r24
/home/huser/Arduino/libraries/Adafruit_MAX31865_library/Adafruit_MAX31865.cpp:125
    @param b If true bias is enabled, else disabled
*/
/**************************************************************************/
void Adafruit_MAX31865::enableBias(bool b) {
  uint8_t t = readRegister8(MAX31865_CONFIG_REG);
  if (b) {
     d7a:	11 23       	and	r17, r17
     d7c:	41 f0       	breq	.+16     	; 0xd8e <Adafruit_MAX31865::enableBias(bool)+0x26>
/home/huser/Arduino/libraries/Adafruit_MAX31865_library/Adafruit_MAX31865.cpp:126
    t |= MAX31865_CONFIG_BIAS; // enable bias
     d7e:	40 68       	ori	r20, 0x80	; 128
/home/huser/Arduino/libraries/Adafruit_MAX31865_library/Adafruit_MAX31865.cpp:130
  } else {
    t &= ~MAX31865_CONFIG_BIAS; // disable bias
  }
  writeRegister8(MAX31865_CONFIG_REG, t);
     d80:	60 e0       	ldi	r22, 0x00	; 0
     d82:	ce 01       	movw	r24, r28
/home/huser/Arduino/libraries/Adafruit_MAX31865_library/Adafruit_MAX31865.cpp:131
}
     d84:	df 91       	pop	r29
     d86:	cf 91       	pop	r28
     d88:	1f 91       	pop	r17
/home/huser/Arduino/libraries/Adafruit_MAX31865_library/Adafruit_MAX31865.cpp:130
  if (b) {
    t |= MAX31865_CONFIG_BIAS; // enable bias
  } else {
    t &= ~MAX31865_CONFIG_BIAS; // disable bias
  }
  writeRegister8(MAX31865_CONFIG_REG, t);
     d8a:	0c 94 84 06 	jmp	0xd08	; 0xd08 <Adafruit_MAX31865::writeRegister8(unsigned char, unsigned char)>
/home/huser/Arduino/libraries/Adafruit_MAX31865_library/Adafruit_MAX31865.cpp:128
void Adafruit_MAX31865::enableBias(bool b) {
  uint8_t t = readRegister8(MAX31865_CONFIG_REG);
  if (b) {
    t |= MAX31865_CONFIG_BIAS; // enable bias
  } else {
    t &= ~MAX31865_CONFIG_BIAS; // disable bias
     d8e:	4f 77       	andi	r20, 0x7F	; 127
     d90:	f7 cf       	rjmp	.-18     	; 0xd80 <Adafruit_MAX31865::enableBias(bool)+0x18>

00000d92 <Adafruit_MAX31865::clearFault()>:
_ZN17Adafruit_MAX3186510clearFaultEv():
/home/huser/Arduino/libraries/Adafruit_MAX31865_library/Adafruit_MAX31865.cpp:110
/**************************************************************************/
/*!
    @brief Clear all faults in FAULTSTAT
*/
/**************************************************************************/
void Adafruit_MAX31865::clearFault(void) {
     d92:	cf 93       	push	r28
     d94:	df 93       	push	r29
     d96:	ec 01       	movw	r28, r24
/home/huser/Arduino/libraries/Adafruit_MAX31865_library/Adafruit_MAX31865.cpp:111
  uint8_t t = readRegister8(MAX31865_CONFIG_REG);
     d98:	60 e0       	ldi	r22, 0x00	; 0
     d9a:	0e 94 9d 06 	call	0xd3a	; 0xd3a <Adafruit_MAX31865::readRegister8(unsigned char)>
/home/huser/Arduino/libraries/Adafruit_MAX31865_library/Adafruit_MAX31865.cpp:112
  t &= ~0x2C;
     d9e:	83 7d       	andi	r24, 0xD3	; 211
/home/huser/Arduino/libraries/Adafruit_MAX31865_library/Adafruit_MAX31865.cpp:113
  t |= MAX31865_CONFIG_FAULTSTAT;
     da0:	48 2f       	mov	r20, r24
     da2:	42 60       	ori	r20, 0x02	; 2
/home/huser/Arduino/libraries/Adafruit_MAX31865_library/Adafruit_MAX31865.cpp:114
  writeRegister8(MAX31865_CONFIG_REG, t);
     da4:	60 e0       	ldi	r22, 0x00	; 0
     da6:	ce 01       	movw	r24, r28
/home/huser/Arduino/libraries/Adafruit_MAX31865_library/Adafruit_MAX31865.cpp:115
}
     da8:	df 91       	pop	r29
     daa:	cf 91       	pop	r28
/home/huser/Arduino/libraries/Adafruit_MAX31865_library/Adafruit_MAX31865.cpp:114
/**************************************************************************/
void Adafruit_MAX31865::clearFault(void) {
  uint8_t t = readRegister8(MAX31865_CONFIG_REG);
  t &= ~0x2C;
  t |= MAX31865_CONFIG_FAULTSTAT;
  writeRegister8(MAX31865_CONFIG_REG, t);
     dac:	0c 94 84 06 	jmp	0xd08	; 0xd08 <Adafruit_MAX31865::writeRegister8(unsigned char, unsigned char)>

00000db0 <Adafruit_MAX31865::readRTD()>:
_ZN17Adafruit_MAX318657readRTDEv():
/home/huser/Arduino/libraries/Adafruit_MAX31865_library/Adafruit_MAX31865.cpp:296
/*!
    @brief Read the raw 16-bit value from the RTD_REG in one shot mode
    @return The raw unsigned 16-bit value, NOT temperature!
*/
/**************************************************************************/
uint16_t Adafruit_MAX31865::readRTD(void) {
     db0:	ef 92       	push	r14
     db2:	ff 92       	push	r15
     db4:	0f 93       	push	r16
     db6:	1f 93       	push	r17
     db8:	cf 93       	push	r28
     dba:	df 93       	push	r29
     dbc:	00 d0       	rcall	.+0      	; 0xdbe <Adafruit_MAX31865::readRTD()+0xe>
     dbe:	1f 92       	push	r1
     dc0:	cd b7       	in	r28, 0x3d	; 61
     dc2:	de b7       	in	r29, 0x3e	; 62
     dc4:	8c 01       	movw	r16, r24
/home/huser/Arduino/libraries/Adafruit_MAX31865_library/Adafruit_MAX31865.cpp:297
  clearFault();
     dc6:	0e 94 c9 06 	call	0xd92	; 0xd92 <Adafruit_MAX31865::clearFault()>
/home/huser/Arduino/libraries/Adafruit_MAX31865_library/Adafruit_MAX31865.cpp:298
  enableBias(true);
     dca:	61 e0       	ldi	r22, 0x01	; 1
     dcc:	c8 01       	movw	r24, r16
     dce:	0e 94 b4 06 	call	0xd68	; 0xd68 <Adafruit_MAX31865::enableBias(bool)>
/home/huser/Arduino/libraries/Adafruit_MAX31865_library/Adafruit_MAX31865.cpp:299
  delay(10);
     dd2:	6a e0       	ldi	r22, 0x0A	; 10
     dd4:	70 e0       	ldi	r23, 0x00	; 0
     dd6:	80 e0       	ldi	r24, 0x00	; 0
     dd8:	90 e0       	ldi	r25, 0x00	; 0
     dda:	0e 94 7b 02 	call	0x4f6	; 0x4f6 <delay>
/home/huser/Arduino/libraries/Adafruit_MAX31865_library/Adafruit_MAX31865.cpp:300
  uint8_t t = readRegister8(MAX31865_CONFIG_REG);
     dde:	60 e0       	ldi	r22, 0x00	; 0
     de0:	c8 01       	movw	r24, r16
     de2:	0e 94 9d 06 	call	0xd3a	; 0xd3a <Adafruit_MAX31865::readRegister8(unsigned char)>
/home/huser/Arduino/libraries/Adafruit_MAX31865_library/Adafruit_MAX31865.cpp:301
  t |= MAX31865_CONFIG_1SHOT;
     de6:	48 2f       	mov	r20, r24
     de8:	40 62       	ori	r20, 0x20	; 32
/home/huser/Arduino/libraries/Adafruit_MAX31865_library/Adafruit_MAX31865.cpp:302
  writeRegister8(MAX31865_CONFIG_REG, t);
     dea:	60 e0       	ldi	r22, 0x00	; 0
     dec:	c8 01       	movw	r24, r16
     dee:	0e 94 84 06 	call	0xd08	; 0xd08 <Adafruit_MAX31865::writeRegister8(unsigned char, unsigned char)>
/home/huser/Arduino/libraries/Adafruit_MAX31865_library/Adafruit_MAX31865.cpp:303
  delay(65);
     df2:	61 e4       	ldi	r22, 0x41	; 65
     df4:	70 e0       	ldi	r23, 0x00	; 0
     df6:	80 e0       	ldi	r24, 0x00	; 0
     df8:	90 e0       	ldi	r25, 0x00	; 0
     dfa:	0e 94 7b 02 	call	0x4f6	; 0x4f6 <delay>
readRegister16():
/home/huser/Arduino/libraries/Adafruit_MAX31865_library/Adafruit_MAX31865.cpp:325

  return ret;
}

uint16_t Adafruit_MAX31865::readRegister16(uint8_t addr) {
  uint8_t buffer[2] = {0, 0};
     dfe:	19 82       	std	Y+1, r1	; 0x01
     e00:	1a 82       	std	Y+2, r1	; 0x02
     e02:	81 e0       	ldi	r24, 0x01	; 1
     e04:	8b 83       	std	Y+3, r24	; 0x03
readRegisterN():
/home/huser/Arduino/libraries/Adafruit_MAX31865_library/Adafruit_MAX31865.cpp:339

void Adafruit_MAX31865::readRegisterN(uint8_t addr, uint8_t buffer[],
                                      uint8_t n) {
  addr &= 0x7F; // make sure top bit is not set

  spi_dev.write_then_read(&addr, 1, buffer, n);
     e06:	22 e0       	ldi	r18, 0x02	; 2
     e08:	30 e0       	ldi	r19, 0x00	; 0
     e0a:	ae 01       	movw	r20, r28
     e0c:	4f 5f       	subi	r20, 0xFF	; 255
     e0e:	5f 4f       	sbci	r21, 0xFF	; 255
     e10:	be 01       	movw	r22, r28
     e12:	6d 5f       	subi	r22, 0xFD	; 253
     e14:	7f 4f       	sbci	r23, 0xFF	; 255
     e16:	c8 01       	movw	r24, r16
     e18:	0e 94 59 06 	call	0xcb2	; 0xcb2 <Adafruit_SPIDevice::write_then_read(unsigned char const*, unsigned int, unsigned char*, unsigned int, unsigned char) [clone .constprop.52]>
     e1c:	e9 80       	ldd	r14, Y+1	; 0x01
     e1e:	fa 80       	ldd	r15, Y+2	; 0x02
     e20:	fe 24       	eor	r15, r14
     e22:	ef 24       	eor	r14, r15
     e24:	fe 24       	eor	r15, r14
_ZN17Adafruit_MAX318657readRTDEv():
/home/huser/Arduino/libraries/Adafruit_MAX31865_library/Adafruit_MAX31865.cpp:307
  writeRegister8(MAX31865_CONFIG_REG, t);
  delay(65);

  uint16_t rtd = readRegister16(MAX31865_RTDMSB_REG);

  enableBias(false); // Disable bias current again to reduce selfheating.
     e26:	60 e0       	ldi	r22, 0x00	; 0
     e28:	c8 01       	movw	r24, r16
     e2a:	0e 94 b4 06 	call	0xd68	; 0xd68 <Adafruit_MAX31865::enableBias(bool)>
/home/huser/Arduino/libraries/Adafruit_MAX31865_library/Adafruit_MAX31865.cpp:313

  // remove fault
  rtd >>= 1;

  return rtd;
}
     e2e:	c7 01       	movw	r24, r14
     e30:	96 95       	lsr	r25
     e32:	87 95       	ror	r24
     e34:	0f 90       	pop	r0
     e36:	0f 90       	pop	r0
     e38:	0f 90       	pop	r0
     e3a:	df 91       	pop	r29
     e3c:	cf 91       	pop	r28
     e3e:	1f 91       	pop	r17
     e40:	0f 91       	pop	r16
     e42:	ff 90       	pop	r15
     e44:	ef 90       	pop	r14
     e46:	08 95       	ret

00000e48 <Adafruit_MAX31865::begin(max31865_numwires)>:
_ZN17Adafruit_MAX318655beginE17max31865_numwires():
/home/huser/Arduino/libraries/Adafruit_MAX31865_library/Adafruit_MAX31865.cpp:59
    @param wires The number of wires in enum format. Can be MAX31865_2WIRE,
    MAX31865_3WIRE, or MAX31865_4WIRE
    @return True
*/
/**************************************************************************/
bool Adafruit_MAX31865::begin(max31865_numwires_t wires) {
     e48:	ff 92       	push	r15
     e4a:	0f 93       	push	r16
     e4c:	1f 93       	push	r17
     e4e:	cf 93       	push	r28
     e50:	df 93       	push	r29
     e52:	ec 01       	movw	r28, r24
     e54:	8b 01       	movw	r16, r22
begin():
/home/huser/Arduino/libraries/Adafruit_BusIO/Adafruit_SPIDevice.cpp:93
 *    @brief  Initializes SPI bus and sets CS pin high
 *    @return Always returns true because there's no way to test success of SPI
 * init
 */
bool Adafruit_SPIDevice::begin(void) {
  if (_cs != -1) {
     e56:	8b 85       	ldd	r24, Y+11	; 0x0b
     e58:	8f 3f       	cpi	r24, 0xFF	; 255
     e5a:	39 f0       	breq	.+14     	; 0xe6a <Adafruit_MAX31865::begin(max31865_numwires)+0x22>
/home/huser/Arduino/libraries/Adafruit_BusIO/Adafruit_SPIDevice.cpp:94
    pinMode(_cs, OUTPUT);
     e5c:	61 e0       	ldi	r22, 0x01	; 1
     e5e:	0e 94 1a 02 	call	0x434	; 0x434 <pinMode>
/home/huser/Arduino/libraries/Adafruit_BusIO/Adafruit_SPIDevice.cpp:95
    digitalWrite(_cs, HIGH);
     e62:	61 e0       	ldi	r22, 0x01	; 1
     e64:	8b 85       	ldd	r24, Y+11	; 0x0b
     e66:	0e 94 84 01 	call	0x308	; 0x308 <digitalWrite>
/home/huser/Arduino/libraries/Adafruit_BusIO/Adafruit_SPIDevice.cpp:98
  }

  if (_spi) { // hardware SPI
     e6a:	88 81       	ld	r24, Y
     e6c:	99 81       	ldd	r25, Y+1	; 0x01
     e6e:	89 2b       	or	r24, r25
     e70:	09 f4       	brne	.+2      	; 0xe74 <Adafruit_MAX31865::begin(max31865_numwires)+0x2c>
     e72:	6f c0       	rjmp	.+222    	; 0xf52 <Adafruit_MAX31865::begin(max31865_numwires)+0x10a>
/home/huser/.arduino15/packages/MiniCore/hardware/avr/3.0.2/libraries/SPI/src/SPI.cpp:28
uint8_t SPIClass::inTransactionFlag = 0;
#endif

void SPIClass::begin()
{
  uint8_t sreg = SREG;
     e74:	ff b6       	in	r15, 0x3f	; 63
/home/huser/.arduino15/packages/MiniCore/hardware/avr/3.0.2/libraries/SPI/src/SPI.cpp:29
  noInterrupts(); // Protect from a scheduler and prevent transactionBegin
     e76:	f8 94       	cli
/home/huser/.arduino15/packages/MiniCore/hardware/avr/3.0.2/libraries/SPI/src/SPI.cpp:30
  if (!initialized) {
     e78:	80 91 88 03 	lds	r24, 0x0388	; 0x800388 <SPIClass::initialized>
     e7c:	81 11       	cpse	r24, r1
     e7e:	27 c0       	rjmp	.+78     	; 0xece <Adafruit_MAX31865::begin(max31865_numwires)+0x86>
/home/huser/.arduino15/packages/MiniCore/hardware/avr/3.0.2/libraries/SPI/src/SPI.cpp:32
    // Set SS to high so a connected chip will be "deselected" by default
    uint8_t port = digitalPinToPort(SS);
     e80:	eb e0       	ldi	r30, 0x0B	; 11
     e82:	f2 e0       	ldi	r31, 0x02	; 2
     e84:	84 91       	lpm	r24, Z
/home/huser/.arduino15/packages/MiniCore/hardware/avr/3.0.2/libraries/SPI/src/SPI.cpp:33
    uint8_t bit = digitalPinToBitMask(SS);
     e86:	e6 e2       	ldi	r30, 0x26	; 38
     e88:	f2 e0       	ldi	r31, 0x02	; 2
     e8a:	94 91       	lpm	r25, Z
/home/huser/.arduino15/packages/MiniCore/hardware/avr/3.0.2/libraries/SPI/src/SPI.cpp:34
    volatile uint8_t *reg = portModeRegister(port);
     e8c:	e8 2f       	mov	r30, r24
     e8e:	f0 e0       	ldi	r31, 0x00	; 0
     e90:	ee 0f       	add	r30, r30
     e92:	ff 1f       	adc	r31, r31
     e94:	e7 51       	subi	r30, 0x17	; 23
     e96:	fe 4f       	sbci	r31, 0xFE	; 254
     e98:	a5 91       	lpm	r26, Z+
     e9a:	b4 91       	lpm	r27, Z
/home/huser/.arduino15/packages/MiniCore/hardware/avr/3.0.2/libraries/SPI/src/SPI.cpp:38

    // if the SS pin is not already configured as an output
    // then set it high (to enable the internal pull-up resistor)
    if(!(*reg & bit)){
     e9c:	ec 91       	ld	r30, X
     e9e:	e9 23       	and	r30, r25
     ea0:	21 f4       	brne	.+8      	; 0xeaa <Adafruit_MAX31865::begin(max31865_numwires)+0x62>
/home/huser/.arduino15/packages/MiniCore/hardware/avr/3.0.2/libraries/SPI/src/SPI.cpp:39
      digitalWrite(SS, HIGH);
     ea2:	61 e0       	ldi	r22, 0x01	; 1
     ea4:	8a e0       	ldi	r24, 0x0A	; 10
     ea6:	0e 94 84 01 	call	0x308	; 0x308 <digitalWrite>
/home/huser/.arduino15/packages/MiniCore/hardware/avr/3.0.2/libraries/SPI/src/SPI.cpp:45
    }

    // When the SS pin is set as OUTPUT, it can be used as
    // a general purpose output port (it doesn't influence
    // SPI operations).
    pinMode(SS, OUTPUT);
     eaa:	61 e0       	ldi	r22, 0x01	; 1
     eac:	8a e0       	ldi	r24, 0x0A	; 10
     eae:	0e 94 1a 02 	call	0x434	; 0x434 <pinMode>
/home/huser/.arduino15/packages/MiniCore/hardware/avr/3.0.2/libraries/SPI/src/SPI.cpp:50

    // Warning: if the SS pin ever becomes a LOW INPUT then SPI
    // automatically switches to Slave, so the data direction of
    // the SS pin MUST be kept as OUTPUT.
    SPCR |= _BV(MSTR);
     eb2:	8c b5       	in	r24, 0x2c	; 44
     eb4:	80 61       	ori	r24, 0x10	; 16
     eb6:	8c bd       	out	0x2c, r24	; 44
/home/huser/.arduino15/packages/MiniCore/hardware/avr/3.0.2/libraries/SPI/src/SPI.cpp:51
    SPCR |= _BV(SPE);
     eb8:	8c b5       	in	r24, 0x2c	; 44
     eba:	80 64       	ori	r24, 0x40	; 64
     ebc:	8c bd       	out	0x2c, r24	; 44
/home/huser/.arduino15/packages/MiniCore/hardware/avr/3.0.2/libraries/SPI/src/SPI.cpp:59
    // MISO pin automatically overrides to INPUT.
    // By doing this AFTER enabling SPI, we avoid accidentally
    // clocking in a single bit since the lines go directly
    // from "input" to SPI control.
    // http://code.google.com/p/arduino/issues/detail?id=888
    pinMode(SCK, OUTPUT);
     ebe:	61 e0       	ldi	r22, 0x01	; 1
     ec0:	8d e0       	ldi	r24, 0x0D	; 13
     ec2:	0e 94 1a 02 	call	0x434	; 0x434 <pinMode>
/home/huser/.arduino15/packages/MiniCore/hardware/avr/3.0.2/libraries/SPI/src/SPI.cpp:60
    pinMode(MOSI, OUTPUT);
     ec6:	61 e0       	ldi	r22, 0x01	; 1
     ec8:	8b e0       	ldi	r24, 0x0B	; 11
     eca:	0e 94 1a 02 	call	0x434	; 0x434 <pinMode>
/home/huser/.arduino15/packages/MiniCore/hardware/avr/3.0.2/libraries/SPI/src/SPI.cpp:62
  }
  initialized++; // reference count
     ece:	80 91 88 03 	lds	r24, 0x0388	; 0x800388 <SPIClass::initialized>
     ed2:	8f 5f       	subi	r24, 0xFF	; 255
     ed4:	80 93 88 03 	sts	0x0388, r24	; 0x800388 <SPIClass::initialized>
/home/huser/.arduino15/packages/MiniCore/hardware/avr/3.0.2/libraries/SPI/src/SPI.cpp:63
  SREG = sreg;
     ed8:	ff be       	out	0x3f, r15	; 63
/home/huser/Arduino/libraries/Adafruit_BusIO/Adafruit_SPIDevice.cpp:121
    if (_miso != -1) {
      pinMode(_miso, INPUT);
    }
  }

  _begun = true;
     eda:	81 e0       	ldi	r24, 0x01	; 1
     edc:	8b 8f       	std	Y+27, r24	; 0x1b
setWires():
/home/huser/Arduino/libraries/Adafruit_MAX31865_library/Adafruit_MAX31865.cpp:209
    MAX31865_3WIRE, or MAX31865_4WIRE
    @param wires The number of wires in enum format
*/
/**************************************************************************/
void Adafruit_MAX31865::setWires(max31865_numwires_t wires) {
  uint8_t t = readRegister8(MAX31865_CONFIG_REG);
     ede:	60 e0       	ldi	r22, 0x00	; 0
     ee0:	ce 01       	movw	r24, r28
     ee2:	0e 94 9d 06 	call	0xd3a	; 0xd3a <Adafruit_MAX31865::readRegister8(unsigned char)>
/home/huser/Arduino/libraries/Adafruit_MAX31865_library/Adafruit_MAX31865.cpp:211
  if (wires == MAX31865_3WIRE) {
    t |= MAX31865_CONFIG_3WIRE;
     ee6:	48 2f       	mov	r20, r24
/home/huser/Arduino/libraries/Adafruit_MAX31865_library/Adafruit_MAX31865.cpp:210
    @param wires The number of wires in enum format
*/
/**************************************************************************/
void Adafruit_MAX31865::setWires(max31865_numwires_t wires) {
  uint8_t t = readRegister8(MAX31865_CONFIG_REG);
  if (wires == MAX31865_3WIRE) {
     ee8:	01 30       	cpi	r16, 0x01	; 1
     eea:	11 05       	cpc	r17, r1
     eec:	09 f0       	breq	.+2      	; 0xef0 <Adafruit_MAX31865::begin(max31865_numwires)+0xa8>
     eee:	4f c0       	rjmp	.+158    	; 0xf8e <Adafruit_MAX31865::begin(max31865_numwires)+0x146>
/home/huser/Arduino/libraries/Adafruit_MAX31865_library/Adafruit_MAX31865.cpp:211
    t |= MAX31865_CONFIG_3WIRE;
     ef0:	40 61       	ori	r20, 0x10	; 16
/home/huser/Arduino/libraries/Adafruit_MAX31865_library/Adafruit_MAX31865.cpp:216
  } else {
    // 2 or 4 wire
    t &= ~MAX31865_CONFIG_3WIRE;
  }
  writeRegister8(MAX31865_CONFIG_REG, t);
     ef2:	60 e0       	ldi	r22, 0x00	; 0
     ef4:	ce 01       	movw	r24, r28
     ef6:	0e 94 84 06 	call	0xd08	; 0xd08 <Adafruit_MAX31865::writeRegister8(unsigned char, unsigned char)>
_ZN17Adafruit_MAX318655beginE17max31865_numwires():
/home/huser/Arduino/libraries/Adafruit_MAX31865_library/Adafruit_MAX31865.cpp:63
/**************************************************************************/
bool Adafruit_MAX31865::begin(max31865_numwires_t wires) {
  spi_dev.begin();

  setWires(wires);
  enableBias(false);
     efa:	60 e0       	ldi	r22, 0x00	; 0
     efc:	ce 01       	movw	r24, r28
     efe:	0e 94 b4 06 	call	0xd68	; 0xd68 <Adafruit_MAX31865::enableBias(bool)>
autoConvert():
/home/huser/Arduino/libraries/Adafruit_MAX31865_library/Adafruit_MAX31865.cpp:140
    @brief Whether we want to have continuous conversions (50/60 Hz)
    @param b If true, auto conversion is enabled
*/
/**************************************************************************/
void Adafruit_MAX31865::autoConvert(bool b) {
  uint8_t t = readRegister8(MAX31865_CONFIG_REG);
     f02:	60 e0       	ldi	r22, 0x00	; 0
     f04:	ce 01       	movw	r24, r28
     f06:	0e 94 9d 06 	call	0xd3a	; 0xd3a <Adafruit_MAX31865::readRegister8(unsigned char)>
/home/huser/Arduino/libraries/Adafruit_MAX31865_library/Adafruit_MAX31865.cpp:144
  if (b) {
    t |= MAX31865_CONFIG_MODEAUTO; // enable autoconvert
  } else {
    t &= ~MAX31865_CONFIG_MODEAUTO; // disable autoconvert
     f0a:	48 2f       	mov	r20, r24
     f0c:	4f 7b       	andi	r20, 0xBF	; 191
/home/huser/Arduino/libraries/Adafruit_MAX31865_library/Adafruit_MAX31865.cpp:146
  }
  writeRegister8(MAX31865_CONFIG_REG, t);
     f0e:	60 e0       	ldi	r22, 0x00	; 0
     f10:	ce 01       	movw	r24, r28
     f12:	0e 94 84 06 	call	0xd08	; 0xd08 <Adafruit_MAX31865::writeRegister8(unsigned char, unsigned char)>
setThresholds():
/home/huser/Arduino/libraries/Adafruit_MAX31865_library/Adafruit_MAX31865.cpp:175
    @param lower raw lower threshold
    @param upper raw upper threshold
*/
/**************************************************************************/
void Adafruit_MAX31865::setThresholds(uint16_t lower, uint16_t upper) {
  writeRegister8(MAX31865_LFAULTLSB_REG, lower & 0xFF);
     f16:	40 e0       	ldi	r20, 0x00	; 0
     f18:	66 e0       	ldi	r22, 0x06	; 6
     f1a:	ce 01       	movw	r24, r28
     f1c:	0e 94 84 06 	call	0xd08	; 0xd08 <Adafruit_MAX31865::writeRegister8(unsigned char, unsigned char)>
/home/huser/Arduino/libraries/Adafruit_MAX31865_library/Adafruit_MAX31865.cpp:176
  writeRegister8(MAX31865_LFAULTMSB_REG, lower >> 8);
     f20:	40 e0       	ldi	r20, 0x00	; 0
     f22:	65 e0       	ldi	r22, 0x05	; 5
     f24:	ce 01       	movw	r24, r28
     f26:	0e 94 84 06 	call	0xd08	; 0xd08 <Adafruit_MAX31865::writeRegister8(unsigned char, unsigned char)>
/home/huser/Arduino/libraries/Adafruit_MAX31865_library/Adafruit_MAX31865.cpp:177
  writeRegister8(MAX31865_HFAULTLSB_REG, upper & 0xFF);
     f2a:	4f ef       	ldi	r20, 0xFF	; 255
     f2c:	64 e0       	ldi	r22, 0x04	; 4
     f2e:	ce 01       	movw	r24, r28
     f30:	0e 94 84 06 	call	0xd08	; 0xd08 <Adafruit_MAX31865::writeRegister8(unsigned char, unsigned char)>
/home/huser/Arduino/libraries/Adafruit_MAX31865_library/Adafruit_MAX31865.cpp:178
  writeRegister8(MAX31865_HFAULTMSB_REG, upper >> 8);
     f34:	4f ef       	ldi	r20, 0xFF	; 255
     f36:	63 e0       	ldi	r22, 0x03	; 3
     f38:	ce 01       	movw	r24, r28
     f3a:	0e 94 84 06 	call	0xd08	; 0xd08 <Adafruit_MAX31865::writeRegister8(unsigned char, unsigned char)>
_ZN17Adafruit_MAX318655beginE17max31865_numwires():
/home/huser/Arduino/libraries/Adafruit_MAX31865_library/Adafruit_MAX31865.cpp:66

  setWires(wires);
  enableBias(false);
  autoConvert(false);
  setThresholds(0, 0xFFFF);
  clearFault();
     f3e:	ce 01       	movw	r24, r28
     f40:	0e 94 c9 06 	call	0xd92	; 0xd92 <Adafruit_MAX31865::clearFault()>
/home/huser/Arduino/libraries/Adafruit_MAX31865_library/Adafruit_MAX31865.cpp:71

  // Serial.print("config: ");
  // Serial.println(readRegister8(MAX31865_CONFIG_REG), HEX);
  return true;
}
     f44:	81 e0       	ldi	r24, 0x01	; 1
     f46:	df 91       	pop	r29
     f48:	cf 91       	pop	r28
     f4a:	1f 91       	pop	r17
     f4c:	0f 91       	pop	r16
     f4e:	ff 90       	pop	r15
     f50:	08 95       	ret
begin():
/home/huser/Arduino/libraries/Adafruit_BusIO/Adafruit_SPIDevice.cpp:103
  if (_spi) { // hardware SPI
#ifdef BUSIO_HAS_HW_SPI
    _spi->begin();
#endif
  } else {
    pinMode(_sck, OUTPUT);
     f52:	61 e0       	ldi	r22, 0x01	; 1
     f54:	8c 85       	ldd	r24, Y+12	; 0x0c
     f56:	0e 94 1a 02 	call	0x434	; 0x434 <pinMode>
/home/huser/Arduino/libraries/Adafruit_BusIO/Adafruit_SPIDevice.cpp:105

    if ((_dataMode == SPI_MODE0) || (_dataMode == SPI_MODE1)) {
     f5a:	8a 85       	ldd	r24, Y+10	; 0x0a
     f5c:	8b 7f       	andi	r24, 0xFB	; 251
/home/huser/Arduino/libraries/Adafruit_BusIO/Adafruit_SPIDevice.cpp:107
      // idle low on mode 0 and 1
      digitalWrite(_sck, LOW);
     f5e:	60 e0       	ldi	r22, 0x00	; 0
/home/huser/Arduino/libraries/Adafruit_BusIO/Adafruit_SPIDevice.cpp:105
    _spi->begin();
#endif
  } else {
    pinMode(_sck, OUTPUT);

    if ((_dataMode == SPI_MODE0) || (_dataMode == SPI_MODE1)) {
     f60:	09 f0       	breq	.+2      	; 0xf64 <Adafruit_MAX31865::begin(max31865_numwires)+0x11c>
/home/huser/Arduino/libraries/Adafruit_BusIO/Adafruit_SPIDevice.cpp:110
      // idle low on mode 0 and 1
      digitalWrite(_sck, LOW);
    } else {
      // idle high on mode 2 or 3
      digitalWrite(_sck, HIGH);
     f62:	61 e0       	ldi	r22, 0x01	; 1
     f64:	8c 85       	ldd	r24, Y+12	; 0x0c
     f66:	0e 94 84 01 	call	0x308	; 0x308 <digitalWrite>
/home/huser/Arduino/libraries/Adafruit_BusIO/Adafruit_SPIDevice.cpp:112
    }
    if (_mosi != -1) {
     f6a:	8d 85       	ldd	r24, Y+13	; 0x0d
     f6c:	8f 3f       	cpi	r24, 0xFF	; 255
     f6e:	39 f0       	breq	.+14     	; 0xf7e <Adafruit_MAX31865::begin(max31865_numwires)+0x136>
/home/huser/Arduino/libraries/Adafruit_BusIO/Adafruit_SPIDevice.cpp:113
      pinMode(_mosi, OUTPUT);
     f70:	61 e0       	ldi	r22, 0x01	; 1
     f72:	0e 94 1a 02 	call	0x434	; 0x434 <pinMode>
/home/huser/Arduino/libraries/Adafruit_BusIO/Adafruit_SPIDevice.cpp:114
      digitalWrite(_mosi, HIGH);
     f76:	61 e0       	ldi	r22, 0x01	; 1
     f78:	8d 85       	ldd	r24, Y+13	; 0x0d
     f7a:	0e 94 84 01 	call	0x308	; 0x308 <digitalWrite>
/home/huser/Arduino/libraries/Adafruit_BusIO/Adafruit_SPIDevice.cpp:116
    }
    if (_miso != -1) {
     f7e:	8e 85       	ldd	r24, Y+14	; 0x0e
     f80:	8f 3f       	cpi	r24, 0xFF	; 255
     f82:	09 f4       	brne	.+2      	; 0xf86 <Adafruit_MAX31865::begin(max31865_numwires)+0x13e>
     f84:	aa cf       	rjmp	.-172    	; 0xeda <Adafruit_MAX31865::begin(max31865_numwires)+0x92>
/home/huser/Arduino/libraries/Adafruit_BusIO/Adafruit_SPIDevice.cpp:117
      pinMode(_miso, INPUT);
     f86:	60 e0       	ldi	r22, 0x00	; 0
     f88:	0e 94 1a 02 	call	0x434	; 0x434 <pinMode>
     f8c:	a6 cf       	rjmp	.-180    	; 0xeda <Adafruit_MAX31865::begin(max31865_numwires)+0x92>
setWires():
/home/huser/Arduino/libraries/Adafruit_MAX31865_library/Adafruit_MAX31865.cpp:214
  uint8_t t = readRegister8(MAX31865_CONFIG_REG);
  if (wires == MAX31865_3WIRE) {
    t |= MAX31865_CONFIG_3WIRE;
  } else {
    // 2 or 4 wire
    t &= ~MAX31865_CONFIG_3WIRE;
     f8e:	4f 7e       	andi	r20, 0xEF	; 239
     f90:	b0 cf       	rjmp	.-160    	; 0xef2 <Adafruit_MAX31865::begin(max31865_numwires)+0xaa>

00000f92 <updatePeltierPWMTiming()>:
_Z22updatePeltierPWMTimingv():
/home/huser/Dev/TAD_Workspace/Projects/firmwares/OnlyCell/OnlyCell.ino:261
  m_offTimeHeater = 266 - m_onTimeHeater;
}

// Update peltier PWM timing
void updatePeltierPWMTiming() {
  m_onTimePeltier = (m_dutyCyclePeltier * 266) / 100;
     f92:	40 91 73 04 	lds	r20, 0x0473	; 0x800473 <m_dutyCyclePeltier>
     f96:	2a e0       	ldi	r18, 0x0A	; 10
     f98:	31 e0       	ldi	r19, 0x01	; 1
     f9a:	42 9f       	mul	r20, r18
     f9c:	c0 01       	movw	r24, r0
     f9e:	43 9f       	mul	r20, r19
     fa0:	90 0d       	add	r25, r0
     fa2:	11 24       	eor	r1, r1
     fa4:	64 e6       	ldi	r22, 0x64	; 100
     fa6:	70 e0       	ldi	r23, 0x00	; 0
     fa8:	0e 94 e5 21 	call	0x43ca	; 0x43ca <__divmodhi4>
     fac:	70 93 81 03 	sts	0x0381, r23	; 0x800381 <m_onTimePeltier+0x1>
     fb0:	60 93 80 03 	sts	0x0380, r22	; 0x800380 <m_onTimePeltier>
/home/huser/Dev/TAD_Workspace/Projects/firmwares/OnlyCell/OnlyCell.ino:262
  m_offTimePeltier = 266 - m_onTimePeltier;
     fb4:	80 91 80 03 	lds	r24, 0x0380	; 0x800380 <m_onTimePeltier>
     fb8:	90 91 81 03 	lds	r25, 0x0381	; 0x800381 <m_onTimePeltier+0x1>
     fbc:	28 1b       	sub	r18, r24
     fbe:	39 0b       	sbc	r19, r25
     fc0:	30 93 7f 03 	sts	0x037F, r19	; 0x80037f <m_offTimePeltier+0x1>
     fc4:	20 93 7e 03 	sts	0x037E, r18	; 0x80037e <m_offTimePeltier>
/home/huser/Dev/TAD_Workspace/Projects/firmwares/OnlyCell/OnlyCell.ino:263
}
     fc8:	08 95       	ret

00000fca <String::invalidate()>:
_ZN6String10invalidateEv():
/home/huser/.arduino15/packages/MiniCore/hardware/avr/3.0.2/cores/MCUdude_corefiles/WString.cpp:140
  capacity = 0;
  len = 0;
}

void String::invalidate(void)
{
     fca:	cf 93       	push	r28
     fcc:	df 93       	push	r29
     fce:	ec 01       	movw	r28, r24
/home/huser/.arduino15/packages/MiniCore/hardware/avr/3.0.2/cores/MCUdude_corefiles/WString.cpp:141
  if (buffer) free(buffer);
     fd0:	88 81       	ld	r24, Y
     fd2:	99 81       	ldd	r25, Y+1	; 0x01
     fd4:	00 97       	sbiw	r24, 0x00	; 0
     fd6:	11 f0       	breq	.+4      	; 0xfdc <String::invalidate()+0x12>
     fd8:	0e 94 d1 22 	call	0x45a2	; 0x45a2 <free>
/home/huser/.arduino15/packages/MiniCore/hardware/avr/3.0.2/cores/MCUdude_corefiles/WString.cpp:142
  buffer = NULL;
     fdc:	19 82       	std	Y+1, r1	; 0x01
     fde:	18 82       	st	Y, r1
/home/huser/.arduino15/packages/MiniCore/hardware/avr/3.0.2/cores/MCUdude_corefiles/WString.cpp:143
  capacity = len = 0;
     fe0:	1d 82       	std	Y+5, r1	; 0x05
     fe2:	1c 82       	std	Y+4, r1	; 0x04
     fe4:	1b 82       	std	Y+3, r1	; 0x03
     fe6:	1a 82       	std	Y+2, r1	; 0x02
/home/huser/.arduino15/packages/MiniCore/hardware/avr/3.0.2/cores/MCUdude_corefiles/WString.cpp:144
}
     fe8:	df 91       	pop	r29
     fea:	cf 91       	pop	r28
     fec:	08 95       	ret

00000fee <String::~String()>:
_ZN6StringD2Ev():
/home/huser/.arduino15/packages/MiniCore/hardware/avr/3.0.2/cores/MCUdude_corefiles/WString.cpp:124
  *this = dtostrf(value, (decimalPlaces + 2), decimalPlaces, buf);
}

String::~String()
{
  if(buffer)
     fee:	fc 01       	movw	r30, r24
     ff0:	80 81       	ld	r24, Z
     ff2:	91 81       	ldd	r25, Z+1	; 0x01
     ff4:	00 97       	sbiw	r24, 0x00	; 0
     ff6:	11 f0       	breq	.+4      	; 0xffc <String::~String()+0xe>
/home/huser/.arduino15/packages/MiniCore/hardware/avr/3.0.2/cores/MCUdude_corefiles/WString.cpp:125
    free(buffer);
     ff8:	0c 94 d1 22 	jmp	0x45a2	; 0x45a2 <free>
/home/huser/.arduino15/packages/MiniCore/hardware/avr/3.0.2/cores/MCUdude_corefiles/WString.cpp:126
}
     ffc:	08 95       	ret

00000ffe <setPeltierEnable(bool) [clone .constprop.22]>:
_Z16setPeltierEnableb.constprop.22():
/home/huser/Dev/TAD_Workspace/Projects/firmwares/OnlyCell/OnlyCell.ino:78
void setPeltierEnable(bool en)
{
  if(en){
    digitalWrite(PELTIER_EN_PIN, HIGH);
  }else{
    digitalWrite(PELTIER_EN_PIN, LOW);
     ffe:	60 e0       	ldi	r22, 0x00	; 0
    1000:	89 e1       	ldi	r24, 0x19	; 25
    1002:	0c 94 84 01 	jmp	0x308	; 0x308 <digitalWrite>

00001006 <Adafruit_MAX31865::readFault(max31865_fault_cycle_t) [clone .constprop.21]>:
_ZN17Adafruit_MAX318659readFaultE22max31865_fault_cycle_t.constprop.21():
/home/huser/Arduino/libraries/Adafruit_MAX31865_library/Adafruit_MAX31865.cpp:82
   MAX31865_FAULT_AUTO, MAX31865_FAULT_MANUAL_RUN, or
   MAX31865_FAULT_MANUAL_FINISH
    @return The raw unsigned 8-bit FAULT status register
*/
/**************************************************************************/
uint8_t Adafruit_MAX31865::readFault(max31865_fault_cycle_t fault_cycle) {
    1006:	cf 93       	push	r28
    1008:	df 93       	push	r29
    100a:	ec 01       	movw	r28, r24
/home/huser/Arduino/libraries/Adafruit_MAX31865_library/Adafruit_MAX31865.cpp:84
  if (fault_cycle) {
    uint8_t cfg_reg = readRegister8(MAX31865_CONFIG_REG);
    100c:	60 e0       	ldi	r22, 0x00	; 0
    100e:	0e 94 9d 06 	call	0xd3a	; 0xd3a <Adafruit_MAX31865::readRegister8(unsigned char)>
/home/huser/Arduino/libraries/Adafruit_MAX31865_library/Adafruit_MAX31865.cpp:85
    cfg_reg &= 0x11; // mask out wire and filter bits
    1012:	81 71       	andi	r24, 0x11	; 17
/home/huser/Arduino/libraries/Adafruit_MAX31865_library/Adafruit_MAX31865.cpp:88
    switch (fault_cycle) {
    case MAX31865_FAULT_AUTO:
      writeRegister8(MAX31865_CONFIG_REG, (cfg_reg | 0b10000100));
    1014:	48 2f       	mov	r20, r24
    1016:	44 68       	ori	r20, 0x84	; 132
    1018:	60 e0       	ldi	r22, 0x00	; 0
    101a:	ce 01       	movw	r24, r28
    101c:	0e 94 84 06 	call	0xd08	; 0xd08 <Adafruit_MAX31865::writeRegister8(unsigned char, unsigned char)>
/home/huser/Arduino/libraries/Adafruit_MAX31865_library/Adafruit_MAX31865.cpp:89
      delay(1);
    1020:	61 e0       	ldi	r22, 0x01	; 1
    1022:	70 e0       	ldi	r23, 0x00	; 0
    1024:	80 e0       	ldi	r24, 0x00	; 0
    1026:	90 e0       	ldi	r25, 0x00	; 0
    1028:	0e 94 7b 02 	call	0x4f6	; 0x4f6 <delay>
/home/huser/Arduino/libraries/Adafruit_MAX31865_library/Adafruit_MAX31865.cpp:102
    case MAX31865_FAULT_NONE:
    default:
      break;
    }
  }
  return readRegister8(MAX31865_FAULTSTAT_REG);
    102c:	67 e0       	ldi	r22, 0x07	; 7
    102e:	ce 01       	movw	r24, r28
/home/huser/Arduino/libraries/Adafruit_MAX31865_library/Adafruit_MAX31865.cpp:103
}
    1030:	df 91       	pop	r29
    1032:	cf 91       	pop	r28
/home/huser/Arduino/libraries/Adafruit_MAX31865_library/Adafruit_MAX31865.cpp:102
    case MAX31865_FAULT_NONE:
    default:
      break;
    }
  }
  return readRegister8(MAX31865_FAULTSTAT_REG);
    1034:	0c 94 9d 06 	jmp	0xd3a	; 0xd3a <Adafruit_MAX31865::readRegister8(unsigned char)>

00001038 <Print::write(char const*) [clone .part.2] [clone .constprop.50]>:
_ZN5Print5writeEPKc.part.2.constprop.50():
/home/huser/.arduino15/packages/MiniCore/hardware/avr/3.0.2/cores/MCUdude_corefiles/Print.h:54
    void clearWriteError() { setWriteError(0); }

    virtual size_t write(uint8_t) = 0;
    size_t write(const char *str) {
      if (str == NULL) return 0;
      return write((const uint8_t *)str, strlen(str));
    1038:	fc 01       	movw	r30, r24
    103a:	01 90       	ld	r0, Z+
    103c:	00 20       	and	r0, r0
    103e:	e9 f7       	brne	.-6      	; 0x103a <Print::write(char const*) [clone .part.2] [clone .constprop.50]+0x2>
    1040:	31 97       	sbiw	r30, 0x01	; 1
    1042:	af 01       	movw	r20, r30
    1044:	48 1b       	sub	r20, r24
    1046:	59 0b       	sbc	r21, r25
    1048:	bc 01       	movw	r22, r24
    104a:	8a e7       	ldi	r24, 0x7A	; 122
    104c:	94 e0       	ldi	r25, 0x04	; 4
    104e:	0c 94 ae 02 	jmp	0x55c	; 0x55c <Print::write(unsigned char const*, unsigned int)>

00001052 <Print::printNumber(unsigned long, unsigned char) [clone .constprop.38]>:
_ZN5Print11printNumberEmh.constprop.38():
/home/huser/.arduino15/packages/MiniCore/hardware/avr/3.0.2/cores/MCUdude_corefiles/Print.cpp:232
  return vfprintf_P(&f, (const char *)format, ap);
}

// Private Methods /////////////////////////////////////////////////////////////

size_t Print::printNumber(unsigned long n, uint8_t base)
    1052:	8f 92       	push	r8
    1054:	9f 92       	push	r9
    1056:	af 92       	push	r10
    1058:	bf 92       	push	r11
    105a:	0f 93       	push	r16
    105c:	1f 93       	push	r17
    105e:	cf 93       	push	r28
    1060:	df 93       	push	r29
    1062:	cd b7       	in	r28, 0x3d	; 61
    1064:	de b7       	in	r29, 0x3e	; 62
    1066:	a1 97       	sbiw	r28, 0x21	; 33
    1068:	0f b6       	in	r0, 0x3f	; 63
    106a:	f8 94       	cli
    106c:	de bf       	out	0x3e, r29	; 62
    106e:	0f be       	out	0x3f, r0	; 63
    1070:	cd bf       	out	0x3d, r28	; 61
/home/huser/.arduino15/packages/MiniCore/hardware/avr/3.0.2/cores/MCUdude_corefiles/Print.cpp:237
{
  char buf[8 * sizeof(long) + 1]; // Assumes 8-bit chars plus zero byte.
  char *str = &buf[sizeof(buf) - 1];

  *str = '\0';
    1072:	19 a2       	std	Y+33, r1	; 0x21
/home/huser/.arduino15/packages/MiniCore/hardware/avr/3.0.2/cores/MCUdude_corefiles/Print.cpp:240

  // prevent crash if called with base == 1
  if (base < 2) base = 10;
    1074:	42 30       	cpi	r20, 0x02	; 2
    1076:	08 f4       	brcc	.+2      	; 0x107a <Print::printNumber(unsigned long, unsigned char) [clone .constprop.38]+0x28>
    1078:	4a e0       	ldi	r20, 0x0A	; 10
    107a:	8e 01       	movw	r16, r28
    107c:	0f 5d       	subi	r16, 0xDF	; 223
    107e:	1f 4f       	sbci	r17, 0xFF	; 255
/home/huser/.arduino15/packages/MiniCore/hardware/avr/3.0.2/cores/MCUdude_corefiles/Print.cpp:243

  do {
    char c = n % base;
    1080:	84 2e       	mov	r8, r20
    1082:	91 2c       	mov	r9, r1
    1084:	b1 2c       	mov	r11, r1
    1086:	a1 2c       	mov	r10, r1
    1088:	a5 01       	movw	r20, r10
    108a:	94 01       	movw	r18, r8
    108c:	0e 94 f9 21 	call	0x43f2	; 0x43f2 <__udivmodsi4>
    1090:	e6 2f       	mov	r30, r22
/home/huser/.arduino15/packages/MiniCore/hardware/avr/3.0.2/cores/MCUdude_corefiles/Print.cpp:244
    n /= base;
    1092:	b9 01       	movw	r22, r18
    1094:	ca 01       	movw	r24, r20
/home/huser/.arduino15/packages/MiniCore/hardware/avr/3.0.2/cores/MCUdude_corefiles/Print.cpp:246

    *--str = c < 10 ? c + '0' : c + 'A' - 10;
    1096:	ea 30       	cpi	r30, 0x0A	; 10
    1098:	f4 f4       	brge	.+60     	; 0x10d6 <Print::printNumber(unsigned long, unsigned char) [clone .constprop.38]+0x84>
    109a:	e0 5d       	subi	r30, 0xD0	; 208
    109c:	d8 01       	movw	r26, r16
    109e:	ee 93       	st	-X, r30
    10a0:	8d 01       	movw	r16, r26
/home/huser/.arduino15/packages/MiniCore/hardware/avr/3.0.2/cores/MCUdude_corefiles/Print.cpp:247
  } while(n);
    10a2:	23 2b       	or	r18, r19
    10a4:	24 2b       	or	r18, r20
    10a6:	25 2b       	or	r18, r21
    10a8:	79 f7       	brne	.-34     	; 0x1088 <Print::printNumber(unsigned long, unsigned char) [clone .constprop.38]+0x36>
/home/huser/.arduino15/packages/MiniCore/hardware/avr/3.0.2/cores/MCUdude_corefiles/Print.h:53
    int getWriteError() { return write_error; }
    void clearWriteError() { setWriteError(0); }

    virtual size_t write(uint8_t) = 0;
    size_t write(const char *str) {
      if (str == NULL) return 0;
    10aa:	90 e0       	ldi	r25, 0x00	; 0
    10ac:	80 e0       	ldi	r24, 0x00	; 0
write():
    10ae:	10 97       	sbiw	r26, 0x00	; 0
    10b0:	19 f0       	breq	.+6      	; 0x10b8 <Print::printNumber(unsigned long, unsigned char) [clone .constprop.38]+0x66>
    10b2:	cd 01       	movw	r24, r26
    10b4:	0e 94 1c 08 	call	0x1038	; 0x1038 <Print::write(char const*) [clone .part.2] [clone .constprop.50]>
_ZN5Print11printNumberEmh.constprop.38():
/home/huser/.arduino15/packages/MiniCore/hardware/avr/3.0.2/cores/MCUdude_corefiles/Print.cpp:250

  return write(str);
}
    10b8:	a1 96       	adiw	r28, 0x21	; 33
    10ba:	0f b6       	in	r0, 0x3f	; 63
    10bc:	f8 94       	cli
    10be:	de bf       	out	0x3e, r29	; 62
    10c0:	0f be       	out	0x3f, r0	; 63
    10c2:	cd bf       	out	0x3d, r28	; 61
    10c4:	df 91       	pop	r29
    10c6:	cf 91       	pop	r28
    10c8:	1f 91       	pop	r17
    10ca:	0f 91       	pop	r16
    10cc:	bf 90       	pop	r11
    10ce:	af 90       	pop	r10
    10d0:	9f 90       	pop	r9
    10d2:	8f 90       	pop	r8
    10d4:	08 95       	ret
/home/huser/.arduino15/packages/MiniCore/hardware/avr/3.0.2/cores/MCUdude_corefiles/Print.cpp:246

  do {
    char c = n % base;
    n /= base;

    *--str = c < 10 ? c + '0' : c + 'A' - 10;
    10d6:	e9 5c       	subi	r30, 0xC9	; 201
    10d8:	e1 cf       	rjmp	.-62     	; 0x109c <Print::printNumber(unsigned long, unsigned char) [clone .constprop.38]+0x4a>

000010da <Print::print(long, int) [clone .part.3] [clone .constprop.36]>:
_ZN5Print5printEli.part.3.constprop.36():
/home/huser/.arduino15/packages/MiniCore/hardware/avr/3.0.2/cores/MCUdude_corefiles/Print.cpp:87
size_t Print::print(unsigned int n, int base)
{
  return print((unsigned long) n, base);
}

size_t Print::print(long n, int base)
    10da:	cf 92       	push	r12
    10dc:	df 92       	push	r13
    10de:	ef 92       	push	r14
    10e0:	ff 92       	push	r15
    10e2:	cf 93       	push	r28
    10e4:	df 93       	push	r29
    10e6:	6b 01       	movw	r12, r22
    10e8:	7c 01       	movw	r14, r24
print():
/home/huser/.arduino15/packages/MiniCore/hardware/avr/3.0.2/cores/MCUdude_corefiles/Print.cpp:69
  return write(str);
}

size_t Print::print(char c)
{
  return write(c);
    10ea:	6d e2       	ldi	r22, 0x2D	; 45
    10ec:	8a e7       	ldi	r24, 0x7A	; 122
    10ee:	94 e0       	ldi	r25, 0x04	; 4
    10f0:	0e 94 84 03 	call	0x708	; 0x708 <HardwareSerial::write(unsigned char)>
    10f4:	ec 01       	movw	r28, r24
_ZN5Print5printEli.part.3.constprop.36():
/home/huser/.arduino15/packages/MiniCore/hardware/avr/3.0.2/cores/MCUdude_corefiles/Print.cpp:94
  if (base == 0) {
    return write(n);
  } else if (base == 10) {
    if (n < 0) {
      int t = print('-');
      n = -n;
    10f6:	66 27       	eor	r22, r22
    10f8:	77 27       	eor	r23, r23
    10fa:	cb 01       	movw	r24, r22
    10fc:	6c 19       	sub	r22, r12
    10fe:	7d 09       	sbc	r23, r13
    1100:	8e 09       	sbc	r24, r14
    1102:	9f 09       	sbc	r25, r15
/home/huser/.arduino15/packages/MiniCore/hardware/avr/3.0.2/cores/MCUdude_corefiles/Print.cpp:95
      return printNumber(n, 10) + t;
    1104:	4a e0       	ldi	r20, 0x0A	; 10
    1106:	0e 94 29 08 	call	0x1052	; 0x1052 <Print::printNumber(unsigned long, unsigned char) [clone .constprop.38]>
/home/huser/.arduino15/packages/MiniCore/hardware/avr/3.0.2/cores/MCUdude_corefiles/Print.cpp:101
    }
    return printNumber(n, 10);
  } else {
    return printNumber(n, base);
  }
}
    110a:	8c 0f       	add	r24, r28
    110c:	9d 1f       	adc	r25, r29
    110e:	df 91       	pop	r29
    1110:	cf 91       	pop	r28
    1112:	ff 90       	pop	r15
    1114:	ef 90       	pop	r14
    1116:	df 90       	pop	r13
    1118:	cf 90       	pop	r12
    111a:	08 95       	ret

0000111c <Print::print(int, int) [clone .constprop.34]>:
_ZN5Print5printEii.constprop.34():
/home/huser/.arduino15/packages/MiniCore/hardware/avr/3.0.2/cores/MCUdude_corefiles/Print.cpp:79
  return print((unsigned long) b, base);
}

size_t Print::print(int n, int base)
{
  return print((long) n, base);
    111c:	bc 01       	movw	r22, r24
    111e:	99 0f       	add	r25, r25
    1120:	88 0b       	sbc	r24, r24
    1122:	99 0b       	sbc	r25, r25
print():
/home/huser/.arduino15/packages/MiniCore/hardware/avr/3.0.2/cores/MCUdude_corefiles/Print.cpp:92
size_t Print::print(long n, int base)
{
  if (base == 0) {
    return write(n);
  } else if (base == 10) {
    if (n < 0) {
    1124:	97 fd       	sbrc	r25, 7
    1126:	0c 94 6d 08 	jmp	0x10da	; 0x10da <Print::print(long, int) [clone .part.3] [clone .constprop.36]>
/home/huser/.arduino15/packages/MiniCore/hardware/avr/3.0.2/cores/MCUdude_corefiles/Print.cpp:97
      int t = print('-');
      n = -n;
      return printNumber(n, 10) + t;
    }
    return printNumber(n, 10);
    112a:	4a e0       	ldi	r20, 0x0A	; 10
    112c:	0c 94 29 08 	jmp	0x1052	; 0x1052 <Print::printNumber(unsigned long, unsigned char) [clone .constprop.38]>

00001130 <Print::println(char const*) [clone .constprop.47]>:
_ZN5Print7printlnEPKc.constprop.47():
/home/huser/.arduino15/packages/MiniCore/hardware/avr/3.0.2/cores/MCUdude_corefiles/Print.cpp:138
  size_t n = print(s);
  n += println();
  return n;
}

size_t Print::println(const char c[])
    1130:	cf 93       	push	r28
    1132:	df 93       	push	r29
write():
    1134:	0e 94 1c 08 	call	0x1038	; 0x1038 <Print::write(char const*) [clone .part.2] [clone .constprop.50]>
    1138:	ec 01       	movw	r28, r24
    113a:	86 e3       	ldi	r24, 0x36	; 54
    113c:	91 e0       	ldi	r25, 0x01	; 1
    113e:	0e 94 1c 08 	call	0x1038	; 0x1038 <Print::write(char const*) [clone .part.2] [clone .constprop.50]>
_ZN5Print7printlnEPKc.constprop.47():
/home/huser/.arduino15/packages/MiniCore/hardware/avr/3.0.2/cores/MCUdude_corefiles/Print.cpp:143
{
  size_t n = print(c);
  n += println();
  return n;
}
    1142:	8c 0f       	add	r24, r28
    1144:	9d 1f       	adc	r25, r29
    1146:	df 91       	pop	r29
    1148:	cf 91       	pop	r28
    114a:	08 95       	ret

0000114c <setPeltierInCoolingMode()>:
_Z23setPeltierInCoolingModev():
/home/huser/Dev/TAD_Workspace/Projects/firmwares/OnlyCell/OnlyCell.ino:67
  digitalWrite(PELTIER_SWITCH_2_PIN, HIGH);
}

void setPeltierInCoolingMode()
{
  Serial.println("Peltier is going in Cooling mode...");
    114c:	89 e3       	ldi	r24, 0x39	; 57
    114e:	91 e0       	ldi	r25, 0x01	; 1
    1150:	0e 94 98 08 	call	0x1130	; 0x1130 <Print::println(char const*) [clone .constprop.47]>
/home/huser/Dev/TAD_Workspace/Projects/firmwares/OnlyCell/OnlyCell.ino:68
  setPeltierEnable(false);
    1154:	0e 94 ff 07 	call	0xffe	; 0xffe <setPeltierEnable(bool) [clone .constprop.22]>
/home/huser/Dev/TAD_Workspace/Projects/firmwares/OnlyCell/OnlyCell.ino:69
  digitalWrite(PELTIER_SWITCH_1_PIN, LOW);
    1158:	60 e0       	ldi	r22, 0x00	; 0
    115a:	8a e0       	ldi	r24, 0x0A	; 10
    115c:	0e 94 84 01 	call	0x308	; 0x308 <digitalWrite>
/home/huser/Dev/TAD_Workspace/Projects/firmwares/OnlyCell/OnlyCell.ino:70
  digitalWrite(PELTIER_SWITCH_2_PIN, HIGH);
    1160:	61 e0       	ldi	r22, 0x01	; 1
    1162:	83 e1       	ldi	r24, 0x13	; 19
    1164:	0c 94 84 01 	jmp	0x308	; 0x308 <digitalWrite>

00001168 <Print::println(int, int) [clone .constprop.33]>:
_ZN5Print7printlnEii.constprop.33():
/home/huser/.arduino15/packages/MiniCore/hardware/avr/3.0.2/cores/MCUdude_corefiles/Print.cpp:159
  size_t n = print(b, base);
  n += println();
  return n;
}

size_t Print::println(int num, int base)
    1168:	cf 93       	push	r28
    116a:	df 93       	push	r29
print():
/home/huser/.arduino15/packages/MiniCore/hardware/avr/3.0.2/cores/MCUdude_corefiles/Print.cpp:79
  return print((unsigned long) b, base);
}

size_t Print::print(int n, int base)
{
  return print((long) n, base);
    116c:	bc 01       	movw	r22, r24
    116e:	99 0f       	add	r25, r25
    1170:	88 0b       	sbc	r24, r24
    1172:	99 0b       	sbc	r25, r25
/home/huser/.arduino15/packages/MiniCore/hardware/avr/3.0.2/cores/MCUdude_corefiles/Print.cpp:92
size_t Print::print(long n, int base)
{
  if (base == 0) {
    return write(n);
  } else if (base == 10) {
    if (n < 0) {
    1174:	97 ff       	sbrs	r25, 7
    1176:	0c c0       	rjmp	.+24     	; 0x1190 <Print::println(int, int) [clone .constprop.33]+0x28>
    1178:	0e 94 6d 08 	call	0x10da	; 0x10da <Print::print(long, int) [clone .part.3] [clone .constprop.36]>
/home/huser/.arduino15/packages/MiniCore/hardware/avr/3.0.2/cores/MCUdude_corefiles/Print.cpp:97
      int t = print('-');
      n = -n;
      return printNumber(n, 10) + t;
    }
    return printNumber(n, 10);
    117c:	ec 01       	movw	r28, r24
write():
    117e:	86 e3       	ldi	r24, 0x36	; 54
    1180:	91 e0       	ldi	r25, 0x01	; 1
    1182:	0e 94 1c 08 	call	0x1038	; 0x1038 <Print::write(char const*) [clone .part.2] [clone .constprop.50]>
_ZN5Print7printlnEii.constprop.33():
/home/huser/.arduino15/packages/MiniCore/hardware/avr/3.0.2/cores/MCUdude_corefiles/Print.cpp:164
size_t Print::println(int num, int base)
{
  size_t n = print(num, base);
  n += println();
  return n;
}
    1186:	8c 0f       	add	r24, r28
    1188:	9d 1f       	adc	r25, r29
    118a:	df 91       	pop	r29
    118c:	cf 91       	pop	r28
    118e:	08 95       	ret
print():
/home/huser/.arduino15/packages/MiniCore/hardware/avr/3.0.2/cores/MCUdude_corefiles/Print.cpp:97
    if (n < 0) {
      int t = print('-');
      n = -n;
      return printNumber(n, 10) + t;
    }
    return printNumber(n, 10);
    1190:	4a e0       	ldi	r20, 0x0A	; 10
    1192:	0e 94 29 08 	call	0x1052	; 0x1052 <Print::printNumber(unsigned long, unsigned char) [clone .constprop.38]>
    1196:	f2 cf       	rjmp	.-28     	; 0x117c <Print::println(int, int) [clone .constprop.33]+0x14>

00001198 <Print::printFloat(double, unsigned char) [clone .constprop.28]>:
_ZN5Print10printFloatEdh.constprop.28():
/home/huser/.arduino15/packages/MiniCore/hardware/avr/3.0.2/cores/MCUdude_corefiles/Print.cpp:252
  } while(n);

  return write(str);
}

size_t Print::printFloat(double number, uint8_t digits) 
    1198:	4f 92       	push	r4
    119a:	5f 92       	push	r5
    119c:	6f 92       	push	r6
    119e:	7f 92       	push	r7
    11a0:	8f 92       	push	r8
    11a2:	9f 92       	push	r9
    11a4:	af 92       	push	r10
    11a6:	bf 92       	push	r11
    11a8:	cf 92       	push	r12
    11aa:	df 92       	push	r13
    11ac:	ef 92       	push	r14
    11ae:	ff 92       	push	r15
    11b0:	0f 93       	push	r16
    11b2:	1f 93       	push	r17
    11b4:	cf 93       	push	r28
    11b6:	6b 01       	movw	r12, r22
    11b8:	7c 01       	movw	r14, r24
    11ba:	74 2e       	mov	r7, r20
/home/huser/.arduino15/packages/MiniCore/hardware/avr/3.0.2/cores/MCUdude_corefiles/Print.cpp:256
{ 
  size_t n = 0;
  
  if (isnan(number)) return print("nan");
    11bc:	ac 01       	movw	r20, r24
    11be:	9b 01       	movw	r18, r22
    11c0:	0e 94 cb 21 	call	0x4396	; 0x4396 <__unordsf2>
    11c4:	88 23       	and	r24, r24
    11c6:	99 f0       	breq	.+38     	; 0x11ee <Print::printFloat(double, unsigned char) [clone .constprop.28]+0x56>
write():
    11c8:	8d e5       	ldi	r24, 0x5D	; 93
    11ca:	91 e0       	ldi	r25, 0x01	; 1
_ZN5Print10printFloatEdh.constprop.28():
/home/huser/.arduino15/packages/MiniCore/hardware/avr/3.0.2/cores/MCUdude_corefiles/Print.cpp:295
    n += print(toPrint);
    remainder -= toPrint; 
  } 
  
  return n;
}
    11cc:	cf 91       	pop	r28
    11ce:	1f 91       	pop	r17
    11d0:	0f 91       	pop	r16
    11d2:	ff 90       	pop	r15
    11d4:	ef 90       	pop	r14
    11d6:	df 90       	pop	r13
    11d8:	cf 90       	pop	r12
    11da:	bf 90       	pop	r11
    11dc:	af 90       	pop	r10
    11de:	9f 90       	pop	r9
    11e0:	8f 90       	pop	r8
    11e2:	7f 90       	pop	r7
    11e4:	6f 90       	pop	r6
    11e6:	5f 90       	pop	r5
    11e8:	4f 90       	pop	r4
write():
    11ea:	0c 94 1c 08 	jmp	0x1038	; 0x1038 <Print::write(char const*) [clone .part.2] [clone .constprop.50]>
_ZN5Print10printFloatEdh.constprop.28():
/home/huser/.arduino15/packages/MiniCore/hardware/avr/3.0.2/cores/MCUdude_corefiles/Print.cpp:257
size_t Print::printFloat(double number, uint8_t digits) 
{ 
  size_t n = 0;
  
  if (isnan(number)) return print("nan");
  if (isinf(number)) return print("inf");
    11ee:	46 01       	movw	r8, r12
    11f0:	57 01       	movw	r10, r14
    11f2:	e8 94       	clt
    11f4:	b7 f8       	bld	r11, 7
    11f6:	2f ef       	ldi	r18, 0xFF	; 255
    11f8:	3f ef       	ldi	r19, 0xFF	; 255
    11fa:	4f e7       	ldi	r20, 0x7F	; 127
    11fc:	5f e7       	ldi	r21, 0x7F	; 127
    11fe:	c5 01       	movw	r24, r10
    1200:	b4 01       	movw	r22, r8
    1202:	0e 94 cb 21 	call	0x4396	; 0x4396 <__unordsf2>
    1206:	81 11       	cpse	r24, r1
    1208:	0d c0       	rjmp	.+26     	; 0x1224 <Print::printFloat(double, unsigned char) [clone .constprop.28]+0x8c>
    120a:	2f ef       	ldi	r18, 0xFF	; 255
    120c:	3f ef       	ldi	r19, 0xFF	; 255
    120e:	4f e7       	ldi	r20, 0x7F	; 127
    1210:	5f e7       	ldi	r21, 0x7F	; 127
    1212:	c5 01       	movw	r24, r10
    1214:	b4 01       	movw	r22, r8
    1216:	0e 94 f3 1e 	call	0x3de6	; 0x3de6 <__cmpsf2>
    121a:	18 16       	cp	r1, r24
    121c:	1c f4       	brge	.+6      	; 0x1224 <Print::printFloat(double, unsigned char) [clone .constprop.28]+0x8c>
write():
    121e:	81 e6       	ldi	r24, 0x61	; 97
    1220:	91 e0       	ldi	r25, 0x01	; 1
    1222:	d4 cf       	rjmp	.-88     	; 0x11cc <Print::printFloat(double, unsigned char) [clone .constprop.28]+0x34>
_ZN5Print10printFloatEdh.constprop.28():
/home/huser/.arduino15/packages/MiniCore/hardware/avr/3.0.2/cores/MCUdude_corefiles/Print.cpp:258
  if (number > 4294967040.0) return print ("ovf");  // constant determined empirically
    1224:	2f ef       	ldi	r18, 0xFF	; 255
    1226:	3f ef       	ldi	r19, 0xFF	; 255
    1228:	4f e7       	ldi	r20, 0x7F	; 127
    122a:	5f e4       	ldi	r21, 0x4F	; 79
    122c:	c7 01       	movw	r24, r14
    122e:	b6 01       	movw	r22, r12
    1230:	0e 94 80 21 	call	0x4300	; 0x4300 <__gesf2>
    1234:	18 16       	cp	r1, r24
    1236:	1c f4       	brge	.+6      	; 0x123e <Print::printFloat(double, unsigned char) [clone .constprop.28]+0xa6>
write():
    1238:	85 e6       	ldi	r24, 0x65	; 101
    123a:	91 e0       	ldi	r25, 0x01	; 1
    123c:	c7 cf       	rjmp	.-114    	; 0x11cc <Print::printFloat(double, unsigned char) [clone .constprop.28]+0x34>
_ZN5Print10printFloatEdh.constprop.28():
/home/huser/.arduino15/packages/MiniCore/hardware/avr/3.0.2/cores/MCUdude_corefiles/Print.cpp:259
  if (number <-4294967040.0) return print ("ovf");  // constant determined empirically
    123e:	2f ef       	ldi	r18, 0xFF	; 255
    1240:	3f ef       	ldi	r19, 0xFF	; 255
    1242:	4f e7       	ldi	r20, 0x7F	; 127
    1244:	5f ec       	ldi	r21, 0xCF	; 207
    1246:	c7 01       	movw	r24, r14
    1248:	b6 01       	movw	r22, r12
    124a:	0e 94 f3 1e 	call	0x3de6	; 0x3de6 <__cmpsf2>
    124e:	87 fd       	sbrc	r24, 7
    1250:	f3 cf       	rjmp	.-26     	; 0x1238 <Print::printFloat(double, unsigned char) [clone .constprop.28]+0xa0>
/home/huser/.arduino15/packages/MiniCore/hardware/avr/3.0.2/cores/MCUdude_corefiles/Print.cpp:262
  
  // Handle negative numbers
  if (number < 0.0)
    1252:	20 e0       	ldi	r18, 0x00	; 0
    1254:	30 e0       	ldi	r19, 0x00	; 0
    1256:	a9 01       	movw	r20, r18
    1258:	c7 01       	movw	r24, r14
    125a:	b6 01       	movw	r22, r12
    125c:	0e 94 f3 1e 	call	0x3de6	; 0x3de6 <__cmpsf2>
/home/huser/.arduino15/packages/MiniCore/hardware/avr/3.0.2/cores/MCUdude_corefiles/Print.cpp:254
  return write(str);
}

size_t Print::printFloat(double number, uint8_t digits) 
{ 
  size_t n = 0;
    1260:	10 e0       	ldi	r17, 0x00	; 0
    1262:	00 e0       	ldi	r16, 0x00	; 0
/home/huser/.arduino15/packages/MiniCore/hardware/avr/3.0.2/cores/MCUdude_corefiles/Print.cpp:262
  if (isinf(number)) return print("inf");
  if (number > 4294967040.0) return print ("ovf");  // constant determined empirically
  if (number <-4294967040.0) return print ("ovf");  // constant determined empirically
  
  // Handle negative numbers
  if (number < 0.0)
    1264:	87 ff       	sbrs	r24, 7
    1266:	0a c0       	rjmp	.+20     	; 0x127c <Print::printFloat(double, unsigned char) [clone .constprop.28]+0xe4>
print():
/home/huser/.arduino15/packages/MiniCore/hardware/avr/3.0.2/cores/MCUdude_corefiles/Print.cpp:69
  return write(str);
}

size_t Print::print(char c)
{
  return write(c);
    1268:	6d e2       	ldi	r22, 0x2D	; 45
    126a:	8a e7       	ldi	r24, 0x7A	; 122
    126c:	94 e0       	ldi	r25, 0x04	; 4
    126e:	0e 94 84 03 	call	0x708	; 0x708 <HardwareSerial::write(unsigned char)>
    1272:	8c 01       	movw	r16, r24
_ZN5Print10printFloatEdh.constprop.28():
/home/huser/.arduino15/packages/MiniCore/hardware/avr/3.0.2/cores/MCUdude_corefiles/Print.cpp:265
  
  // Handle negative numbers
  if (number < 0.0)
  {
     n += print('-');
     number = -number;
    1274:	f7 fa       	bst	r15, 7
    1276:	f0 94       	com	r15
    1278:	f7 f8       	bld	r15, 7
    127a:	f0 94       	com	r15
/home/huser/.arduino15/packages/MiniCore/hardware/avr/3.0.2/cores/MCUdude_corefiles/Print.cpp:270
  }

  // Round correctly so that print(1.999, 2) prints as "2.00"
  double rounding = 0.5;
  for (uint8_t i=0; i<digits; ++i)
    127c:	c0 e0       	ldi	r28, 0x00	; 0
/home/huser/.arduino15/packages/MiniCore/hardware/avr/3.0.2/cores/MCUdude_corefiles/Print.cpp:269
     n += print('-');
     number = -number;
  }

  // Round correctly so that print(1.999, 2) prints as "2.00"
  double rounding = 0.5;
    127e:	60 e0       	ldi	r22, 0x00	; 0
    1280:	70 e0       	ldi	r23, 0x00	; 0
    1282:	80 e0       	ldi	r24, 0x00	; 0
    1284:	9f e3       	ldi	r25, 0x3F	; 63
/home/huser/.arduino15/packages/MiniCore/hardware/avr/3.0.2/cores/MCUdude_corefiles/Print.cpp:270
  for (uint8_t i=0; i<digits; ++i)
    1286:	7c 16       	cp	r7, r28
    1288:	41 f0       	breq	.+16     	; 0x129a <Print::printFloat(double, unsigned char) [clone .constprop.28]+0x102>
/home/huser/.arduino15/packages/MiniCore/hardware/avr/3.0.2/cores/MCUdude_corefiles/Print.cpp:271
    rounding /= 10.0;
    128a:	20 e0       	ldi	r18, 0x00	; 0
    128c:	30 e0       	ldi	r19, 0x00	; 0
    128e:	40 e2       	ldi	r20, 0x20	; 32
    1290:	51 e4       	ldi	r21, 0x41	; 65
    1292:	0e 94 d8 20 	call	0x41b0	; 0x41b0 <__divsf3>
/home/huser/.arduino15/packages/MiniCore/hardware/avr/3.0.2/cores/MCUdude_corefiles/Print.cpp:270
     number = -number;
  }

  // Round correctly so that print(1.999, 2) prints as "2.00"
  double rounding = 0.5;
  for (uint8_t i=0; i<digits; ++i)
    1296:	cf 5f       	subi	r28, 0xFF	; 255
    1298:	f6 cf       	rjmp	.-20     	; 0x1286 <Print::printFloat(double, unsigned char) [clone .constprop.28]+0xee>
/home/huser/.arduino15/packages/MiniCore/hardware/avr/3.0.2/cores/MCUdude_corefiles/Print.cpp:273
    rounding /= 10.0;
  
  number += rounding;
    129a:	a7 01       	movw	r20, r14
    129c:	96 01       	movw	r18, r12
    129e:	0e 94 6c 20 	call	0x40d8	; 0x40d8 <__addsf3>
    12a2:	2b 01       	movw	r4, r22
    12a4:	3c 01       	movw	r6, r24
/home/huser/.arduino15/packages/MiniCore/hardware/avr/3.0.2/cores/MCUdude_corefiles/Print.cpp:276

  // Extract the integer part of the number and print it
  unsigned long int_part = (unsigned long)number;
    12a6:	0e 94 51 21 	call	0x42a2	; 0x42a2 <__fixunssfsi>
    12aa:	4b 01       	movw	r8, r22
    12ac:	5c 01       	movw	r10, r24
print():
/home/huser/.arduino15/packages/MiniCore/hardware/avr/3.0.2/cores/MCUdude_corefiles/Print.cpp:106
}

size_t Print::print(unsigned long n, int base)
{
  if (base == 0) return write(n);
  else return printNumber(n, base);
    12ae:	4a e0       	ldi	r20, 0x0A	; 10
    12b0:	0e 94 29 08 	call	0x1052	; 0x1052 <Print::printNumber(unsigned long, unsigned char) [clone .constprop.38]>
_ZN5Print10printFloatEdh.constprop.28():
/home/huser/.arduino15/packages/MiniCore/hardware/avr/3.0.2/cores/MCUdude_corefiles/Print.cpp:278
  number += rounding;

  // Extract the integer part of the number and print it
  unsigned long int_part = (unsigned long)number;
  double remainder = number - (double)int_part;
  n += print(int_part);
    12b4:	7c 01       	movw	r14, r24
    12b6:	e0 0e       	add	r14, r16
    12b8:	f1 1e       	adc	r15, r17
/home/huser/.arduino15/packages/MiniCore/hardware/avr/3.0.2/cores/MCUdude_corefiles/Print.cpp:281

  // Print the decimal point, but only if there are digits beyond
  if (digits > 0) {
    12ba:	cc 23       	and	r28, r28
    12bc:	c1 f1       	breq	.+112    	; 0x132e <Print::printFloat(double, unsigned char) [clone .constprop.28]+0x196>
/home/huser/.arduino15/packages/MiniCore/hardware/avr/3.0.2/cores/MCUdude_corefiles/Print.cpp:277
  
  number += rounding;

  // Extract the integer part of the number and print it
  unsigned long int_part = (unsigned long)number;
  double remainder = number - (double)int_part;
    12be:	c5 01       	movw	r24, r10
    12c0:	b4 01       	movw	r22, r8
    12c2:	0e 94 f8 1e 	call	0x3df0	; 0x3df0 <__floatunsisf>
    12c6:	9b 01       	movw	r18, r22
    12c8:	ac 01       	movw	r20, r24
    12ca:	c3 01       	movw	r24, r6
    12cc:	b2 01       	movw	r22, r4
    12ce:	0e 94 6b 20 	call	0x40d6	; 0x40d6 <__subsf3>
    12d2:	4b 01       	movw	r8, r22
    12d4:	5c 01       	movw	r10, r24
print():
/home/huser/.arduino15/packages/MiniCore/hardware/avr/3.0.2/cores/MCUdude_corefiles/Print.cpp:69
  return write(str);
}

size_t Print::print(char c)
{
  return write(c);
    12d6:	6e e2       	ldi	r22, 0x2E	; 46
    12d8:	8a e7       	ldi	r24, 0x7A	; 122
    12da:	94 e0       	ldi	r25, 0x04	; 4
    12dc:	0e 94 84 03 	call	0x708	; 0x708 <HardwareSerial::write(unsigned char)>
_ZN5Print10printFloatEdh.constprop.28():
/home/huser/.arduino15/packages/MiniCore/hardware/avr/3.0.2/cores/MCUdude_corefiles/Print.cpp:282
  double remainder = number - (double)int_part;
  n += print(int_part);

  // Print the decimal point, but only if there are digits beyond
  if (digits > 0) {
    n += print('.'); 
    12e0:	e8 0e       	add	r14, r24
    12e2:	f9 1e       	adc	r15, r25
/home/huser/.arduino15/packages/MiniCore/hardware/avr/3.0.2/cores/MCUdude_corefiles/Print.cpp:286
  }

  // Extract digits from the remainder one at a time
  while (digits-- > 0)
    12e4:	c1 50       	subi	r28, 0x01	; 1
    12e6:	18 f1       	brcs	.+70     	; 0x132e <Print::printFloat(double, unsigned char) [clone .constprop.28]+0x196>
/home/huser/.arduino15/packages/MiniCore/hardware/avr/3.0.2/cores/MCUdude_corefiles/Print.cpp:288
  {
    remainder *= 10.0;
    12e8:	20 e0       	ldi	r18, 0x00	; 0
    12ea:	30 e0       	ldi	r19, 0x00	; 0
    12ec:	40 e2       	ldi	r20, 0x20	; 32
    12ee:	51 e4       	ldi	r21, 0x41	; 65
    12f0:	c5 01       	movw	r24, r10
    12f2:	b4 01       	movw	r22, r8
    12f4:	0e 94 59 1f 	call	0x3eb2	; 0x3eb2 <__mulsf3>
    12f8:	2b 01       	movw	r4, r22
    12fa:	3c 01       	movw	r6, r24
/home/huser/.arduino15/packages/MiniCore/hardware/avr/3.0.2/cores/MCUdude_corefiles/Print.cpp:289
    unsigned int toPrint = (unsigned int)(remainder);
    12fc:	0e 94 51 21 	call	0x42a2	; 0x42a2 <__fixunssfsi>
print():
/home/huser/.arduino15/packages/MiniCore/hardware/avr/3.0.2/cores/MCUdude_corefiles/Print.cpp:84
  return print((long) n, base);
}

size_t Print::print(unsigned int n, int base)
{
  return print((unsigned long) n, base);
    1300:	4b 01       	movw	r8, r22
    1302:	b1 2c       	mov	r11, r1
    1304:	a1 2c       	mov	r10, r1
/home/huser/.arduino15/packages/MiniCore/hardware/avr/3.0.2/cores/MCUdude_corefiles/Print.cpp:106
}

size_t Print::print(unsigned long n, int base)
{
  if (base == 0) return write(n);
  else return printNumber(n, base);
    1306:	4a e0       	ldi	r20, 0x0A	; 10
    1308:	c5 01       	movw	r24, r10
    130a:	b4 01       	movw	r22, r8
    130c:	0e 94 29 08 	call	0x1052	; 0x1052 <Print::printNumber(unsigned long, unsigned char) [clone .constprop.38]>
_ZN5Print10printFloatEdh.constprop.28():
/home/huser/.arduino15/packages/MiniCore/hardware/avr/3.0.2/cores/MCUdude_corefiles/Print.cpp:290
  // Extract digits from the remainder one at a time
  while (digits-- > 0)
  {
    remainder *= 10.0;
    unsigned int toPrint = (unsigned int)(remainder);
    n += print(toPrint);
    1310:	e8 0e       	add	r14, r24
    1312:	f9 1e       	adc	r15, r25
/home/huser/.arduino15/packages/MiniCore/hardware/avr/3.0.2/cores/MCUdude_corefiles/Print.cpp:291
    remainder -= toPrint; 
    1314:	c5 01       	movw	r24, r10
    1316:	b4 01       	movw	r22, r8
    1318:	0e 94 f8 1e 	call	0x3df0	; 0x3df0 <__floatunsisf>
    131c:	9b 01       	movw	r18, r22
    131e:	ac 01       	movw	r20, r24
    1320:	c3 01       	movw	r24, r6
    1322:	b2 01       	movw	r22, r4
    1324:	0e 94 6b 20 	call	0x40d6	; 0x40d6 <__subsf3>
    1328:	4b 01       	movw	r8, r22
    132a:	5c 01       	movw	r10, r24
    132c:	db cf       	rjmp	.-74     	; 0x12e4 <Print::printFloat(double, unsigned char) [clone .constprop.28]+0x14c>
/home/huser/.arduino15/packages/MiniCore/hardware/avr/3.0.2/cores/MCUdude_corefiles/Print.cpp:295
  } 
  
  return n;
}
    132e:	c7 01       	movw	r24, r14
    1330:	cf 91       	pop	r28
    1332:	1f 91       	pop	r17
    1334:	0f 91       	pop	r16
    1336:	ff 90       	pop	r15
    1338:	ef 90       	pop	r14
    133a:	df 90       	pop	r13
    133c:	cf 90       	pop	r12
    133e:	bf 90       	pop	r11
    1340:	af 90       	pop	r10
    1342:	9f 90       	pop	r9
    1344:	8f 90       	pop	r8
    1346:	7f 90       	pop	r7
    1348:	6f 90       	pop	r6
    134a:	5f 90       	pop	r5
    134c:	4f 90       	pop	r4
    134e:	08 95       	ret

00001350 <String::indexOf(char, unsigned int) const [clone .constprop.41]>:
_ZNK6String7indexOfEcj.constprop.41():
/home/huser/.arduino15/packages/MiniCore/hardware/avr/3.0.2/cores/MCUdude_corefiles/WString.cpp:560
int String::indexOf(char c) const
{
  return indexOf(c, 0);
}

int String::indexOf( char ch, unsigned int fromIndex ) const
    1350:	cf 93       	push	r28
    1352:	df 93       	push	r29
/home/huser/.arduino15/packages/MiniCore/hardware/avr/3.0.2/cores/MCUdude_corefiles/WString.cpp:562
{
  if (fromIndex >= len) return -1;
    1354:	fc 01       	movw	r30, r24
    1356:	24 81       	ldd	r18, Z+4	; 0x04
    1358:	35 81       	ldd	r19, Z+5	; 0x05
    135a:	62 17       	cp	r22, r18
    135c:	73 07       	cpc	r23, r19
    135e:	88 f4       	brcc	.+34     	; 0x1382 <String::indexOf(char, unsigned int) const [clone .constprop.41]+0x32>
    1360:	9b 01       	movw	r18, r22
/home/huser/.arduino15/packages/MiniCore/hardware/avr/3.0.2/cores/MCUdude_corefiles/WString.cpp:563
  const char* temp = strchr(buffer + fromIndex, ch);
    1362:	c0 81       	ld	r28, Z
    1364:	d1 81       	ldd	r29, Z+1	; 0x01
    1366:	63 e2       	ldi	r22, 0x23	; 35
    1368:	70 e0       	ldi	r23, 0x00	; 0
    136a:	ce 01       	movw	r24, r28
    136c:	82 0f       	add	r24, r18
    136e:	93 1f       	adc	r25, r19
    1370:	0e 94 20 24 	call	0x4840	; 0x4840 <strchr>
/home/huser/.arduino15/packages/MiniCore/hardware/avr/3.0.2/cores/MCUdude_corefiles/WString.cpp:564
  if (temp == NULL) return -1;
    1374:	00 97       	sbiw	r24, 0x00	; 0
    1376:	29 f0       	breq	.+10     	; 0x1382 <String::indexOf(char, unsigned int) const [clone .constprop.41]+0x32>
/home/huser/.arduino15/packages/MiniCore/hardware/avr/3.0.2/cores/MCUdude_corefiles/WString.cpp:565
  return temp - buffer;
    1378:	8c 1b       	sub	r24, r28
    137a:	9d 0b       	sbc	r25, r29
/home/huser/.arduino15/packages/MiniCore/hardware/avr/3.0.2/cores/MCUdude_corefiles/WString.cpp:566
}
    137c:	df 91       	pop	r29
    137e:	cf 91       	pop	r28
    1380:	08 95       	ret
/home/huser/.arduino15/packages/MiniCore/hardware/avr/3.0.2/cores/MCUdude_corefiles/WString.cpp:562
  return indexOf(c, 0);
}

int String::indexOf( char ch, unsigned int fromIndex ) const
{
  if (fromIndex >= len) return -1;
    1382:	8f ef       	ldi	r24, 0xFF	; 255
    1384:	9f ef       	ldi	r25, 0xFF	; 255
    1386:	fa cf       	rjmp	.-12     	; 0x137c <String::indexOf(char, unsigned int) const [clone .constprop.41]+0x2c>

00001388 <Adafruit_MAX31865::calculateTemperature(unsigned int, float, float) [clone .constprop.20]>:
_ZN17Adafruit_MAX3186520calculateTemperatureEjff.constprop.20():
/home/huser/Arduino/libraries/Adafruit_MAX31865_library/Adafruit_MAX31865.cpp:249
    @param refResistor The value of the matching reference resistor, usually
    430 or 4300
    @returns Temperature in C
*/
/**************************************************************************/
float Adafruit_MAX31865::calculateTemperature(uint16_t RTDraw, float RTDnominal,
    1388:	4f 92       	push	r4
    138a:	5f 92       	push	r5
    138c:	6f 92       	push	r6
    138e:	7f 92       	push	r7
    1390:	8f 92       	push	r8
    1392:	9f 92       	push	r9
    1394:	af 92       	push	r10
    1396:	bf 92       	push	r11
    1398:	cf 92       	push	r12
    139a:	df 92       	push	r13
    139c:	ef 92       	push	r14
    139e:	ff 92       	push	r15
/home/huser/Arduino/libraries/Adafruit_MAX31865_library/Adafruit_MAX31865.cpp:253
                                              float refResistor) {
  float Z1, Z2, Z3, Z4, Rt, temp;

  Rt = RTDraw;
    13a0:	bc 01       	movw	r22, r24
    13a2:	90 e0       	ldi	r25, 0x00	; 0
    13a4:	80 e0       	ldi	r24, 0x00	; 0
    13a6:	0e 94 f8 1e 	call	0x3df0	; 0x3df0 <__floatunsisf>
/home/huser/Arduino/libraries/Adafruit_MAX31865_library/Adafruit_MAX31865.cpp:254
  Rt /= 32768;
    13aa:	20 e0       	ldi	r18, 0x00	; 0
    13ac:	30 e0       	ldi	r19, 0x00	; 0
    13ae:	40 e0       	ldi	r20, 0x00	; 0
    13b0:	58 e3       	ldi	r21, 0x38	; 56
    13b2:	0e 94 59 1f 	call	0x3eb2	; 0x3eb2 <__mulsf3>
/home/huser/Arduino/libraries/Adafruit_MAX31865_library/Adafruit_MAX31865.cpp:255
  Rt *= refResistor;
    13b6:	20 e0       	ldi	r18, 0x00	; 0
    13b8:	30 e0       	ldi	r19, 0x00	; 0
    13ba:	47 ed       	ldi	r20, 0xD7	; 215
    13bc:	53 e4       	ldi	r21, 0x43	; 67
    13be:	0e 94 59 1f 	call	0x3eb2	; 0x3eb2 <__mulsf3>
    13c2:	4b 01       	movw	r8, r22
    13c4:	5c 01       	movw	r10, r24
/home/huser/Arduino/libraries/Adafruit_MAX31865_library/Adafruit_MAX31865.cpp:264
  Z1 = -RTD_A;
  Z2 = RTD_A * RTD_A - (4 * RTD_B);
  Z3 = (4 * RTD_B) / RTDnominal;
  Z4 = 2 * RTD_B;

  temp = Z2 + (Z3 * Rt);
    13c6:	2f e6       	ldi	r18, 0x6F	; 111
    13c8:	3d e6       	ldi	r19, 0x6D	; 109
    13ca:	46 ec       	ldi	r20, 0xC6	; 198
    13cc:	52 eb       	ldi	r21, 0xB2	; 178
    13ce:	0e 94 59 1f 	call	0x3eb2	; 0x3eb2 <__mulsf3>
    13d2:	26 e1       	ldi	r18, 0x16	; 22
    13d4:	33 e8       	ldi	r19, 0x83	; 131
    13d6:	43 e9       	ldi	r20, 0x93	; 147
    13d8:	57 e3       	ldi	r21, 0x37	; 55
    13da:	0e 94 6c 20 	call	0x40d8	; 0x40d8 <__addsf3>
/home/huser/Arduino/libraries/Adafruit_MAX31865_library/Adafruit_MAX31865.cpp:265
  temp = (sqrt(temp) + Z1) / Z4;
    13de:	0e 94 8b 21 	call	0x4316	; 0x4316 <sqrt>
    13e2:	22 e3       	ldi	r18, 0x32	; 50
    13e4:	31 e1       	ldi	r19, 0x11	; 17
    13e6:	40 e8       	ldi	r20, 0x80	; 128
    13e8:	5b e3       	ldi	r21, 0x3B	; 59
    13ea:	0e 94 6b 20 	call	0x40d6	; 0x40d6 <__subsf3>
    13ee:	2f e7       	ldi	r18, 0x7F	; 127
    13f0:	35 e0       	ldi	r19, 0x05	; 5
    13f2:	4b e9       	ldi	r20, 0x9B	; 155
    13f4:	55 eb       	ldi	r21, 0xB5	; 181
    13f6:	0e 94 d8 20 	call	0x41b0	; 0x41b0 <__divsf3>
    13fa:	6b 01       	movw	r12, r22
    13fc:	7c 01       	movw	r14, r24
/home/huser/Arduino/libraries/Adafruit_MAX31865_library/Adafruit_MAX31865.cpp:267

  if (temp >= 0)
    13fe:	20 e0       	ldi	r18, 0x00	; 0
    1400:	30 e0       	ldi	r19, 0x00	; 0
    1402:	a9 01       	movw	r20, r18
    1404:	0e 94 80 21 	call	0x4300	; 0x4300 <__gesf2>
    1408:	87 ff       	sbrs	r24, 7
    140a:	70 c0       	rjmp	.+224    	; 0x14ec <Adafruit_MAX31865::calculateTemperature(unsigned int, float, float) [clone .constprop.20]+0x164>
/home/huser/Arduino/libraries/Adafruit_MAX31865_library/Adafruit_MAX31865.cpp:271
    return temp;

  // ugh.
  Rt /= RTDnominal;
    140c:	20 e0       	ldi	r18, 0x00	; 0
    140e:	30 e0       	ldi	r19, 0x00	; 0
    1410:	48 ec       	ldi	r20, 0xC8	; 200
    1412:	52 e4       	ldi	r21, 0x42	; 66
    1414:	c5 01       	movw	r24, r10
    1416:	b4 01       	movw	r22, r8
    1418:	0e 94 d8 20 	call	0x41b0	; 0x41b0 <__divsf3>
/home/huser/Arduino/libraries/Adafruit_MAX31865_library/Adafruit_MAX31865.cpp:272
  Rt *= 100; // normalize to 100 ohm
    141c:	20 e0       	ldi	r18, 0x00	; 0
    141e:	30 e0       	ldi	r19, 0x00	; 0
    1420:	48 ec       	ldi	r20, 0xC8	; 200
    1422:	52 e4       	ldi	r21, 0x42	; 66
    1424:	0e 94 59 1f 	call	0x3eb2	; 0x3eb2 <__mulsf3>
    1428:	6b 01       	movw	r12, r22
    142a:	7c 01       	movw	r14, r24
/home/huser/Arduino/libraries/Adafruit_MAX31865_library/Adafruit_MAX31865.cpp:277

  float rpoly = Rt;

  temp = -242.02;
  temp += 2.2228 * rpoly;
    142c:	2b e5       	ldi	r18, 0x5B	; 91
    142e:	32 e4       	ldi	r19, 0x42	; 66
    1430:	4e e0       	ldi	r20, 0x0E	; 14
    1432:	50 e4       	ldi	r21, 0x40	; 64
    1434:	0e 94 59 1f 	call	0x3eb2	; 0x3eb2 <__mulsf3>
    1438:	2f e1       	ldi	r18, 0x1F	; 31
    143a:	35 e0       	ldi	r19, 0x05	; 5
    143c:	42 e7       	ldi	r20, 0x72	; 114
    143e:	53 e4       	ldi	r21, 0x43	; 67
    1440:	0e 94 6b 20 	call	0x40d6	; 0x40d6 <__subsf3>
    1444:	2b 01       	movw	r4, r22
    1446:	3c 01       	movw	r6, r24
/home/huser/Arduino/libraries/Adafruit_MAX31865_library/Adafruit_MAX31865.cpp:278
  rpoly *= Rt; // square
    1448:	a7 01       	movw	r20, r14
    144a:	96 01       	movw	r18, r12
    144c:	c7 01       	movw	r24, r14
    144e:	b6 01       	movw	r22, r12
    1450:	0e 94 59 1f 	call	0x3eb2	; 0x3eb2 <__mulsf3>
    1454:	4b 01       	movw	r8, r22
    1456:	5c 01       	movw	r10, r24
/home/huser/Arduino/libraries/Adafruit_MAX31865_library/Adafruit_MAX31865.cpp:279
  temp += 2.5859e-3 * rpoly;
    1458:	24 e3       	ldi	r18, 0x34	; 52
    145a:	38 e7       	ldi	r19, 0x78	; 120
    145c:	49 e2       	ldi	r20, 0x29	; 41
    145e:	5b e3       	ldi	r21, 0x3B	; 59
    1460:	0e 94 59 1f 	call	0x3eb2	; 0x3eb2 <__mulsf3>
    1464:	a3 01       	movw	r20, r6
    1466:	92 01       	movw	r18, r4
    1468:	0e 94 6c 20 	call	0x40d8	; 0x40d8 <__addsf3>
    146c:	2b 01       	movw	r4, r22
    146e:	3c 01       	movw	r6, r24
/home/huser/Arduino/libraries/Adafruit_MAX31865_library/Adafruit_MAX31865.cpp:280
  rpoly *= Rt; // ^3
    1470:	a5 01       	movw	r20, r10
    1472:	94 01       	movw	r18, r8
    1474:	c7 01       	movw	r24, r14
    1476:	b6 01       	movw	r22, r12
    1478:	0e 94 59 1f 	call	0x3eb2	; 0x3eb2 <__mulsf3>
    147c:	4b 01       	movw	r8, r22
    147e:	5c 01       	movw	r10, r24
/home/huser/Arduino/libraries/Adafruit_MAX31865_library/Adafruit_MAX31865.cpp:281
  temp -= 4.8260e-6 * rpoly;
    1480:	26 e0       	ldi	r18, 0x06	; 6
    1482:	3f ee       	ldi	r19, 0xEF	; 239
    1484:	41 ea       	ldi	r20, 0xA1	; 161
    1486:	56 e3       	ldi	r21, 0x36	; 54
    1488:	0e 94 59 1f 	call	0x3eb2	; 0x3eb2 <__mulsf3>
    148c:	9b 01       	movw	r18, r22
    148e:	ac 01       	movw	r20, r24
    1490:	c3 01       	movw	r24, r6
    1492:	b2 01       	movw	r22, r4
    1494:	0e 94 6b 20 	call	0x40d6	; 0x40d6 <__subsf3>
    1498:	2b 01       	movw	r4, r22
    149a:	3c 01       	movw	r6, r24
/home/huser/Arduino/libraries/Adafruit_MAX31865_library/Adafruit_MAX31865.cpp:282
  rpoly *= Rt; // ^4
    149c:	a5 01       	movw	r20, r10
    149e:	94 01       	movw	r18, r8
    14a0:	c7 01       	movw	r24, r14
    14a2:	b6 01       	movw	r22, r12
    14a4:	0e 94 59 1f 	call	0x3eb2	; 0x3eb2 <__mulsf3>
    14a8:	4b 01       	movw	r8, r22
    14aa:	5c 01       	movw	r10, r24
/home/huser/Arduino/libraries/Adafruit_MAX31865_library/Adafruit_MAX31865.cpp:283
  temp -= 2.8183e-8 * rpoly;
    14ac:	23 e1       	ldi	r18, 0x13	; 19
    14ae:	37 e1       	ldi	r19, 0x17	; 23
    14b0:	42 ef       	ldi	r20, 0xF2	; 242
    14b2:	52 e3       	ldi	r21, 0x32	; 50
    14b4:	0e 94 59 1f 	call	0x3eb2	; 0x3eb2 <__mulsf3>
    14b8:	9b 01       	movw	r18, r22
    14ba:	ac 01       	movw	r20, r24
    14bc:	c3 01       	movw	r24, r6
    14be:	b2 01       	movw	r22, r4
    14c0:	0e 94 6b 20 	call	0x40d6	; 0x40d6 <__subsf3>
    14c4:	2b 01       	movw	r4, r22
    14c6:	3c 01       	movw	r6, r24
/home/huser/Arduino/libraries/Adafruit_MAX31865_library/Adafruit_MAX31865.cpp:284
  rpoly *= Rt; // ^5
    14c8:	a5 01       	movw	r20, r10
    14ca:	94 01       	movw	r18, r8
    14cc:	c7 01       	movw	r24, r14
    14ce:	b6 01       	movw	r22, r12
    14d0:	0e 94 59 1f 	call	0x3eb2	; 0x3eb2 <__mulsf3>
/home/huser/Arduino/libraries/Adafruit_MAX31865_library/Adafruit_MAX31865.cpp:285
  temp += 1.5243e-10 * rpoly;
    14d4:	2b e3       	ldi	r18, 0x3B	; 59
    14d6:	39 e9       	ldi	r19, 0x99	; 153
    14d8:	47 e2       	ldi	r20, 0x27	; 39
    14da:	5f e2       	ldi	r21, 0x2F	; 47
    14dc:	0e 94 59 1f 	call	0x3eb2	; 0x3eb2 <__mulsf3>
    14e0:	a3 01       	movw	r20, r6
    14e2:	92 01       	movw	r18, r4
    14e4:	0e 94 6c 20 	call	0x40d8	; 0x40d8 <__addsf3>
    14e8:	6b 01       	movw	r12, r22
    14ea:	7c 01       	movw	r14, r24
/home/huser/Arduino/libraries/Adafruit_MAX31865_library/Adafruit_MAX31865.cpp:288

  return temp;
}
    14ec:	c7 01       	movw	r24, r14
    14ee:	b6 01       	movw	r22, r12
    14f0:	ff 90       	pop	r15
    14f2:	ef 90       	pop	r14
    14f4:	df 90       	pop	r13
    14f6:	cf 90       	pop	r12
    14f8:	bf 90       	pop	r11
    14fa:	af 90       	pop	r10
    14fc:	9f 90       	pop	r9
    14fe:	8f 90       	pop	r8
    1500:	7f 90       	pop	r7
    1502:	6f 90       	pop	r6
    1504:	5f 90       	pop	r5
    1506:	4f 90       	pop	r4
    1508:	08 95       	ret

0000150a <readRTDTemperatureExt(Adafruit_MAX31865&, float, char const*) [clone .constprop.17]>:
_Z21readRTDTemperatureExtR17Adafruit_MAX31865fPKc.constprop.17():
/home/huser/Dev/TAD_Workspace/Projects/firmwares/OnlyCell/OnlyCell.ino:332
  */

}

// Function to read temperature and check faults for the RTD sensor
void readRTDTemperatureExt(Adafruit_MAX31865 &rtdDev, float rref, const char *deviceName) {
    150a:	cf 92       	push	r12
    150c:	df 92       	push	r13
    150e:	ef 92       	push	r14
    1510:	ff 92       	push	r15
/home/huser/Dev/TAD_Workspace/Projects/firmwares/OnlyCell/OnlyCell.ino:333
  uint16_t rtd = rtdDev.readRTD();
    1512:	84 e8       	ldi	r24, 0x84	; 132
    1514:	95 e0       	ldi	r25, 0x05	; 5
    1516:	0e 94 d8 06 	call	0xdb0	; 0xdb0 <Adafruit_MAX31865::readRTD()>
temperature():
/home/huser/Arduino/libraries/Adafruit_MAX31865_library/Adafruit_MAX31865.cpp:233
    430 or 4300
    @returns Temperature in C
*/
/**************************************************************************/
float Adafruit_MAX31865::temperature(float RTDnominal, float refResistor) {
  return calculateTemperature(readRTD(), RTDnominal, refResistor);
    151a:	84 e8       	ldi	r24, 0x84	; 132
    151c:	95 e0       	ldi	r25, 0x05	; 5
    151e:	0e 94 d8 06 	call	0xdb0	; 0xdb0 <Adafruit_MAX31865::readRTD()>
    1522:	0e 94 c4 09 	call	0x1388	; 0x1388 <Adafruit_MAX31865::calculateTemperature(unsigned int, float, float) [clone .constprop.20]>
    1526:	6b 01       	movw	r12, r22
    1528:	7c 01       	movw	r14, r24
_Z21readRTDTemperatureExtR17Adafruit_MAX31865fPKc.constprop.17():
/home/huser/Dev/TAD_Workspace/Projects/firmwares/OnlyCell/OnlyCell.ino:336
  float temperature = rtdDev.temperature(100, rref);

  uint8_t fault = rtdDev.readFault();
    152a:	84 e8       	ldi	r24, 0x84	; 132
    152c:	95 e0       	ldi	r25, 0x05	; 5
    152e:	0e 94 03 08 	call	0x1006	; 0x1006 <Adafruit_MAX31865::readFault(max31865_fault_cycle_t) [clone .constprop.21]>
/home/huser/Dev/TAD_Workspace/Projects/firmwares/OnlyCell/OnlyCell.ino:337
  if (fault) {
    1532:	88 23       	and	r24, r24
    1534:	41 f0       	breq	.+16     	; 0x1546 <readRTDTemperatureExt(Adafruit_MAX31865&, float, char const*) [clone .constprop.17]+0x3c>
/home/huser/Dev/TAD_Workspace/Projects/firmwares/OnlyCell/OnlyCell.ino:338
    rtdDev.clearFault();
    1536:	84 e8       	ldi	r24, 0x84	; 132
    1538:	95 e0       	ldi	r25, 0x05	; 5
/home/huser/Dev/TAD_Workspace/Projects/firmwares/OnlyCell/OnlyCell.ino:342
  } else {
    m_currentTempExternal = temperature;  // Update global temperature variable
  }
}
    153a:	ff 90       	pop	r15
    153c:	ef 90       	pop	r14
    153e:	df 90       	pop	r13
    1540:	cf 90       	pop	r12
/home/huser/Dev/TAD_Workspace/Projects/firmwares/OnlyCell/OnlyCell.ino:338
  uint16_t rtd = rtdDev.readRTD();
  float temperature = rtdDev.temperature(100, rref);

  uint8_t fault = rtdDev.readFault();
  if (fault) {
    rtdDev.clearFault();
    1542:	0c 94 c9 06 	jmp	0xd92	; 0xd92 <Adafruit_MAX31865::clearFault()>
/home/huser/Dev/TAD_Workspace/Projects/firmwares/OnlyCell/OnlyCell.ino:340
  } else {
    m_currentTempExternal = temperature;  // Update global temperature variable
    1546:	c0 92 27 05 	sts	0x0527, r12	; 0x800527 <m_currentTempExternal>
    154a:	d0 92 28 05 	sts	0x0528, r13	; 0x800528 <m_currentTempExternal+0x1>
    154e:	e0 92 29 05 	sts	0x0529, r14	; 0x800529 <m_currentTempExternal+0x2>
    1552:	f0 92 2a 05 	sts	0x052A, r15	; 0x80052a <m_currentTempExternal+0x3>
/home/huser/Dev/TAD_Workspace/Projects/firmwares/OnlyCell/OnlyCell.ino:342
  }
}
    1556:	ff 90       	pop	r15
    1558:	ef 90       	pop	r14
    155a:	df 90       	pop	r13
    155c:	cf 90       	pop	r12
    155e:	08 95       	ret

00001560 <String::toDouble() const>:
_ZNK6String8toDoubleEv():
/home/huser/.arduino15/packages/MiniCore/hardware/avr/3.0.2/cores/MCUdude_corefiles/WString.cpp:749
  return float(toDouble());
}

double String::toDouble(void) const
{
  if (buffer) return atof(buffer);
    1560:	fc 01       	movw	r30, r24
    1562:	80 81       	ld	r24, Z
    1564:	91 81       	ldd	r25, Z+1	; 0x01
    1566:	00 97       	sbiw	r24, 0x00	; 0
    1568:	11 f0       	breq	.+4      	; 0x156e <String::toDouble() const+0xe>
    156a:	0c 94 8d 18 	jmp	0x311a	; 0x311a <atof>
/home/huser/.arduino15/packages/MiniCore/hardware/avr/3.0.2/cores/MCUdude_corefiles/WString.cpp:751
  return 0;
}
    156e:	60 e0       	ldi	r22, 0x00	; 0
    1570:	70 e0       	ldi	r23, 0x00	; 0
    1572:	cb 01       	movw	r24, r22
    1574:	08 95       	ret

00001576 <String::startsWith(String const&) const>:
_ZNK6String10startsWithERKS_():
/home/huser/.arduino15/packages/MiniCore/hardware/avr/3.0.2/cores/MCUdude_corefiles/WString.cpp:492
  return 1;
}

unsigned char String::startsWith( const String &s2 ) const
{
  if (len < s2.len) return 0;
    1576:	fb 01       	movw	r30, r22
    1578:	44 81       	ldd	r20, Z+4	; 0x04
    157a:	55 81       	ldd	r21, Z+5	; 0x05
    157c:	fc 01       	movw	r30, r24
    157e:	24 81       	ldd	r18, Z+4	; 0x04
    1580:	35 81       	ldd	r19, Z+5	; 0x05
    1582:	24 17       	cp	r18, r20
    1584:	35 07       	cpc	r19, r21
    1586:	78 f0       	brcs	.+30     	; 0x15a6 <String::startsWith(String const&) const+0x30>
startsWith():
/home/huser/.arduino15/packages/MiniCore/hardware/avr/3.0.2/cores/MCUdude_corefiles/WString.cpp:498
  return startsWith(s2, 0);
}

unsigned char String::startsWith( const String &s2, unsigned int offset ) const
{
  if (offset > len - s2.len || !buffer || !s2.buffer) return 0;
    1588:	80 81       	ld	r24, Z
    158a:	91 81       	ldd	r25, Z+1	; 0x01
    158c:	00 97       	sbiw	r24, 0x00	; 0
    158e:	59 f0       	breq	.+22     	; 0x15a6 <String::startsWith(String const&) const+0x30>
    1590:	fb 01       	movw	r30, r22
    1592:	60 81       	ld	r22, Z
    1594:	71 81       	ldd	r23, Z+1	; 0x01
    1596:	61 15       	cp	r22, r1
    1598:	71 05       	cpc	r23, r1
    159a:	29 f0       	breq	.+10     	; 0x15a6 <String::startsWith(String const&) const+0x30>
/home/huser/.arduino15/packages/MiniCore/hardware/avr/3.0.2/cores/MCUdude_corefiles/WString.cpp:499
  return strncmp( &buffer[offset], s2.buffer, s2.len ) == 0;
    159c:	0e 94 3b 24 	call	0x4876	; 0x4876 <strncmp>
    15a0:	21 e0       	ldi	r18, 0x01	; 1
    15a2:	89 2b       	or	r24, r25
    15a4:	09 f0       	breq	.+2      	; 0x15a8 <String::startsWith(String const&) const+0x32>
_ZNK6String10startsWithERKS_():
/home/huser/.arduino15/packages/MiniCore/hardware/avr/3.0.2/cores/MCUdude_corefiles/WString.cpp:492
  return 1;
}

unsigned char String::startsWith( const String &s2 ) const
{
  if (len < s2.len) return 0;
    15a6:	20 e0       	ldi	r18, 0x00	; 0
/home/huser/.arduino15/packages/MiniCore/hardware/avr/3.0.2/cores/MCUdude_corefiles/WString.cpp:494
  return startsWith(s2, 0);
}
    15a8:	82 2f       	mov	r24, r18
    15aa:	08 95       	ret

000015ac <String::reserve(unsigned int)>:
_ZN6String7reserveEj():
/home/huser/.arduino15/packages/MiniCore/hardware/avr/3.0.2/cores/MCUdude_corefiles/WString.cpp:147
  buffer = NULL;
  capacity = len = 0;
}

unsigned char String::reserve(unsigned int size)
{
    15ac:	0f 93       	push	r16
    15ae:	1f 93       	push	r17
    15b0:	cf 93       	push	r28
    15b2:	df 93       	push	r29
    15b4:	ec 01       	movw	r28, r24
/home/huser/.arduino15/packages/MiniCore/hardware/avr/3.0.2/cores/MCUdude_corefiles/WString.cpp:148
  if (buffer && capacity >= size) return 1;
    15b6:	88 81       	ld	r24, Y
    15b8:	99 81       	ldd	r25, Y+1	; 0x01
    15ba:	00 97       	sbiw	r24, 0x00	; 0
    15bc:	59 f0       	breq	.+22     	; 0x15d4 <String::reserve(unsigned int)+0x28>
    15be:	2a 81       	ldd	r18, Y+2	; 0x02
    15c0:	3b 81       	ldd	r19, Y+3	; 0x03
    15c2:	26 17       	cp	r18, r22
    15c4:	37 07       	cpc	r19, r23
    15c6:	30 f0       	brcs	.+12     	; 0x15d4 <String::reserve(unsigned int)+0x28>
/home/huser/.arduino15/packages/MiniCore/hardware/avr/3.0.2/cores/MCUdude_corefiles/WString.cpp:150
  if (changeBuffer(size)) {
    if (len == 0) buffer[0] = 0;
    15c8:	81 e0       	ldi	r24, 0x01	; 1
/home/huser/.arduino15/packages/MiniCore/hardware/avr/3.0.2/cores/MCUdude_corefiles/WString.cpp:154
    return 1;
  }
  return 0;
}
    15ca:	df 91       	pop	r29
    15cc:	cf 91       	pop	r28
    15ce:	1f 91       	pop	r17
    15d0:	0f 91       	pop	r16
    15d2:	08 95       	ret
    15d4:	8b 01       	movw	r16, r22
changeBuffer():
/home/huser/.arduino15/packages/MiniCore/hardware/avr/3.0.2/cores/MCUdude_corefiles/WString.cpp:158

unsigned char String::changeBuffer(unsigned int maxStrLen)
{
  char *newbuffer = (char *)realloc(buffer, maxStrLen + 1);
    15d6:	6f 5f       	subi	r22, 0xFF	; 255
    15d8:	7f 4f       	sbci	r23, 0xFF	; 255
    15da:	0e 94 5a 23 	call	0x46b4	; 0x46b4 <realloc>
/home/huser/.arduino15/packages/MiniCore/hardware/avr/3.0.2/cores/MCUdude_corefiles/WString.cpp:159
  if (newbuffer) {
    15de:	00 97       	sbiw	r24, 0x00	; 0
    15e0:	59 f0       	breq	.+22     	; 0x15f8 <String::reserve(unsigned int)+0x4c>
/home/huser/.arduino15/packages/MiniCore/hardware/avr/3.0.2/cores/MCUdude_corefiles/WString.cpp:160
    buffer = newbuffer;
    15e2:	99 83       	std	Y+1, r25	; 0x01
    15e4:	88 83       	st	Y, r24
/home/huser/.arduino15/packages/MiniCore/hardware/avr/3.0.2/cores/MCUdude_corefiles/WString.cpp:161
    capacity = maxStrLen;
    15e6:	1b 83       	std	Y+3, r17	; 0x03
    15e8:	0a 83       	std	Y+2, r16	; 0x02
_ZN6String7reserveEj():
/home/huser/.arduino15/packages/MiniCore/hardware/avr/3.0.2/cores/MCUdude_corefiles/WString.cpp:150

unsigned char String::reserve(unsigned int size)
{
  if (buffer && capacity >= size) return 1;
  if (changeBuffer(size)) {
    if (len == 0) buffer[0] = 0;
    15ea:	2c 81       	ldd	r18, Y+4	; 0x04
    15ec:	3d 81       	ldd	r19, Y+5	; 0x05
    15ee:	23 2b       	or	r18, r19
    15f0:	59 f7       	brne	.-42     	; 0x15c8 <String::reserve(unsigned int)+0x1c>
    15f2:	fc 01       	movw	r30, r24
    15f4:	10 82       	st	Z, r1
    15f6:	e8 cf       	rjmp	.-48     	; 0x15c8 <String::reserve(unsigned int)+0x1c>
/home/huser/.arduino15/packages/MiniCore/hardware/avr/3.0.2/cores/MCUdude_corefiles/WString.cpp:153
    return 1;
  }
  return 0;
    15f8:	80 e0       	ldi	r24, 0x00	; 0
    15fa:	e7 cf       	rjmp	.-50     	; 0x15ca <String::reserve(unsigned int)+0x1e>

000015fc <String::String(char const*) [clone .part.2]>:
_ZN6StringC2EPKc.part.2():
/home/huser/.arduino15/packages/MiniCore/hardware/avr/3.0.2/cores/MCUdude_corefiles/WString.cpp:28

/*********************************************/
/*  Constructors                             */
/*********************************************/

String::String(const char *cstr)
    15fc:	ef 92       	push	r14
    15fe:	ff 92       	push	r15
    1600:	0f 93       	push	r16
    1602:	1f 93       	push	r17
    1604:	cf 93       	push	r28
    1606:	df 93       	push	r29
    1608:	8c 01       	movw	r16, r24
    160a:	7b 01       	movw	r14, r22
/home/huser/.arduino15/packages/MiniCore/hardware/avr/3.0.2/cores/MCUdude_corefiles/WString.cpp:31
{
  init();
  if (cstr) copy(cstr, strlen(cstr));
    160c:	eb 01       	movw	r28, r22
    160e:	09 90       	ld	r0, Y+
    1610:	00 20       	and	r0, r0
    1612:	e9 f7       	brne	.-6      	; 0x160e <String::String(char const*) [clone .part.2]+0x12>
    1614:	21 97       	sbiw	r28, 0x01	; 1
    1616:	c6 1b       	sub	r28, r22
    1618:	d7 0b       	sbc	r29, r23
copy():
/home/huser/.arduino15/packages/MiniCore/hardware/avr/3.0.2/cores/MCUdude_corefiles/WString.cpp:173
/*  Copy and Move                            */
/*********************************************/

String & String::copy(const char *cstr, unsigned int length)
{
  if (!reserve(length)) {
    161a:	be 01       	movw	r22, r28
    161c:	0e 94 d6 0a 	call	0x15ac	; 0x15ac <String::reserve(unsigned int)>
    1620:	81 11       	cpse	r24, r1
    1622:	09 c0       	rjmp	.+18     	; 0x1636 <String::String(char const*) [clone .part.2]+0x3a>
/home/huser/.arduino15/packages/MiniCore/hardware/avr/3.0.2/cores/MCUdude_corefiles/WString.cpp:174
    invalidate();
    1624:	c8 01       	movw	r24, r16
_ZN6StringC2EPKc.part.2():
/home/huser/.arduino15/packages/MiniCore/hardware/avr/3.0.2/cores/MCUdude_corefiles/WString.cpp:32

String::String(const char *cstr)
{
  init();
  if (cstr) copy(cstr, strlen(cstr));
}
    1626:	df 91       	pop	r29
    1628:	cf 91       	pop	r28
    162a:	1f 91       	pop	r17
    162c:	0f 91       	pop	r16
    162e:	ff 90       	pop	r15
    1630:	ef 90       	pop	r14
copy():
/home/huser/.arduino15/packages/MiniCore/hardware/avr/3.0.2/cores/MCUdude_corefiles/WString.cpp:174
/*********************************************/

String & String::copy(const char *cstr, unsigned int length)
{
  if (!reserve(length)) {
    invalidate();
    1632:	0c 94 e5 07 	jmp	0xfca	; 0xfca <String::invalidate()>
/home/huser/.arduino15/packages/MiniCore/hardware/avr/3.0.2/cores/MCUdude_corefiles/WString.cpp:177
    return *this;
  }
  len = length;
    1636:	f8 01       	movw	r30, r16
    1638:	d5 83       	std	Z+5, r29	; 0x05
    163a:	c4 83       	std	Z+4, r28	; 0x04
/home/huser/.arduino15/packages/MiniCore/hardware/avr/3.0.2/cores/MCUdude_corefiles/WString.cpp:178
  strcpy(buffer, cstr);
    163c:	b7 01       	movw	r22, r14
    163e:	80 81       	ld	r24, Z
    1640:	91 81       	ldd	r25, Z+1	; 0x01
_ZN6StringC2EPKc.part.2():
/home/huser/.arduino15/packages/MiniCore/hardware/avr/3.0.2/cores/MCUdude_corefiles/WString.cpp:32

String::String(const char *cstr)
{
  init();
  if (cstr) copy(cstr, strlen(cstr));
}
    1642:	df 91       	pop	r29
    1644:	cf 91       	pop	r28
    1646:	1f 91       	pop	r17
    1648:	0f 91       	pop	r16
    164a:	ff 90       	pop	r15
    164c:	ef 90       	pop	r14
copy():
/home/huser/.arduino15/packages/MiniCore/hardware/avr/3.0.2/cores/MCUdude_corefiles/WString.cpp:178
  if (!reserve(length)) {
    invalidate();
    return *this;
  }
  len = length;
  strcpy(buffer, cstr);
    164e:	0c 94 34 24 	jmp	0x4868	; 0x4868 <strcpy>

00001652 <String::substring(unsigned int, unsigned int) const>:
_ZNK6String9substringEjj():
/home/huser/.arduino15/packages/MiniCore/hardware/avr/3.0.2/cores/MCUdude_corefiles/WString.cpp:616
  }
  return found;
}

String String::substring(unsigned int left, unsigned int right) const
{
    1652:	9f 92       	push	r9
    1654:	af 92       	push	r10
    1656:	bf 92       	push	r11
    1658:	cf 92       	push	r12
    165a:	df 92       	push	r13
    165c:	ef 92       	push	r14
    165e:	ff 92       	push	r15
    1660:	0f 93       	push	r16
    1662:	1f 93       	push	r17
    1664:	cf 93       	push	r28
    1666:	df 93       	push	r29
    1668:	ec 01       	movw	r28, r24
    166a:	6b 01       	movw	r12, r22
    166c:	5a 01       	movw	r10, r20
    166e:	79 01       	movw	r14, r18
/home/huser/.arduino15/packages/MiniCore/hardware/avr/3.0.2/cores/MCUdude_corefiles/WString.cpp:617
  if (left > right) {
    1670:	24 17       	cp	r18, r20
    1672:	35 07       	cpc	r19, r21
    1674:	20 f4       	brcc	.+8      	; 0x167e <String::substring(unsigned int, unsigned int) const+0x2c>
    1676:	8b 2d       	mov	r24, r11
    1678:	59 01       	movw	r10, r18
    167a:	e4 2e       	mov	r14, r20
    167c:	f8 2e       	mov	r15, r24
_ZN6String4initEv():
/home/huser/.arduino15/packages/MiniCore/hardware/avr/3.0.2/cores/MCUdude_corefiles/WString.cpp:134
/*  Memory Management                        */
/*********************************************/

inline void String::init(void)
{
  buffer = NULL;
    167e:	19 82       	std	Y+1, r1	; 0x01
    1680:	18 82       	st	Y, r1
/home/huser/.arduino15/packages/MiniCore/hardware/avr/3.0.2/cores/MCUdude_corefiles/WString.cpp:135
  capacity = 0;
    1682:	1b 82       	std	Y+3, r1	; 0x03
    1684:	1a 82       	std	Y+2, r1	; 0x02
/home/huser/.arduino15/packages/MiniCore/hardware/avr/3.0.2/cores/MCUdude_corefiles/WString.cpp:136
  len = 0;
    1686:	1d 82       	std	Y+5, r1	; 0x05
    1688:	1c 82       	std	Y+4, r1	; 0x04
__base_ctor ():
    168a:	68 e3       	ldi	r22, 0x38	; 56
    168c:	71 e0       	ldi	r23, 0x01	; 1
    168e:	ce 01       	movw	r24, r28
    1690:	0e 94 fe 0a 	call	0x15fc	; 0x15fc <String::String(char const*) [clone .part.2]>
_ZNK6String9substringEjj():
/home/huser/.arduino15/packages/MiniCore/hardware/avr/3.0.2/cores/MCUdude_corefiles/WString.cpp:623
    unsigned int temp = right;
    right = left;
    left = temp;
  }
  String out;
  if (left >= len) return out;
    1694:	d6 01       	movw	r26, r12
    1696:	14 96       	adiw	r26, 0x04	; 4
    1698:	0d 91       	ld	r16, X+
    169a:	1c 91       	ld	r17, X
    169c:	a0 16       	cp	r10, r16
    169e:	b1 06       	cpc	r11, r17
    16a0:	58 f5       	brcc	.+86     	; 0x16f8 <String::substring(unsigned int, unsigned int) const+0xa6>
    16a2:	e0 16       	cp	r14, r16
    16a4:	f1 06       	cpc	r15, r17
    16a6:	08 f4       	brcc	.+2      	; 0x16aa <String::substring(unsigned int, unsigned int) const+0x58>
    16a8:	87 01       	movw	r16, r14
/home/huser/.arduino15/packages/MiniCore/hardware/avr/3.0.2/cores/MCUdude_corefiles/WString.cpp:625
  if (right > len) right = len;
  char temp = buffer[right];  // save the replaced character
    16aa:	d6 01       	movw	r26, r12
    16ac:	ed 91       	ld	r30, X+
    16ae:	fc 91       	ld	r31, X
    16b0:	11 97       	sbiw	r26, 0x01	; 1
    16b2:	e0 0f       	add	r30, r16
    16b4:	f1 1f       	adc	r31, r17
    16b6:	90 80       	ld	r9, Z
/home/huser/.arduino15/packages/MiniCore/hardware/avr/3.0.2/cores/MCUdude_corefiles/WString.cpp:626
  buffer[right] = '\0'; 
    16b8:	10 82       	st	Z, r1
/home/huser/.arduino15/packages/MiniCore/hardware/avr/3.0.2/cores/MCUdude_corefiles/WString.cpp:627
  out = buffer + left;  // pointer arithmetic
    16ba:	ed 90       	ld	r14, X+
    16bc:	fc 90       	ld	r15, X
    16be:	ea 0c       	add	r14, r10
    16c0:	fb 1c       	adc	r15, r11
operator=():
/home/huser/.arduino15/packages/MiniCore/hardware/avr/3.0.2/cores/MCUdude_corefiles/WString.cpp:241
}
#endif

String & String::operator = (const char *cstr)
{
  if (cstr) copy(cstr, strlen(cstr));
    16c2:	e1 14       	cp	r14, r1
    16c4:	f1 04       	cpc	r15, r1
    16c6:	71 f0       	breq	.+28     	; 0x16e4 <String::substring(unsigned int, unsigned int) const+0x92>
    16c8:	f7 01       	movw	r30, r14
    16ca:	01 90       	ld	r0, Z+
    16cc:	00 20       	and	r0, r0
    16ce:	e9 f7       	brne	.-6      	; 0x16ca <String::substring(unsigned int, unsigned int) const+0x78>
    16d0:	31 97       	sbiw	r30, 0x01	; 1
    16d2:	5f 01       	movw	r10, r30
    16d4:	ae 18       	sub	r10, r14
    16d6:	bf 08       	sbc	r11, r15
copy():
/home/huser/.arduino15/packages/MiniCore/hardware/avr/3.0.2/cores/MCUdude_corefiles/WString.cpp:173
/*  Copy and Move                            */
/*********************************************/

String & String::copy(const char *cstr, unsigned int length)
{
  if (!reserve(length)) {
    16d8:	b5 01       	movw	r22, r10
    16da:	ce 01       	movw	r24, r28
    16dc:	0e 94 d6 0a 	call	0x15ac	; 0x15ac <String::reserve(unsigned int)>
    16e0:	81 11       	cpse	r24, r1
    16e2:	17 c0       	rjmp	.+46     	; 0x1712 <String::substring(unsigned int, unsigned int) const+0xc0>
/home/huser/.arduino15/packages/MiniCore/hardware/avr/3.0.2/cores/MCUdude_corefiles/WString.cpp:174
    invalidate();
    16e4:	ce 01       	movw	r24, r28
    16e6:	0e 94 e5 07 	call	0xfca	; 0xfca <String::invalidate()>
_ZNK6String9substringEjj():
/home/huser/.arduino15/packages/MiniCore/hardware/avr/3.0.2/cores/MCUdude_corefiles/WString.cpp:628
  if (left >= len) return out;
  if (right > len) right = len;
  char temp = buffer[right];  // save the replaced character
  buffer[right] = '\0'; 
  out = buffer + left;  // pointer arithmetic
  buffer[right] = temp;  //restore character
    16ea:	f6 01       	movw	r30, r12
    16ec:	80 81       	ld	r24, Z
    16ee:	91 81       	ldd	r25, Z+1	; 0x01
    16f0:	08 0f       	add	r16, r24
    16f2:	19 1f       	adc	r17, r25
    16f4:	d8 01       	movw	r26, r16
    16f6:	9c 92       	st	X, r9
/home/huser/.arduino15/packages/MiniCore/hardware/avr/3.0.2/cores/MCUdude_corefiles/WString.cpp:630
  return out;
}
    16f8:	ce 01       	movw	r24, r28
    16fa:	df 91       	pop	r29
    16fc:	cf 91       	pop	r28
    16fe:	1f 91       	pop	r17
    1700:	0f 91       	pop	r16
    1702:	ff 90       	pop	r15
    1704:	ef 90       	pop	r14
    1706:	df 90       	pop	r13
    1708:	cf 90       	pop	r12
    170a:	bf 90       	pop	r11
    170c:	af 90       	pop	r10
    170e:	9f 90       	pop	r9
    1710:	08 95       	ret
copy():
/home/huser/.arduino15/packages/MiniCore/hardware/avr/3.0.2/cores/MCUdude_corefiles/WString.cpp:177
{
  if (!reserve(length)) {
    invalidate();
    return *this;
  }
  len = length;
    1712:	bd 82       	std	Y+5, r11	; 0x05
    1714:	ac 82       	std	Y+4, r10	; 0x04
/home/huser/.arduino15/packages/MiniCore/hardware/avr/3.0.2/cores/MCUdude_corefiles/WString.cpp:178
  strcpy(buffer, cstr);
    1716:	b7 01       	movw	r22, r14
    1718:	88 81       	ld	r24, Y
    171a:	99 81       	ldd	r25, Y+1	; 0x01
    171c:	0e 94 34 24 	call	0x4868	; 0x4868 <strcpy>
    1720:	e4 cf       	rjmp	.-56     	; 0x16ea <String::substring(unsigned int, unsigned int) const+0x98>

00001722 <__vector_16>:
__vector_16():
/home/huser/.arduino15/packages/MiniCore/hardware/avr/3.0.2/cores/MCUdude_corefiles/wiring.c:159
#if defined(__AVR_ATtiny24__) || defined(__AVR_ATtiny44__) || defined(__AVR_ATtiny84__)
ISR(TIM0_OVF_vect)
#else
ISR(TIMER0_OVF_vect)
#endif
{
    1722:	1f 92       	push	r1
    1724:	0f 92       	push	r0
    1726:	0f b6       	in	r0, 0x3f	; 63
    1728:	0f 92       	push	r0
    172a:	11 24       	eor	r1, r1
    172c:	2f 93       	push	r18
    172e:	3f 93       	push	r19
    1730:	8f 93       	push	r24
    1732:	9f 93       	push	r25
    1734:	af 93       	push	r26
    1736:	bf 93       	push	r27
/home/huser/.arduino15/packages/MiniCore/hardware/avr/3.0.2/cores/MCUdude_corefiles/wiring.c:167
  static unsigned char timer0_exact = 0;
#endif

  // copy these to local variables so they can be stored in registers
  // (volatile variables must be read from memory on every access, so this saves time)
  unsigned long m = timer0_millis;
    1738:	80 91 1b 05 	lds	r24, 0x051B	; 0x80051b <timer0_millis>
    173c:	90 91 1c 05 	lds	r25, 0x051C	; 0x80051c <timer0_millis+0x1>
    1740:	a0 91 1d 05 	lds	r26, 0x051D	; 0x80051d <timer0_millis+0x2>
    1744:	b0 91 1e 05 	lds	r27, 0x051E	; 0x80051e <timer0_millis+0x3>
/home/huser/.arduino15/packages/MiniCore/hardware/avr/3.0.2/cores/MCUdude_corefiles/wiring.c:168
  unsigned char f = timer0_fract;
    1748:	30 91 75 04 	lds	r19, 0x0475	; 0x800475 <timer0_fract>
/home/huser/.arduino15/packages/MiniCore/hardware/avr/3.0.2/cores/MCUdude_corefiles/wiring.c:170

  f += FRACT_INC FRACT_INC_PLUS;
    174c:	26 e0       	ldi	r18, 0x06	; 6
    174e:	23 0f       	add	r18, r19
/home/huser/.arduino15/packages/MiniCore/hardware/avr/3.0.2/cores/MCUdude_corefiles/wiring.c:200
    ++f;
  }
#endif
#endif // CORRECT_EXACT_MILLIS

  if (f >= FRACT_MAX) {
    1750:	2d 37       	cpi	r18, 0x7D	; 125
    1752:	68 f1       	brcs	.+90     	; 0x17ae <__vector_16+0x8c>
/home/huser/.arduino15/packages/MiniCore/hardware/avr/3.0.2/cores/MCUdude_corefiles/wiring.c:201
    f -= FRACT_MAX;
    1754:	29 e8       	ldi	r18, 0x89	; 137
    1756:	23 0f       	add	r18, r19
/home/huser/.arduino15/packages/MiniCore/hardware/avr/3.0.2/cores/MCUdude_corefiles/wiring.c:202
    m += MILLIS_INC + 1;
    1758:	03 96       	adiw	r24, 0x03	; 3
    175a:	a1 1d       	adc	r26, r1
    175c:	b1 1d       	adc	r27, r1
/home/huser/.arduino15/packages/MiniCore/hardware/avr/3.0.2/cores/MCUdude_corefiles/wiring.c:208
  }
  else {
    m += MILLIS_INC;
  }

  timer0_fract = f;
    175e:	20 93 75 04 	sts	0x0475, r18	; 0x800475 <timer0_fract>
/home/huser/.arduino15/packages/MiniCore/hardware/avr/3.0.2/cores/MCUdude_corefiles/wiring.c:209
  timer0_millis = m;
    1762:	80 93 1b 05 	sts	0x051B, r24	; 0x80051b <timer0_millis>
    1766:	90 93 1c 05 	sts	0x051C, r25	; 0x80051c <timer0_millis+0x1>
    176a:	a0 93 1d 05 	sts	0x051D, r26	; 0x80051d <timer0_millis+0x2>
    176e:	b0 93 1e 05 	sts	0x051E, r27	; 0x80051e <timer0_millis+0x3>
/home/huser/.arduino15/packages/MiniCore/hardware/avr/3.0.2/cores/MCUdude_corefiles/wiring.c:211
#ifndef CORRECT_EXACT_MICROS
  timer0_overflow_count++;
    1772:	80 91 76 04 	lds	r24, 0x0476	; 0x800476 <timer0_overflow_count>
    1776:	90 91 77 04 	lds	r25, 0x0477	; 0x800477 <timer0_overflow_count+0x1>
    177a:	a0 91 78 04 	lds	r26, 0x0478	; 0x800478 <timer0_overflow_count+0x2>
    177e:	b0 91 79 04 	lds	r27, 0x0479	; 0x800479 <timer0_overflow_count+0x3>
    1782:	01 96       	adiw	r24, 0x01	; 1
    1784:	a1 1d       	adc	r26, r1
    1786:	b1 1d       	adc	r27, r1
    1788:	80 93 76 04 	sts	0x0476, r24	; 0x800476 <timer0_overflow_count>
    178c:	90 93 77 04 	sts	0x0477, r25	; 0x800477 <timer0_overflow_count+0x1>
    1790:	a0 93 78 04 	sts	0x0478, r26	; 0x800478 <timer0_overflow_count+0x2>
    1794:	b0 93 79 04 	sts	0x0479, r27	; 0x800479 <timer0_overflow_count+0x3>
/home/huser/.arduino15/packages/MiniCore/hardware/avr/3.0.2/cores/MCUdude_corefiles/wiring.c:213
#endif
}
    1798:	bf 91       	pop	r27
    179a:	af 91       	pop	r26
    179c:	9f 91       	pop	r25
    179e:	8f 91       	pop	r24
    17a0:	3f 91       	pop	r19
    17a2:	2f 91       	pop	r18
    17a4:	0f 90       	pop	r0
    17a6:	0f be       	out	0x3f, r0	; 63
    17a8:	0f 90       	pop	r0
    17aa:	1f 90       	pop	r1
    17ac:	18 95       	reti
/home/huser/.arduino15/packages/MiniCore/hardware/avr/3.0.2/cores/MCUdude_corefiles/wiring.c:205
  if (f >= FRACT_MAX) {
    f -= FRACT_MAX;
    m += MILLIS_INC + 1;
  }
  else {
    m += MILLIS_INC;
    17ae:	02 96       	adiw	r24, 0x02	; 2
    17b0:	a1 1d       	adc	r26, r1
    17b2:	b1 1d       	adc	r27, r1
    17b4:	d4 cf       	rjmp	.-88     	; 0x175e <__vector_16+0x3c>

000017b6 <__vector_19>:
__vector_19():
/home/huser/.arduino15/packages/MiniCore/hardware/avr/3.0.2/cores/MCUdude_corefiles/HardwareSerial0.cpp:63
#elif defined(USART0_UDRE_vect)
ISR(USART0_UDRE_vect)
#else
  #error "Don't know what the Data Register Empty vector is called for Serial"
#endif
{
    17b6:	1f 92       	push	r1
    17b8:	0f 92       	push	r0
    17ba:	0f b6       	in	r0, 0x3f	; 63
    17bc:	0f 92       	push	r0
    17be:	11 24       	eor	r1, r1
    17c0:	2f 93       	push	r18
    17c2:	3f 93       	push	r19
    17c4:	4f 93       	push	r20
    17c6:	5f 93       	push	r21
    17c8:	6f 93       	push	r22
    17ca:	7f 93       	push	r23
    17cc:	8f 93       	push	r24
    17ce:	9f 93       	push	r25
    17d0:	af 93       	push	r26
    17d2:	bf 93       	push	r27
    17d4:	ef 93       	push	r30
    17d6:	ff 93       	push	r31
/home/huser/.arduino15/packages/MiniCore/hardware/avr/3.0.2/cores/MCUdude_corefiles/HardwareSerial0.cpp:64
  Serial._tx_udr_empty_irq();
    17d8:	8a e7       	ldi	r24, 0x7A	; 122
    17da:	94 e0       	ldi	r25, 0x04	; 4
    17dc:	0e 94 62 03 	call	0x6c4	; 0x6c4 <HardwareSerial::_tx_udr_empty_irq()>
/home/huser/.arduino15/packages/MiniCore/hardware/avr/3.0.2/cores/MCUdude_corefiles/HardwareSerial0.cpp:65
}
    17e0:	ff 91       	pop	r31
    17e2:	ef 91       	pop	r30
    17e4:	bf 91       	pop	r27
    17e6:	af 91       	pop	r26
    17e8:	9f 91       	pop	r25
    17ea:	8f 91       	pop	r24
    17ec:	7f 91       	pop	r23
    17ee:	6f 91       	pop	r22
    17f0:	5f 91       	pop	r21
    17f2:	4f 91       	pop	r20
    17f4:	3f 91       	pop	r19
    17f6:	2f 91       	pop	r18
    17f8:	0f 90       	pop	r0
    17fa:	0f be       	out	0x3f, r0	; 63
    17fc:	0f 90       	pop	r0
    17fe:	1f 90       	pop	r1
    1800:	18 95       	reti

00001802 <__vector_18>:
__vector_18():
/home/huser/.arduino15/packages/MiniCore/hardware/avr/3.0.2/cores/MCUdude_corefiles/HardwareSerial0.cpp:50
#elif defined(USART_RX_vect)
  ISR(USART_RX_vect)
#else
  #error "Don't know what the Data Received vector is called for Serial"
#endif
  {
    1802:	1f 92       	push	r1
    1804:	0f 92       	push	r0
    1806:	0f b6       	in	r0, 0x3f	; 63
    1808:	0f 92       	push	r0
    180a:	11 24       	eor	r1, r1
    180c:	2f 93       	push	r18
    180e:	8f 93       	push	r24
    1810:	9f 93       	push	r25
    1812:	ef 93       	push	r30
    1814:	ff 93       	push	r31
_rx_complete_irq():
/home/huser/.arduino15/packages/MiniCore/hardware/avr/3.0.2/cores/MCUdude_corefiles/HardwareSerial_private.h:100

// Actual interrupt handlers //////////////////////////////////////////////////////////////

void HardwareSerial::_rx_complete_irq(void)
{
  if (bit_is_clear(*_ucsra, UPE0)) {
    1816:	e0 91 8a 04 	lds	r30, 0x048A	; 0x80048a <Serial+0x10>
    181a:	f0 91 8b 04 	lds	r31, 0x048B	; 0x80048b <Serial+0x11>
    181e:	80 81       	ld	r24, Z
    1820:	e0 91 90 04 	lds	r30, 0x0490	; 0x800490 <Serial+0x16>
    1824:	f0 91 91 04 	lds	r31, 0x0491	; 0x800491 <Serial+0x17>
    1828:	82 fd       	sbrc	r24, 2
    182a:	1b c0       	rjmp	.+54     	; 0x1862 <__vector_18+0x60>
/home/huser/.arduino15/packages/MiniCore/hardware/avr/3.0.2/cores/MCUdude_corefiles/HardwareSerial_private.h:103
    // No Parity error, read byte and store it in the buffer if there is
    // room
    unsigned char c = *_udr;
    182c:	90 81       	ld	r25, Z
/home/huser/.arduino15/packages/MiniCore/hardware/avr/3.0.2/cores/MCUdude_corefiles/HardwareSerial_private.h:104
    rx_buffer_index_t i = (unsigned int)(_rx_buffer_head + 1) % SERIAL_RX_BUFFER_SIZE;
    182e:	80 91 93 04 	lds	r24, 0x0493	; 0x800493 <Serial+0x19>
    1832:	8f 5f       	subi	r24, 0xFF	; 255
    1834:	8f 73       	andi	r24, 0x3F	; 63
/home/huser/.arduino15/packages/MiniCore/hardware/avr/3.0.2/cores/MCUdude_corefiles/HardwareSerial_private.h:110

    // if we should be storing the received character into the location
    // just before the tail (meaning that the head would advance to the
    // current location of the tail), we're about to overflow the buffer
    // and so we don't write the character or advance the head.
    if (i != _rx_buffer_tail) {
    1836:	20 91 94 04 	lds	r18, 0x0494	; 0x800494 <Serial+0x1a>
    183a:	82 17       	cp	r24, r18
    183c:	41 f0       	breq	.+16     	; 0x184e <__vector_18+0x4c>
/home/huser/.arduino15/packages/MiniCore/hardware/avr/3.0.2/cores/MCUdude_corefiles/HardwareSerial_private.h:111
      _rx_buffer[_rx_buffer_head] = c;
    183e:	e0 91 93 04 	lds	r30, 0x0493	; 0x800493 <Serial+0x19>
    1842:	f0 e0       	ldi	r31, 0x00	; 0
    1844:	e6 58       	subi	r30, 0x86	; 134
    1846:	fb 4f       	sbci	r31, 0xFB	; 251
    1848:	95 8f       	std	Z+29, r25	; 0x1d
/home/huser/.arduino15/packages/MiniCore/hardware/avr/3.0.2/cores/MCUdude_corefiles/HardwareSerial_private.h:112
      _rx_buffer_head = i;
    184a:	80 93 93 04 	sts	0x0493, r24	; 0x800493 <Serial+0x19>
__vector_18():
/home/huser/.arduino15/packages/MiniCore/hardware/avr/3.0.2/cores/MCUdude_corefiles/HardwareSerial0.cpp:52
    Serial._rx_complete_irq();
  }
    184e:	ff 91       	pop	r31
    1850:	ef 91       	pop	r30
    1852:	9f 91       	pop	r25
    1854:	8f 91       	pop	r24
    1856:	2f 91       	pop	r18
    1858:	0f 90       	pop	r0
    185a:	0f be       	out	0x3f, r0	; 63
    185c:	0f 90       	pop	r0
    185e:	1f 90       	pop	r1
    1860:	18 95       	reti
_rx_complete_irq():
/home/huser/.arduino15/packages/MiniCore/hardware/avr/3.0.2/cores/MCUdude_corefiles/HardwareSerial_private.h:116
    }
  } else {
    // Parity error, read byte but discard it
    *_udr;
    1862:	80 81       	ld	r24, Z
    1864:	f4 cf       	rjmp	.-24     	; 0x184e <__vector_18+0x4c>

00001866 <__vector_24>:
__vector_24():
/home/huser/.arduino15/packages/MiniCore/hardware/avr/3.0.2/libraries/Wire/src/utility/twi.c:534
  }
  return(flag);
}

ISR(TWI_vect)
{
    1866:	1f 92       	push	r1
    1868:	0f 92       	push	r0
    186a:	0f b6       	in	r0, 0x3f	; 63
    186c:	0f 92       	push	r0
    186e:	11 24       	eor	r1, r1
    1870:	2f 93       	push	r18
    1872:	3f 93       	push	r19
    1874:	4f 93       	push	r20
    1876:	5f 93       	push	r21
    1878:	6f 93       	push	r22
    187a:	7f 93       	push	r23
    187c:	8f 93       	push	r24
    187e:	9f 93       	push	r25
    1880:	af 93       	push	r26
    1882:	bf 93       	push	r27
    1884:	ef 93       	push	r30
    1886:	ff 93       	push	r31
/home/huser/.arduino15/packages/MiniCore/hardware/avr/3.0.2/libraries/Wire/src/utility/twi.c:535
  switch(TW_STATUS){
    1888:	80 91 b9 00 	lds	r24, 0x00B9	; 0x8000b9 <__TEXT_REGION_LENGTH__+0x7f80b9>
    188c:	88 7f       	andi	r24, 0xF8	; 248
    188e:	80 36       	cpi	r24, 0x60	; 96
    1890:	09 f4       	brne	.+2      	; 0x1894 <__vector_24+0x2e>
    1892:	4c c0       	rjmp	.+152    	; 0x192c <__vector_24+0xc6>
    1894:	08 f0       	brcs	.+2      	; 0x1898 <__vector_24+0x32>
    1896:	3f c0       	rjmp	.+126    	; 0x1916 <__vector_24+0xb0>
    1898:	88 32       	cpi	r24, 0x28	; 40
    189a:	09 f4       	brne	.+2      	; 0x189e <__vector_24+0x38>
    189c:	a8 c0       	rjmp	.+336    	; 0x19ee <__vector_24+0x188>
    189e:	18 f5       	brcc	.+70     	; 0x18e6 <__vector_24+0x80>
    18a0:	80 31       	cpi	r24, 0x10	; 16
    18a2:	09 f4       	brne	.+2      	; 0x18a6 <__vector_24+0x40>
    18a4:	9c c0       	rjmp	.+312    	; 0x19de <__vector_24+0x178>
    18a6:	b8 f4       	brcc	.+46     	; 0x18d6 <__vector_24+0x70>
    18a8:	88 23       	and	r24, r24
    18aa:	09 f4       	brne	.+2      	; 0x18ae <__vector_24+0x48>
    18ac:	05 c1       	rjmp	.+522    	; 0x1ab8 <__vector_24+0x252>
    18ae:	88 30       	cpi	r24, 0x08	; 8
    18b0:	09 f4       	brne	.+2      	; 0x18b4 <__vector_24+0x4e>
    18b2:	95 c0       	rjmp	.+298    	; 0x19de <__vector_24+0x178>
/home/huser/.arduino15/packages/MiniCore/hardware/avr/3.0.2/libraries/Wire/src/utility/twi.c:696
    case TW_BUS_ERROR: // bus error, illegal stop/start
      twi_error = TW_BUS_ERROR;
      twi_stop();
      break;
  }
}
    18b4:	ff 91       	pop	r31
    18b6:	ef 91       	pop	r30
    18b8:	bf 91       	pop	r27
    18ba:	af 91       	pop	r26
    18bc:	9f 91       	pop	r25
    18be:	8f 91       	pop	r24
    18c0:	7f 91       	pop	r23
    18c2:	6f 91       	pop	r22
    18c4:	5f 91       	pop	r21
    18c6:	4f 91       	pop	r20
    18c8:	3f 91       	pop	r19
    18ca:	2f 91       	pop	r18
    18cc:	0f 90       	pop	r0
    18ce:	0f be       	out	0x3f, r0	; 63
    18d0:	0f 90       	pop	r0
    18d2:	1f 90       	pop	r1
    18d4:	18 95       	reti
/home/huser/.arduino15/packages/MiniCore/hardware/avr/3.0.2/libraries/Wire/src/utility/twi.c:535
  return(flag);
}

ISR(TWI_vect)
{
  switch(TW_STATUS){
    18d6:	88 31       	cpi	r24, 0x18	; 24
    18d8:	09 f4       	brne	.+2      	; 0x18dc <__vector_24+0x76>
    18da:	89 c0       	rjmp	.+274    	; 0x19ee <__vector_24+0x188>
    18dc:	80 32       	cpi	r24, 0x20	; 32
    18de:	51 f7       	brne	.-44     	; 0x18b4 <__vector_24+0x4e>
/home/huser/.arduino15/packages/MiniCore/hardware/avr/3.0.2/libraries/Wire/src/utility/twi.c:570
    case TW_MT_SLA_NACK:  // address sent, nack received
      twi_error = TW_MT_SLA_NACK;
      twi_stop();
      break;
    case TW_MT_DATA_NACK: // data sent, nack received
      twi_error = TW_MT_DATA_NACK;
    18e0:	80 93 cc 03 	sts	0x03CC, r24	; 0x8003cc <twi_error>
    18e4:	15 c0       	rjmp	.+42     	; 0x1910 <__vector_24+0xaa>
/home/huser/.arduino15/packages/MiniCore/hardware/avr/3.0.2/libraries/Wire/src/utility/twi.c:535
  return(flag);
}

ISR(TWI_vect)
{
  switch(TW_STATUS){
    18e6:	80 34       	cpi	r24, 0x40	; 64
    18e8:	09 f4       	brne	.+2      	; 0x18ec <__vector_24+0x86>
    18ea:	a6 c0       	rjmp	.+332    	; 0x1a38 <__vector_24+0x1d2>
    18ec:	48 f4       	brcc	.+18     	; 0x1900 <__vector_24+0x9a>
    18ee:	80 33       	cpi	r24, 0x30	; 48
    18f0:	b9 f3       	breq	.-18     	; 0x18e0 <__vector_24+0x7a>
    18f2:	88 33       	cpi	r24, 0x38	; 56
    18f4:	f9 f6       	brne	.-66     	; 0x18b4 <__vector_24+0x4e>
/home/huser/.arduino15/packages/MiniCore/hardware/avr/3.0.2/libraries/Wire/src/utility/twi.c:574
    case TW_MT_DATA_NACK: // data sent, nack received
      twi_error = TW_MT_DATA_NACK;
      twi_stop();
      break;
    case TW_MT_ARB_LOST: // lost bus arbitration
      twi_error = TW_MT_ARB_LOST;
    18f6:	80 93 cc 03 	sts	0x03CC, r24	; 0x8003cc <twi_error>
/home/huser/.arduino15/packages/MiniCore/hardware/avr/3.0.2/libraries/Wire/src/utility/twi.c:575
      twi_releaseBus();
    18fa:	0e 94 7e 01 	call	0x2fc	; 0x2fc <twi_releaseBus>
    18fe:	da cf       	rjmp	.-76     	; 0x18b4 <__vector_24+0x4e>
/home/huser/.arduino15/packages/MiniCore/hardware/avr/3.0.2/libraries/Wire/src/utility/twi.c:535
  return(flag);
}

ISR(TWI_vect)
{
  switch(TW_STATUS){
    1900:	80 35       	cpi	r24, 0x50	; 80
    1902:	09 f4       	brne	.+2      	; 0x1906 <__vector_24+0xa0>
    1904:	89 c0       	rjmp	.+274    	; 0x1a18 <__vector_24+0x1b2>
    1906:	88 35       	cpi	r24, 0x58	; 88
    1908:	09 f4       	brne	.+2      	; 0x190c <__vector_24+0xa6>
    190a:	9e c0       	rjmp	.+316    	; 0x1a48 <__vector_24+0x1e2>
    190c:	88 34       	cpi	r24, 0x48	; 72
    190e:	91 f6       	brne	.-92     	; 0x18b4 <__vector_24+0x4e>
/home/huser/.arduino15/packages/MiniCore/hardware/avr/3.0.2/libraries/Wire/src/utility/twi.c:693
    // All
    case TW_NO_INFO:   // no state information
      break;
    case TW_BUS_ERROR: // bus error, illegal stop/start
      twi_error = TW_BUS_ERROR;
      twi_stop();
    1910:	0e 94 74 01 	call	0x2e8	; 0x2e8 <twi_stop>
    1914:	cf cf       	rjmp	.-98     	; 0x18b4 <__vector_24+0x4e>
/home/huser/.arduino15/packages/MiniCore/hardware/avr/3.0.2/libraries/Wire/src/utility/twi.c:535
  return(flag);
}

ISR(TWI_vect)
{
  switch(TW_STATUS){
    1916:	88 39       	cpi	r24, 0x98	; 152
    1918:	09 f4       	brne	.+2      	; 0x191c <__vector_24+0xb6>
    191a:	94 c0       	rjmp	.+296    	; 0x1a44 <__vector_24+0x1de>
    191c:	38 f5       	brcc	.+78     	; 0x196c <__vector_24+0x106>
    191e:	88 37       	cpi	r24, 0x78	; 120
    1920:	29 f0       	breq	.+10     	; 0x192c <__vector_24+0xc6>
    1922:	50 f4       	brcc	.+20     	; 0x1938 <__vector_24+0xd2>
    1924:	88 36       	cpi	r24, 0x68	; 104
    1926:	11 f0       	breq	.+4      	; 0x192c <__vector_24+0xc6>
    1928:	80 37       	cpi	r24, 0x70	; 112
    192a:	21 f6       	brne	.-120    	; 0x18b4 <__vector_24+0x4e>
/home/huser/.arduino15/packages/MiniCore/hardware/avr/3.0.2/libraries/Wire/src/utility/twi.c:616
    case TW_SR_SLA_ACK:   // addressed, returned ack
    case TW_SR_GCALL_ACK: // addressed generally, returned ack
    case TW_SR_ARB_LOST_SLA_ACK:   // lost arbitration, returned ack
    case TW_SR_ARB_LOST_GCALL_ACK: // lost arbitration, returned ack
      // enter slave receiver mode
      twi_state = TWI_SRX;
    192c:	83 e0       	ldi	r24, 0x03	; 3
    192e:	80 93 cd 03 	sts	0x03CD, r24	; 0x8003cd <twi_state>
/home/huser/.arduino15/packages/MiniCore/hardware/avr/3.0.2/libraries/Wire/src/utility/twi.c:618
      // indicate that rx buffer can be overwritten and ack
      twi_rxBufferIndex = 0;
    1932:	10 92 cb 03 	sts	0x03CB, r1	; 0x8003cb <twi_rxBufferIndex>
    1936:	57 c0       	rjmp	.+174    	; 0x19e6 <__vector_24+0x180>
/home/huser/.arduino15/packages/MiniCore/hardware/avr/3.0.2/libraries/Wire/src/utility/twi.c:535
  return(flag);
}

ISR(TWI_vect)
{
  switch(TW_STATUS){
    1938:	88 38       	cpi	r24, 0x88	; 136
    193a:	09 f4       	brne	.+2      	; 0x193e <__vector_24+0xd8>
    193c:	83 c0       	rjmp	.+262    	; 0x1a44 <__vector_24+0x1de>
    193e:	80 39       	cpi	r24, 0x90	; 144
    1940:	19 f0       	breq	.+6      	; 0x1948 <__vector_24+0xe2>
    1942:	80 38       	cpi	r24, 0x80	; 128
    1944:	09 f0       	breq	.+2      	; 0x1948 <__vector_24+0xe2>
    1946:	b6 cf       	rjmp	.-148    	; 0x18b4 <__vector_24+0x4e>
/home/huser/.arduino15/packages/MiniCore/hardware/avr/3.0.2/libraries/Wire/src/utility/twi.c:624
      twi_reply(1);
      break;
    case TW_SR_DATA_ACK:       // data received, returned ack
    case TW_SR_GCALL_DATA_ACK: // data received generally, returned ack
      // if there is still room in the rx buffer
      if(twi_rxBufferIndex < TWI_BUFFER_SIZE){
    1948:	80 91 cb 03 	lds	r24, 0x03CB	; 0x8003cb <twi_rxBufferIndex>
    194c:	80 32       	cpi	r24, 0x20	; 32
    194e:	08 f0       	brcs	.+2      	; 0x1952 <__vector_24+0xec>
    1950:	79 c0       	rjmp	.+242    	; 0x1a44 <__vector_24+0x1de>
/home/huser/.arduino15/packages/MiniCore/hardware/avr/3.0.2/libraries/Wire/src/utility/twi.c:626
        // put byte in buffer and ack
        twi_rxBuffer[twi_rxBufferIndex++] = TWDR;
    1952:	e0 91 cb 03 	lds	r30, 0x03CB	; 0x8003cb <twi_rxBufferIndex>
    1956:	81 e0       	ldi	r24, 0x01	; 1
    1958:	8e 0f       	add	r24, r30
    195a:	80 93 cb 03 	sts	0x03CB, r24	; 0x8003cb <twi_rxBufferIndex>
    195e:	80 91 bb 00 	lds	r24, 0x00BB	; 0x8000bb <__TEXT_REGION_LENGTH__+0x7f80bb>
    1962:	f0 e0       	ldi	r31, 0x00	; 0
    1964:	e5 55       	subi	r30, 0x55	; 85
    1966:	fc 4f       	sbci	r31, 0xFC	; 252
    1968:	80 83       	st	Z, r24
    196a:	3d c0       	rjmp	.+122    	; 0x19e6 <__vector_24+0x180>
/home/huser/.arduino15/packages/MiniCore/hardware/avr/3.0.2/libraries/Wire/src/utility/twi.c:535
  return(flag);
}

ISR(TWI_vect)
{
  switch(TW_STATUS){
    196c:	80 3b       	cpi	r24, 0xB0	; 176
    196e:	39 f0       	breq	.+14     	; 0x197e <__vector_24+0x118>
    1970:	e0 f4       	brcc	.+56     	; 0x19aa <__vector_24+0x144>
    1972:	80 3a       	cpi	r24, 0xA0	; 160
    1974:	09 f4       	brne	.+2      	; 0x1978 <__vector_24+0x112>
    1976:	85 c0       	rjmp	.+266    	; 0x1a82 <__vector_24+0x21c>
    1978:	88 3a       	cpi	r24, 0xA8	; 168
    197a:	09 f0       	breq	.+2      	; 0x197e <__vector_24+0x118>
    197c:	9b cf       	rjmp	.-202    	; 0x18b4 <__vector_24+0x4e>
/home/huser/.arduino15/packages/MiniCore/hardware/avr/3.0.2/libraries/Wire/src/utility/twi.c:655

    // Slave Transmitter
    case TW_ST_SLA_ACK:          // addressed, returned ack
    case TW_ST_ARB_LOST_SLA_ACK: // arbitration lost, returned ack
      // enter slave transmitter mode
      twi_state = TWI_STX;
    197e:	84 e0       	ldi	r24, 0x04	; 4
    1980:	80 93 cd 03 	sts	0x03CD, r24	; 0x8003cd <twi_state>
/home/huser/.arduino15/packages/MiniCore/hardware/avr/3.0.2/libraries/Wire/src/utility/twi.c:657
      // ready the tx buffer index for iteration
      twi_txBufferIndex = 0;
    1984:	10 92 aa 03 	sts	0x03AA, r1	; 0x8003aa <twi_txBufferIndex>
/home/huser/.arduino15/packages/MiniCore/hardware/avr/3.0.2/libraries/Wire/src/utility/twi.c:659
      // set tx buffer length to be zero, to verify if user changes it
      twi_txBufferLength = 0;
    1988:	10 92 a9 03 	sts	0x03A9, r1	; 0x8003a9 <twi_txBufferLength>
/home/huser/.arduino15/packages/MiniCore/hardware/avr/3.0.2/libraries/Wire/src/utility/twi.c:662
      // request for txBuffer to be filled and length to be set
      // note: user must call twi_transmit(bytes, length) to do this
      twi_onSlaveTransmit();
    198c:	e0 91 19 05 	lds	r30, 0x0519	; 0x800519 <twi_onSlaveTransmit>
    1990:	f0 91 1a 05 	lds	r31, 0x051A	; 0x80051a <twi_onSlaveTransmit+0x1>
    1994:	09 95       	icall
/home/huser/.arduino15/packages/MiniCore/hardware/avr/3.0.2/libraries/Wire/src/utility/twi.c:664
      // if they didn't change buffer & length, initialize it
      if(0 == twi_txBufferLength){
    1996:	80 91 a9 03 	lds	r24, 0x03A9	; 0x8003a9 <twi_txBufferLength>
    199a:	81 11       	cpse	r24, r1
    199c:	0f c0       	rjmp	.+30     	; 0x19bc <__vector_24+0x156>
/home/huser/.arduino15/packages/MiniCore/hardware/avr/3.0.2/libraries/Wire/src/utility/twi.c:665
        twi_txBufferLength = 1;
    199e:	81 e0       	ldi	r24, 0x01	; 1
    19a0:	80 93 a9 03 	sts	0x03A9, r24	; 0x8003a9 <twi_txBufferLength>
/home/huser/.arduino15/packages/MiniCore/hardware/avr/3.0.2/libraries/Wire/src/utility/twi.c:666
        twi_txBuffer[0] = 0x00;
    19a4:	10 92 89 03 	sts	0x0389, r1	; 0x800389 <twi_txBuffer>
    19a8:	09 c0       	rjmp	.+18     	; 0x19bc <__vector_24+0x156>
/home/huser/.arduino15/packages/MiniCore/hardware/avr/3.0.2/libraries/Wire/src/utility/twi.c:535
  return(flag);
}

ISR(TWI_vect)
{
  switch(TW_STATUS){
    19aa:	80 3c       	cpi	r24, 0xC0	; 192
    19ac:	09 f4       	brne	.+2      	; 0x19b0 <__vector_24+0x14a>
    19ae:	82 c0       	rjmp	.+260    	; 0x1ab4 <__vector_24+0x24e>
    19b0:	88 3c       	cpi	r24, 0xC8	; 200
    19b2:	09 f4       	brne	.+2      	; 0x19b6 <__vector_24+0x150>
    19b4:	7f c0       	rjmp	.+254    	; 0x1ab4 <__vector_24+0x24e>
    19b6:	88 3b       	cpi	r24, 0xB8	; 184
    19b8:	09 f0       	breq	.+2      	; 0x19bc <__vector_24+0x156>
    19ba:	7c cf       	rjmp	.-264    	; 0x18b4 <__vector_24+0x4e>
/home/huser/.arduino15/packages/MiniCore/hardware/avr/3.0.2/libraries/Wire/src/utility/twi.c:672
      }
      // transmit first byte from buffer, fall
      /* fall through */
    case TW_ST_DATA_ACK: // byte sent, ack returned
      // copy data to output register
      TWDR = twi_txBuffer[twi_txBufferIndex++];
    19bc:	e0 91 aa 03 	lds	r30, 0x03AA	; 0x8003aa <twi_txBufferIndex>
    19c0:	81 e0       	ldi	r24, 0x01	; 1
    19c2:	8e 0f       	add	r24, r30
    19c4:	80 93 aa 03 	sts	0x03AA, r24	; 0x8003aa <twi_txBufferIndex>
    19c8:	f0 e0       	ldi	r31, 0x00	; 0
    19ca:	e7 57       	subi	r30, 0x77	; 119
    19cc:	fc 4f       	sbci	r31, 0xFC	; 252
    19ce:	80 81       	ld	r24, Z
    19d0:	80 93 bb 00 	sts	0x00BB, r24	; 0x8000bb <__TEXT_REGION_LENGTH__+0x7f80bb>
/home/huser/.arduino15/packages/MiniCore/hardware/avr/3.0.2/libraries/Wire/src/utility/twi.c:674
      // if there is more to send, ack, otherwise nack
      if(twi_txBufferIndex < twi_txBufferLength){
    19d4:	90 91 aa 03 	lds	r25, 0x03AA	; 0x8003aa <twi_txBufferIndex>
    19d8:	80 91 a9 03 	lds	r24, 0x03A9	; 0x8003a9 <twi_txBufferLength>
    19dc:	31 c0       	rjmp	.+98     	; 0x1a40 <__vector_24+0x1da>
/home/huser/.arduino15/packages/MiniCore/hardware/avr/3.0.2/libraries/Wire/src/utility/twi.c:540
  switch(TW_STATUS){
    // All Master
    case TW_START:     // sent start condition
    case TW_REP_START: // sent repeated start condition
      // copy device address and r/w bit to output register and ack
      TWDR = twi_slarw;
    19de:	80 91 d4 03 	lds	r24, 0x03D4	; 0x8003d4 <twi_slarw>
/home/huser/.arduino15/packages/MiniCore/hardware/avr/3.0.2/libraries/Wire/src/utility/twi.c:550
    case TW_MT_SLA_ACK:  // slave receiver acked address
    case TW_MT_DATA_ACK: // slave receiver acked data
      // if there is data to send, send it, otherwise stop
      if(twi_masterBufferIndex < twi_masterBufferLength){
        // copy data to output register and ack
        TWDR = twi_masterBuffer[twi_masterBufferIndex++];
    19e2:	80 93 bb 00 	sts	0x00BB, r24	; 0x8000bb <__TEXT_REGION_LENGTH__+0x7f80bb>
twi_reply():
/home/huser/.arduino15/packages/MiniCore/hardware/avr/3.0.2/libraries/Wire/src/utility/twi.c:421
 */
void twi_reply(uint8_t ack)
{
  // transmit master read ready signal, with or without ack
  if(ack){
    TWCR = _BV(TWEN) | _BV(TWIE) | _BV(TWINT) | _BV(TWEA);
    19e6:	85 ec       	ldi	r24, 0xC5	; 197
/home/huser/.arduino15/packages/MiniCore/hardware/avr/3.0.2/libraries/Wire/src/utility/twi.c:423
  }else{
    TWCR = _BV(TWEN) | _BV(TWIE) | _BV(TWINT);
    19e8:	80 93 bc 00 	sts	0x00BC, r24	; 0x8000bc <__TEXT_REGION_LENGTH__+0x7f80bc>
    19ec:	63 cf       	rjmp	.-314    	; 0x18b4 <__vector_24+0x4e>
__vector_24():
/home/huser/.arduino15/packages/MiniCore/hardware/avr/3.0.2/libraries/Wire/src/utility/twi.c:548

    // Master Transmitter
    case TW_MT_SLA_ACK:  // slave receiver acked address
    case TW_MT_DATA_ACK: // slave receiver acked data
      // if there is data to send, send it, otherwise stop
      if(twi_masterBufferIndex < twi_masterBufferLength){
    19ee:	90 91 d3 03 	lds	r25, 0x03D3	; 0x8003d3 <twi_masterBufferIndex>
    19f2:	80 91 d2 03 	lds	r24, 0x03D2	; 0x8003d2 <twi_masterBufferLength>
    19f6:	98 17       	cp	r25, r24
    19f8:	b8 f5       	brcc	.+110    	; 0x1a68 <__vector_24+0x202>
/home/huser/.arduino15/packages/MiniCore/hardware/avr/3.0.2/libraries/Wire/src/utility/twi.c:550
        // copy data to output register and ack
        TWDR = twi_masterBuffer[twi_masterBufferIndex++];
    19fa:	80 91 d0 03 	lds	r24, 0x03D0	; 0x8003d0 <twi_masterBuffer>
    19fe:	90 91 d1 03 	lds	r25, 0x03D1	; 0x8003d1 <twi_masterBuffer+0x1>
    1a02:	e0 91 d3 03 	lds	r30, 0x03D3	; 0x8003d3 <twi_masterBufferIndex>
    1a06:	21 e0       	ldi	r18, 0x01	; 1
    1a08:	2e 0f       	add	r18, r30
    1a0a:	20 93 d3 03 	sts	0x03D3, r18	; 0x8003d3 <twi_masterBufferIndex>
    1a0e:	e8 0f       	add	r30, r24
    1a10:	f9 2f       	mov	r31, r25
    1a12:	f1 1d       	adc	r31, r1
    1a14:	80 81       	ld	r24, Z
    1a16:	e5 cf       	rjmp	.-54     	; 0x19e2 <__vector_24+0x17c>
/home/huser/.arduino15/packages/MiniCore/hardware/avr/3.0.2/libraries/Wire/src/utility/twi.c:581
      break;

    // Master Receiver
    case TW_MR_DATA_ACK: // data received, ack sent
      // put byte into buffer
      twi_masterBuffer[twi_masterBufferIndex++] = TWDR;
    1a18:	20 91 d0 03 	lds	r18, 0x03D0	; 0x8003d0 <twi_masterBuffer>
    1a1c:	30 91 d1 03 	lds	r19, 0x03D1	; 0x8003d1 <twi_masterBuffer+0x1>
    1a20:	e0 91 d3 03 	lds	r30, 0x03D3	; 0x8003d3 <twi_masterBufferIndex>
    1a24:	81 e0       	ldi	r24, 0x01	; 1
    1a26:	8e 0f       	add	r24, r30
    1a28:	80 93 d3 03 	sts	0x03D3, r24	; 0x8003d3 <twi_masterBufferIndex>
    1a2c:	80 91 bb 00 	lds	r24, 0x00BB	; 0x8000bb <__TEXT_REGION_LENGTH__+0x7f80bb>
    1a30:	e2 0f       	add	r30, r18
    1a32:	f3 2f       	mov	r31, r19
    1a34:	f1 1d       	adc	r31, r1
    1a36:	80 83       	st	Z, r24
/home/huser/.arduino15/packages/MiniCore/hardware/avr/3.0.2/libraries/Wire/src/utility/twi.c:585
      /* fall through */
    case TW_MR_SLA_ACK:  // address sent, ack received
      // ack if more bytes are expected, otherwise nack
      if(twi_masterBufferIndex < twi_masterBufferLength){
    1a38:	90 91 d3 03 	lds	r25, 0x03D3	; 0x8003d3 <twi_masterBufferIndex>
    1a3c:	80 91 d2 03 	lds	r24, 0x03D2	; 0x8003d2 <twi_masterBufferLength>
/home/huser/.arduino15/packages/MiniCore/hardware/avr/3.0.2/libraries/Wire/src/utility/twi.c:674
      /* fall through */
    case TW_ST_DATA_ACK: // byte sent, ack returned
      // copy data to output register
      TWDR = twi_txBuffer[twi_txBufferIndex++];
      // if there is more to send, ack, otherwise nack
      if(twi_txBufferIndex < twi_txBufferLength){
    1a40:	98 17       	cp	r25, r24
    1a42:	88 f2       	brcs	.-94     	; 0x19e6 <__vector_24+0x180>
twi_reply():
/home/huser/.arduino15/packages/MiniCore/hardware/avr/3.0.2/libraries/Wire/src/utility/twi.c:423
{
  // transmit master read ready signal, with or without ack
  if(ack){
    TWCR = _BV(TWEN) | _BV(TWIE) | _BV(TWINT) | _BV(TWEA);
  }else{
    TWCR = _BV(TWEN) | _BV(TWIE) | _BV(TWINT);
    1a44:	85 e8       	ldi	r24, 0x85	; 133
    1a46:	d0 cf       	rjmp	.-96     	; 0x19e8 <__vector_24+0x182>
__vector_24():
/home/huser/.arduino15/packages/MiniCore/hardware/avr/3.0.2/libraries/Wire/src/utility/twi.c:593
        twi_reply(0);
      }
      break;
    case TW_MR_DATA_NACK: // data received, nack sent
      // put final byte into buffer
      twi_masterBuffer[twi_masterBufferIndex++] = TWDR;
    1a48:	20 91 d0 03 	lds	r18, 0x03D0	; 0x8003d0 <twi_masterBuffer>
    1a4c:	30 91 d1 03 	lds	r19, 0x03D1	; 0x8003d1 <twi_masterBuffer+0x1>
    1a50:	e0 91 d3 03 	lds	r30, 0x03D3	; 0x8003d3 <twi_masterBufferIndex>
    1a54:	81 e0       	ldi	r24, 0x01	; 1
    1a56:	8e 0f       	add	r24, r30
    1a58:	80 93 d3 03 	sts	0x03D3, r24	; 0x8003d3 <twi_masterBufferIndex>
    1a5c:	80 91 bb 00 	lds	r24, 0x00BB	; 0x8000bb <__TEXT_REGION_LENGTH__+0x7f80bb>
    1a60:	e2 0f       	add	r30, r18
    1a62:	f3 2f       	mov	r31, r19
    1a64:	f1 1d       	adc	r31, r1
    1a66:	80 83       	st	Z, r24
/home/huser/.arduino15/packages/MiniCore/hardware/avr/3.0.2/libraries/Wire/src/utility/twi.c:594
  if (twi_sendStop)
    1a68:	80 91 cf 03 	lds	r24, 0x03CF	; 0x8003cf <twi_sendStop>
    1a6c:	81 11       	cpse	r24, r1
    1a6e:	50 cf       	rjmp	.-352    	; 0x1910 <__vector_24+0xaa>
/home/huser/.arduino15/packages/MiniCore/hardware/avr/3.0.2/libraries/Wire/src/utility/twi.c:597
          twi_stop();
  else {
    twi_inRepStart = true;  // we're going to send the START
    1a70:	81 e0       	ldi	r24, 0x01	; 1
    1a72:	80 93 ce 03 	sts	0x03CE, r24	; 0x8003ce <twi_inRepStart>
/home/huser/.arduino15/packages/MiniCore/hardware/avr/3.0.2/libraries/Wire/src/utility/twi.c:601
    // don't enable the interrupt. We'll generate the start, but we
    // avoid handling the interrupt until we're in the next transaction,
    // at the point where we would normally issue the start.
    TWCR = _BV(TWINT) | _BV(TWSTA)| _BV(TWEN) ;
    1a76:	84 ea       	ldi	r24, 0xA4	; 164
twi_reply():
/home/huser/.arduino15/packages/MiniCore/hardware/avr/3.0.2/libraries/Wire/src/utility/twi.c:421
 */
void twi_reply(uint8_t ack)
{
  // transmit master read ready signal, with or without ack
  if(ack){
    TWCR = _BV(TWEN) | _BV(TWIE) | _BV(TWINT) | _BV(TWEA);
    1a78:	80 93 bc 00 	sts	0x00BC, r24	; 0x8000bc <__TEXT_REGION_LENGTH__+0x7f80bc>
__vector_24():
/home/huser/.arduino15/packages/MiniCore/hardware/avr/3.0.2/libraries/Wire/src/utility/twi.c:685
    case TW_ST_DATA_NACK: // received nack, we are done
    case TW_ST_LAST_DATA: // received ack, but we are done already!
      // ack future responses
      twi_reply(1);
      // leave slave receiver state
      twi_state = TWI_READY;
    1a7c:	10 92 cd 03 	sts	0x03CD, r1	; 0x8003cd <twi_state>
    1a80:	19 cf       	rjmp	.-462    	; 0x18b4 <__vector_24+0x4e>
/home/huser/.arduino15/packages/MiniCore/hardware/avr/3.0.2/libraries/Wire/src/utility/twi.c:635
        twi_reply(0);
      }
      break;
    case TW_SR_STOP: // stop or repeated start condition received
      // ack future responses and leave slave receiver state
      twi_releaseBus();
    1a82:	0e 94 7e 01 	call	0x2fc	; 0x2fc <twi_releaseBus>
/home/huser/.arduino15/packages/MiniCore/hardware/avr/3.0.2/libraries/Wire/src/utility/twi.c:637
      // put a null char after data if there's room
      if(twi_rxBufferIndex < TWI_BUFFER_SIZE){
    1a86:	80 91 cb 03 	lds	r24, 0x03CB	; 0x8003cb <twi_rxBufferIndex>
    1a8a:	80 32       	cpi	r24, 0x20	; 32
    1a8c:	30 f4       	brcc	.+12     	; 0x1a9a <__vector_24+0x234>
/home/huser/.arduino15/packages/MiniCore/hardware/avr/3.0.2/libraries/Wire/src/utility/twi.c:638
        twi_rxBuffer[twi_rxBufferIndex] = '\0';
    1a8e:	e0 91 cb 03 	lds	r30, 0x03CB	; 0x8003cb <twi_rxBufferIndex>
    1a92:	f0 e0       	ldi	r31, 0x00	; 0
    1a94:	e5 55       	subi	r30, 0x55	; 85
    1a96:	fc 4f       	sbci	r31, 0xFC	; 252
    1a98:	10 82       	st	Z, r1
/home/huser/.arduino15/packages/MiniCore/hardware/avr/3.0.2/libraries/Wire/src/utility/twi.c:641
      }
      // callback to user defined callback
      twi_onSlaveReceive(twi_rxBuffer, twi_rxBufferIndex);
    1a9a:	60 91 cb 03 	lds	r22, 0x03CB	; 0x8003cb <twi_rxBufferIndex>
    1a9e:	70 e0       	ldi	r23, 0x00	; 0
    1aa0:	e0 91 17 05 	lds	r30, 0x0517	; 0x800517 <twi_onSlaveReceive>
    1aa4:	f0 91 18 05 	lds	r31, 0x0518	; 0x800518 <twi_onSlaveReceive+0x1>
    1aa8:	8b ea       	ldi	r24, 0xAB	; 171
    1aaa:	93 e0       	ldi	r25, 0x03	; 3
    1aac:	09 95       	icall
/home/huser/.arduino15/packages/MiniCore/hardware/avr/3.0.2/libraries/Wire/src/utility/twi.c:643
      // since we submit rx buffer to "wire" library, we can reset it
      twi_rxBufferIndex = 0;
    1aae:	10 92 cb 03 	sts	0x03CB, r1	; 0x8003cb <twi_rxBufferIndex>
    1ab2:	00 cf       	rjmp	.-512    	; 0x18b4 <__vector_24+0x4e>
twi_reply():
/home/huser/.arduino15/packages/MiniCore/hardware/avr/3.0.2/libraries/Wire/src/utility/twi.c:421
 */
void twi_reply(uint8_t ack)
{
  // transmit master read ready signal, with or without ack
  if(ack){
    TWCR = _BV(TWEN) | _BV(TWIE) | _BV(TWINT) | _BV(TWEA);
    1ab4:	85 ec       	ldi	r24, 0xC5	; 197
    1ab6:	e0 cf       	rjmp	.-64     	; 0x1a78 <__vector_24+0x212>
__vector_24():
/home/huser/.arduino15/packages/MiniCore/hardware/avr/3.0.2/libraries/Wire/src/utility/twi.c:692

    // All
    case TW_NO_INFO:   // no state information
      break;
    case TW_BUS_ERROR: // bus error, illegal stop/start
      twi_error = TW_BUS_ERROR;
    1ab8:	10 92 cc 03 	sts	0x03CC, r1	; 0x8003cc <twi_error>
    1abc:	29 cf       	rjmp	.-430    	; 0x1910 <__vector_24+0xaa>

00001abe <__vector_11>:
__vector_11():
/home/huser/Dev/TAD_Workspace/Projects/firmwares/OnlyCell/OnlyCell.ino:275
  m_offTimeMotor = 266 - m_onTimeMotor;
}*/


// Timer 1 interrupt service routine
ISR(TIMER1_COMPA_vect) {
    1abe:	1f 92       	push	r1
    1ac0:	0f 92       	push	r0
    1ac2:	0f b6       	in	r0, 0x3f	; 63
    1ac4:	0f 92       	push	r0
    1ac6:	11 24       	eor	r1, r1
    1ac8:	2f 93       	push	r18
    1aca:	3f 93       	push	r19
    1acc:	4f 93       	push	r20
    1ace:	5f 93       	push	r21
    1ad0:	6f 93       	push	r22
    1ad2:	7f 93       	push	r23
    1ad4:	8f 93       	push	r24
    1ad6:	9f 93       	push	r25
    1ad8:	af 93       	push	r26
    1ada:	bf 93       	push	r27
    1adc:	ef 93       	push	r30
    1ade:	ff 93       	push	r31
    1ae0:	80 91 85 03 	lds	r24, 0x0385	; 0x800385 <__vector_11::pwmCounterHeater>
    1ae4:	90 91 86 03 	lds	r25, 0x0386	; 0x800386 <__vector_11::pwmCounterHeater+0x1>
/home/huser/Dev/TAD_Workspace/Projects/firmwares/OnlyCell/OnlyCell.ino:280
  static bool isHighHeater = false, isHighPeltier = false, isHighMotor = false;
  static uint16_t pwmCounterHeater = 0, pwmCounterPeltier = 0, pwmCounterMotor = 0;

  // Heater PWM logic
  if (isHighHeater) {
    1ae8:	20 91 87 03 	lds	r18, 0x0387	; 0x800387 <__vector_11::isHighHeater>
    1aec:	22 23       	and	r18, r18
    1aee:	09 f4       	brne	.+2      	; 0x1af2 <__vector_11+0x34>
    1af0:	4d c0       	rjmp	.+154    	; 0x1b8c <__vector_11+0xce>
/home/huser/Dev/TAD_Workspace/Projects/firmwares/OnlyCell/OnlyCell.ino:281
    if (pwmCounterHeater >= m_onTimeHeater) {
    1af2:	20 91 d7 03 	lds	r18, 0x03D7	; 0x8003d7 <m_onTimeHeater>
    1af6:	30 91 d8 03 	lds	r19, 0x03D8	; 0x8003d8 <m_onTimeHeater+0x1>
    1afa:	82 17       	cp	r24, r18
    1afc:	93 07       	cpc	r25, r19
    1afe:	50 f0       	brcs	.+20     	; 0x1b14 <__vector_11+0x56>
/home/huser/Dev/TAD_Workspace/Projects/firmwares/OnlyCell/OnlyCell.ino:282
      digitalWrite(HEATER_PWM_PIN, LOW);
    1b00:	60 e0       	ldi	r22, 0x00	; 0
    1b02:	88 e0       	ldi	r24, 0x08	; 8
    1b04:	0e 94 84 01 	call	0x308	; 0x308 <digitalWrite>
/home/huser/Dev/TAD_Workspace/Projects/firmwares/OnlyCell/OnlyCell.ino:283
      isHighHeater = false;
    1b08:	10 92 87 03 	sts	0x0387, r1	; 0x800387 <__vector_11::isHighHeater>
/home/huser/Dev/TAD_Workspace/Projects/firmwares/OnlyCell/OnlyCell.ino:290
    }
  } else {
    if (pwmCounterHeater >= m_offTimeHeater) {
      digitalWrite(HEATER_PWM_PIN, HIGH);
      isHighHeater = true;
      pwmCounterHeater = 0;
    1b0c:	10 92 86 03 	sts	0x0386, r1	; 0x800386 <__vector_11::pwmCounterHeater+0x1>
    1b10:	10 92 85 03 	sts	0x0385, r1	; 0x800385 <__vector_11::pwmCounterHeater>
/home/huser/Dev/TAD_Workspace/Projects/firmwares/OnlyCell/OnlyCell.ino:293
    }
  }
  pwmCounterHeater++;
    1b14:	80 91 85 03 	lds	r24, 0x0385	; 0x800385 <__vector_11::pwmCounterHeater>
    1b18:	90 91 86 03 	lds	r25, 0x0386	; 0x800386 <__vector_11::pwmCounterHeater+0x1>
    1b1c:	01 96       	adiw	r24, 0x01	; 1
    1b1e:	90 93 86 03 	sts	0x0386, r25	; 0x800386 <__vector_11::pwmCounterHeater+0x1>
    1b22:	80 93 85 03 	sts	0x0385, r24	; 0x800385 <__vector_11::pwmCounterHeater>
    1b26:	80 91 82 03 	lds	r24, 0x0382	; 0x800382 <__vector_11::pwmCounterPeltier>
    1b2a:	90 91 83 03 	lds	r25, 0x0383	; 0x800383 <__vector_11::pwmCounterPeltier+0x1>
/home/huser/Dev/TAD_Workspace/Projects/firmwares/OnlyCell/OnlyCell.ino:296

  // Peltier PWM logic
  if (isHighPeltier) {
    1b2e:	20 91 84 03 	lds	r18, 0x0384	; 0x800384 <__vector_11::isHighPeltier>
    1b32:	22 23       	and	r18, r18
    1b34:	d9 f1       	breq	.+118    	; 0x1bac <__vector_11+0xee>
/home/huser/Dev/TAD_Workspace/Projects/firmwares/OnlyCell/OnlyCell.ino:297
    if (pwmCounterPeltier >= m_onTimePeltier) {
    1b36:	20 91 80 03 	lds	r18, 0x0380	; 0x800380 <m_onTimePeltier>
    1b3a:	30 91 81 03 	lds	r19, 0x0381	; 0x800381 <m_onTimePeltier+0x1>
    1b3e:	82 17       	cp	r24, r18
    1b40:	93 07       	cpc	r25, r19
    1b42:	50 f0       	brcs	.+20     	; 0x1b58 <__vector_11+0x9a>
/home/huser/Dev/TAD_Workspace/Projects/firmwares/OnlyCell/OnlyCell.ino:298
      digitalWrite(PELTIER_PWM_PIN, LOW);
    1b44:	60 e0       	ldi	r22, 0x00	; 0
    1b46:	84 e0       	ldi	r24, 0x04	; 4
    1b48:	0e 94 84 01 	call	0x308	; 0x308 <digitalWrite>
/home/huser/Dev/TAD_Workspace/Projects/firmwares/OnlyCell/OnlyCell.ino:299
      isHighPeltier = false;
    1b4c:	10 92 84 03 	sts	0x0384, r1	; 0x800384 <__vector_11::isHighPeltier>
/home/huser/Dev/TAD_Workspace/Projects/firmwares/OnlyCell/OnlyCell.ino:306
    }
  } else {
    if (pwmCounterPeltier >= m_offTimePeltier) {
      digitalWrite(PELTIER_PWM_PIN, HIGH);
      isHighPeltier = true;
      pwmCounterPeltier = 0;
    1b50:	10 92 83 03 	sts	0x0383, r1	; 0x800383 <__vector_11::pwmCounterPeltier+0x1>
    1b54:	10 92 82 03 	sts	0x0382, r1	; 0x800382 <__vector_11::pwmCounterPeltier>
/home/huser/Dev/TAD_Workspace/Projects/firmwares/OnlyCell/OnlyCell.ino:309
    }
  }
  pwmCounterPeltier++;
    1b58:	80 91 82 03 	lds	r24, 0x0382	; 0x800382 <__vector_11::pwmCounterPeltier>
    1b5c:	90 91 83 03 	lds	r25, 0x0383	; 0x800383 <__vector_11::pwmCounterPeltier+0x1>
    1b60:	01 96       	adiw	r24, 0x01	; 1
    1b62:	90 93 83 03 	sts	0x0383, r25	; 0x800383 <__vector_11::pwmCounterPeltier+0x1>
    1b66:	80 93 82 03 	sts	0x0382, r24	; 0x800382 <__vector_11::pwmCounterPeltier>
/home/huser/Dev/TAD_Workspace/Projects/firmwares/OnlyCell/OnlyCell.ino:329
    }
  }
  pwmCounterMotor++;
  */

}
    1b6a:	ff 91       	pop	r31
    1b6c:	ef 91       	pop	r30
    1b6e:	bf 91       	pop	r27
    1b70:	af 91       	pop	r26
    1b72:	9f 91       	pop	r25
    1b74:	8f 91       	pop	r24
    1b76:	7f 91       	pop	r23
    1b78:	6f 91       	pop	r22
    1b7a:	5f 91       	pop	r21
    1b7c:	4f 91       	pop	r20
    1b7e:	3f 91       	pop	r19
    1b80:	2f 91       	pop	r18
    1b82:	0f 90       	pop	r0
    1b84:	0f be       	out	0x3f, r0	; 63
    1b86:	0f 90       	pop	r0
    1b88:	1f 90       	pop	r1
    1b8a:	18 95       	reti
/home/huser/Dev/TAD_Workspace/Projects/firmwares/OnlyCell/OnlyCell.ino:287
      digitalWrite(HEATER_PWM_PIN, LOW);
      isHighHeater = false;
      pwmCounterHeater = 0;
    }
  } else {
    if (pwmCounterHeater >= m_offTimeHeater) {
    1b8c:	20 91 d5 03 	lds	r18, 0x03D5	; 0x8003d5 <m_offTimeHeater>
    1b90:	30 91 d6 03 	lds	r19, 0x03D6	; 0x8003d6 <m_offTimeHeater+0x1>
    1b94:	82 17       	cp	r24, r18
    1b96:	93 07       	cpc	r25, r19
    1b98:	08 f4       	brcc	.+2      	; 0x1b9c <__vector_11+0xde>
    1b9a:	bc cf       	rjmp	.-136    	; 0x1b14 <__vector_11+0x56>
/home/huser/Dev/TAD_Workspace/Projects/firmwares/OnlyCell/OnlyCell.ino:288
      digitalWrite(HEATER_PWM_PIN, HIGH);
    1b9c:	61 e0       	ldi	r22, 0x01	; 1
    1b9e:	88 e0       	ldi	r24, 0x08	; 8
    1ba0:	0e 94 84 01 	call	0x308	; 0x308 <digitalWrite>
/home/huser/Dev/TAD_Workspace/Projects/firmwares/OnlyCell/OnlyCell.ino:289
      isHighHeater = true;
    1ba4:	81 e0       	ldi	r24, 0x01	; 1
    1ba6:	80 93 87 03 	sts	0x0387, r24	; 0x800387 <__vector_11::isHighHeater>
    1baa:	b0 cf       	rjmp	.-160    	; 0x1b0c <__vector_11+0x4e>
/home/huser/Dev/TAD_Workspace/Projects/firmwares/OnlyCell/OnlyCell.ino:303
      digitalWrite(PELTIER_PWM_PIN, LOW);
      isHighPeltier = false;
      pwmCounterPeltier = 0;
    }
  } else {
    if (pwmCounterPeltier >= m_offTimePeltier) {
    1bac:	20 91 7e 03 	lds	r18, 0x037E	; 0x80037e <m_offTimePeltier>
    1bb0:	30 91 7f 03 	lds	r19, 0x037F	; 0x80037f <m_offTimePeltier+0x1>
    1bb4:	82 17       	cp	r24, r18
    1bb6:	93 07       	cpc	r25, r19
    1bb8:	78 f2       	brcs	.-98     	; 0x1b58 <__vector_11+0x9a>
/home/huser/Dev/TAD_Workspace/Projects/firmwares/OnlyCell/OnlyCell.ino:304
      digitalWrite(PELTIER_PWM_PIN, HIGH);
    1bba:	61 e0       	ldi	r22, 0x01	; 1
    1bbc:	84 e0       	ldi	r24, 0x04	; 4
    1bbe:	0e 94 84 01 	call	0x308	; 0x308 <digitalWrite>
/home/huser/Dev/TAD_Workspace/Projects/firmwares/OnlyCell/OnlyCell.ino:305
      isHighPeltier = true;
    1bc2:	81 e0       	ldi	r24, 0x01	; 1
    1bc4:	80 93 84 03 	sts	0x0384, r24	; 0x800384 <__vector_11::isHighPeltier>
    1bc8:	c3 cf       	rjmp	.-122    	; 0x1b50 <__vector_11+0x92>

00001bca <Adafruit_MAX31865::Adafruit_MAX31865(signed char, SPIClass*) [clone .constprop.59]>:
_ZN17Adafruit_MAX31865C2EaP8SPIClass.constprop.59():
/home/huser/Arduino/libraries/Adafruit_MAX31865_library/Adafruit_MAX31865.cpp:48
    @brief Create the interface object using hardware SPI
    @param spi_cs the SPI chip select pin to use
    @param theSPI the SPI device to use, default is SPI
*/
/**************************************************************************/
Adafruit_MAX31865::Adafruit_MAX31865(int8_t spi_cs, SPIClass *theSPI)
    1bca:	cf 93       	push	r28
    1bcc:	df 93       	push	r29
    1bce:	ec 01       	movw	r28, r24
__base_ctor ():
/home/huser/Arduino/libraries/Adafruit_BusIO/Adafruit_SPIDevice.cpp:18
 */
Adafruit_SPIDevice::Adafruit_SPIDevice(int8_t cspin, uint32_t freq,
                                       BusIOBitOrder dataOrder,
                                       uint8_t dataMode, SPIClass *theSPI) {
#ifdef BUSIO_HAS_HW_SPI
  _cs = cspin;
    1bd0:	6b 87       	std	Y+11, r22	; 0x0b
/home/huser/Arduino/libraries/Adafruit_BusIO/Adafruit_SPIDevice.cpp:19
  _sck = _mosi = _miso = -1;
    1bd2:	8f ef       	ldi	r24, 0xFF	; 255
    1bd4:	8e 87       	std	Y+14, r24	; 0x0e
    1bd6:	8d 87       	std	Y+13, r24	; 0x0d
    1bd8:	8c 87       	std	Y+12, r24	; 0x0c
/home/huser/Arduino/libraries/Adafruit_BusIO/Adafruit_SPIDevice.cpp:20
  _spi = theSPI;
    1bda:	87 e6       	ldi	r24, 0x67	; 103
    1bdc:	95 e0       	ldi	r25, 0x05	; 5
    1bde:	99 83       	std	Y+1, r25	; 0x01
    1be0:	88 83       	st	Y, r24
/home/huser/Arduino/libraries/Adafruit_BusIO/Adafruit_SPIDevice.cpp:21
  _begun = false;
    1be2:	1b 8e       	std	Y+27, r1	; 0x1b
new_helper():
/home/huser/.arduino15/packages/MiniCore/hardware/avr/3.0.2/cores/MCUdude_corefiles/new.cpp:44
static void * new_helper(std::size_t size) {
  // Even zero-sized allocations should return a unique pointer, but
  // malloc does not guarantee this
  if (size == 0)
    size = 1;
  return malloc(size);
    1be4:	82 e0       	ldi	r24, 0x02	; 2
    1be6:	90 e0       	ldi	r25, 0x00	; 0
    1be8:	0e 94 35 22 	call	0x446a	; 0x446a <malloc>
_ZN11SPISettings17init_AlwaysInlineEmhh():
/home/huser/.arduino15/packages/MiniCore/hardware/avr/3.0.2/libraries/SPI/src/SPI.h:149

    // Invert the SPI2X bit
    clockDiv ^= 0x1;

    // Pack into the SPISettings class
    spcr = _BV(SPE) | _BV(MSTR) | ((bitOrder == LSBFIRST) ? _BV(DORD) : 0) |
    1bec:	25 e5       	ldi	r18, 0x55	; 85
    1bee:	fc 01       	movw	r30, r24
    1bf0:	20 83       	st	Z, r18
/home/huser/.arduino15/packages/MiniCore/hardware/avr/3.0.2/libraries/SPI/src/SPI.h:151
      (dataMode & SPI_MODE_MASK) | ((clockDiv >> 1) & SPI_CLOCK_MASK);
    spsr = clockDiv & SPI_2XCLOCK_MASK;
    1bf2:	21 e0       	ldi	r18, 0x01	; 1
    1bf4:	21 83       	std	Z+1, r18	; 0x01
__base_ctor ():
/home/huser/Arduino/libraries/Adafruit_BusIO/Adafruit_SPIDevice.cpp:22
  _spiSetting = new SPISettings(freq, dataOrder, dataMode);
    1bf6:	9b 83       	std	Y+3, r25	; 0x03
    1bf8:	8a 83       	std	Y+2, r24	; 0x02
/home/huser/Arduino/libraries/Adafruit_BusIO/Adafruit_SPIDevice.cpp:23
  _freq = freq;
    1bfa:	80 e4       	ldi	r24, 0x40	; 64
    1bfc:	92 e4       	ldi	r25, 0x42	; 66
    1bfe:	af e0       	ldi	r26, 0x0F	; 15
    1c00:	b0 e0       	ldi	r27, 0x00	; 0
    1c02:	8c 83       	std	Y+4, r24	; 0x04
    1c04:	9d 83       	std	Y+5, r25	; 0x05
    1c06:	ae 83       	std	Y+6, r26	; 0x06
    1c08:	bf 83       	std	Y+7, r27	; 0x07
/home/huser/Arduino/libraries/Adafruit_BusIO/Adafruit_SPIDevice.cpp:24
  _dataOrder = dataOrder;
    1c0a:	81 e0       	ldi	r24, 0x01	; 1
    1c0c:	90 e0       	ldi	r25, 0x00	; 0
    1c0e:	99 87       	std	Y+9, r25	; 0x09
    1c10:	88 87       	std	Y+8, r24	; 0x08
/home/huser/Arduino/libraries/Adafruit_BusIO/Adafruit_SPIDevice.cpp:25
  _dataMode = dataMode;
    1c12:	84 e0       	ldi	r24, 0x04	; 4
    1c14:	8a 87       	std	Y+10, r24	; 0x0a
_ZN17Adafruit_MAX31865C2EaP8SPIClass.constprop.59():
/home/huser/Arduino/libraries/Adafruit_MAX31865_library/Adafruit_MAX31865.cpp:49
    : spi_dev(spi_cs, 1000000, SPI_BITORDER_MSBFIRST, SPI_MODE1, theSPI) {}
    1c16:	df 91       	pop	r29
    1c18:	cf 91       	pop	r28
    1c1a:	08 95       	ret

00001c1c <global constructors keyed to 65535_0_OnlyCell.ino.cpp.o.2903>:
_GLOBAL__I_65535_0_OnlyCell.ino.cpp.o.2903():
    1c1c:	4f 92       	push	r4
    1c1e:	5f 92       	push	r5
    1c20:	6f 92       	push	r6
    1c22:	7f 92       	push	r7
    1c24:	8f 92       	push	r8
    1c26:	9f 92       	push	r9
    1c28:	af 92       	push	r10
    1c2a:	bf 92       	push	r11
    1c2c:	cf 92       	push	r12
    1c2e:	df 92       	push	r13
    1c30:	ef 92       	push	r14
    1c32:	ff 92       	push	r15
    1c34:	10 92 7d 04 	sts	0x047D, r1	; 0x80047d <Serial+0x3>
    1c38:	10 92 7c 04 	sts	0x047C, r1	; 0x80047c <Serial+0x2>
    1c3c:	88 ee       	ldi	r24, 0xE8	; 232
    1c3e:	93 e0       	ldi	r25, 0x03	; 3
    1c40:	a0 e0       	ldi	r26, 0x00	; 0
    1c42:	b0 e0       	ldi	r27, 0x00	; 0
    1c44:	80 93 7e 04 	sts	0x047E, r24	; 0x80047e <Serial+0x4>
    1c48:	90 93 7f 04 	sts	0x047F, r25	; 0x80047f <Serial+0x5>
    1c4c:	a0 93 80 04 	sts	0x0480, r26	; 0x800480 <Serial+0x6>
    1c50:	b0 93 81 04 	sts	0x0481, r27	; 0x800481 <Serial+0x7>
    1c54:	26 e1       	ldi	r18, 0x16	; 22
    1c56:	31 e0       	ldi	r19, 0x01	; 1
    1c58:	30 93 7b 04 	sts	0x047B, r19	; 0x80047b <Serial+0x1>
    1c5c:	20 93 7a 04 	sts	0x047A, r18	; 0x80047a <Serial>
    1c60:	25 ec       	ldi	r18, 0xC5	; 197
    1c62:	30 e0       	ldi	r19, 0x00	; 0
    1c64:	30 93 87 04 	sts	0x0487, r19	; 0x800487 <Serial+0xd>
    1c68:	20 93 86 04 	sts	0x0486, r18	; 0x800486 <Serial+0xc>
    1c6c:	24 ec       	ldi	r18, 0xC4	; 196
    1c6e:	30 e0       	ldi	r19, 0x00	; 0
    1c70:	30 93 89 04 	sts	0x0489, r19	; 0x800489 <Serial+0xf>
    1c74:	20 93 88 04 	sts	0x0488, r18	; 0x800488 <Serial+0xe>
    1c78:	20 ec       	ldi	r18, 0xC0	; 192
    1c7a:	30 e0       	ldi	r19, 0x00	; 0
    1c7c:	30 93 8b 04 	sts	0x048B, r19	; 0x80048b <Serial+0x11>
    1c80:	20 93 8a 04 	sts	0x048A, r18	; 0x80048a <Serial+0x10>
    1c84:	21 ec       	ldi	r18, 0xC1	; 193
    1c86:	30 e0       	ldi	r19, 0x00	; 0
    1c88:	30 93 8d 04 	sts	0x048D, r19	; 0x80048d <Serial+0x13>
    1c8c:	20 93 8c 04 	sts	0x048C, r18	; 0x80048c <Serial+0x12>
    1c90:	22 ec       	ldi	r18, 0xC2	; 194
    1c92:	30 e0       	ldi	r19, 0x00	; 0
    1c94:	30 93 8f 04 	sts	0x048F, r19	; 0x80048f <Serial+0x15>
    1c98:	20 93 8e 04 	sts	0x048E, r18	; 0x80048e <Serial+0x14>
    1c9c:	26 ec       	ldi	r18, 0xC6	; 198
    1c9e:	30 e0       	ldi	r19, 0x00	; 0
    1ca0:	30 93 91 04 	sts	0x0491, r19	; 0x800491 <Serial+0x17>
    1ca4:	20 93 90 04 	sts	0x0490, r18	; 0x800490 <Serial+0x16>
    1ca8:	10 92 93 04 	sts	0x0493, r1	; 0x800493 <Serial+0x19>
    1cac:	10 92 94 04 	sts	0x0494, r1	; 0x800494 <Serial+0x1a>
    1cb0:	10 92 95 04 	sts	0x0495, r1	; 0x800495 <Serial+0x1b>
    1cb4:	10 92 96 04 	sts	0x0496, r1	; 0x800496 <Serial+0x1c>
    1cb8:	10 92 a3 05 	sts	0x05A3, r1	; 0x8005a3 <Wire+0x3>
    1cbc:	10 92 a2 05 	sts	0x05A2, r1	; 0x8005a2 <Wire+0x2>
    1cc0:	80 93 a4 05 	sts	0x05A4, r24	; 0x8005a4 <Wire+0x4>
    1cc4:	90 93 a5 05 	sts	0x05A5, r25	; 0x8005a5 <Wire+0x5>
    1cc8:	a0 93 a6 05 	sts	0x05A6, r26	; 0x8005a6 <Wire+0x6>
    1ccc:	b0 93 a7 05 	sts	0x05A7, r27	; 0x8005a7 <Wire+0x7>
    1cd0:	88 e2       	ldi	r24, 0x28	; 40
    1cd2:	91 e0       	ldi	r25, 0x01	; 1
    1cd4:	90 93 a1 05 	sts	0x05A1, r25	; 0x8005a1 <Wire+0x1>
    1cd8:	80 93 a0 05 	sts	0x05A0, r24	; 0x8005a0 <Wire>
    1cdc:	80 e2       	ldi	r24, 0x20	; 32
    1cde:	90 e0       	ldi	r25, 0x00	; 0
    1ce0:	90 93 ad 05 	sts	0x05AD, r25	; 0x8005ad <Wire+0xd>
    1ce4:	80 93 ac 05 	sts	0x05AC, r24	; 0x8005ac <Wire+0xc>
    1ce8:	0e 94 35 22 	call	0x446a	; 0x446a <malloc>
    1cec:	90 93 af 05 	sts	0x05AF, r25	; 0x8005af <Wire+0xf>
    1cf0:	80 93 ae 05 	sts	0x05AE, r24	; 0x8005ae <Wire+0xe>
    1cf4:	10 92 b0 05 	sts	0x05B0, r1	; 0x8005b0 <Wire+0x10>
    1cf8:	10 92 b1 05 	sts	0x05B1, r1	; 0x8005b1 <Wire+0x11>
    1cfc:	10 92 b2 05 	sts	0x05B2, r1	; 0x8005b2 <Wire+0x12>
    1d00:	80 e2       	ldi	r24, 0x20	; 32
    1d02:	90 e0       	ldi	r25, 0x00	; 0
    1d04:	0e 94 35 22 	call	0x446a	; 0x446a <malloc>
    1d08:	90 93 b4 05 	sts	0x05B4, r25	; 0x8005b4 <Wire+0x14>
    1d0c:	80 93 b3 05 	sts	0x05B3, r24	; 0x8005b3 <Wire+0x13>
    1d10:	10 92 b5 05 	sts	0x05B5, r1	; 0x8005b5 <Wire+0x15>
    1d14:	10 92 b6 05 	sts	0x05B6, r1	; 0x8005b6 <Wire+0x16>
    1d18:	10 92 b7 05 	sts	0x05B7, r1	; 0x8005b7 <Wire+0x17>
    1d1c:	8f ee       	ldi	r24, 0xEF	; 239
    1d1e:	91 e0       	ldi	r25, 0x01	; 1
    1d20:	90 93 bd 05 	sts	0x05BD, r25	; 0x8005bd <Wire+0x1d>
    1d24:	80 93 bc 05 	sts	0x05BC, r24	; 0x8005bc <Wire+0x1c>
    1d28:	8d e0       	ldi	r24, 0x0D	; 13
    1d2a:	92 e0       	ldi	r25, 0x02	; 2
    1d2c:	90 93 bf 05 	sts	0x05BF, r25	; 0x8005bf <Wire+0x1f>
    1d30:	80 93 be 05 	sts	0x05BE, r24	; 0x8005be <Wire+0x1e>
    1d34:	85 e5       	ldi	r24, 0x55	; 85
    1d36:	91 e0       	ldi	r25, 0x01	; 1
    1d38:	90 93 c1 05 	sts	0x05C1, r25	; 0x8005c1 <Wire+0x21>
    1d3c:	80 93 c0 05 	sts	0x05C0, r24	; 0x8005c0 <Wire+0x20>
    1d40:	89 e5       	ldi	r24, 0x59	; 89
    1d42:	91 e0       	ldi	r25, 0x01	; 1
    1d44:	90 93 c3 05 	sts	0x05C3, r25	; 0x8005c3 <Wire+0x23>
    1d48:	80 93 c2 05 	sts	0x05C2, r24	; 0x8005c2 <Wire+0x22>
    1d4c:	8f e7       	ldi	r24, 0x7F	; 127
    1d4e:	94 e0       	ldi	r25, 0x04	; 4
    1d50:	90 93 c5 05 	sts	0x05C5, r25	; 0x8005c5 <Wire+0x25>
    1d54:	80 93 c4 05 	sts	0x05C4, r24	; 0x8005c4 <Wire+0x24>
    1d58:	8f e2       	ldi	r24, 0x2F	; 47
    1d5a:	94 e0       	ldi	r25, 0x04	; 4
    1d5c:	90 93 c7 05 	sts	0x05C7, r25	; 0x8005c7 <Wire+0x27>
    1d60:	80 93 c6 05 	sts	0x05C6, r24	; 0x8005c6 <Wire+0x26>
    1d64:	88 e0       	ldi	r24, 0x08	; 8
    1d66:	94 e0       	ldi	r25, 0x04	; 4
    1d68:	90 93 c9 05 	sts	0x05C9, r25	; 0x8005c9 <Wire+0x29>
    1d6c:	80 93 c8 05 	sts	0x05C8, r24	; 0x8005c8 <Wire+0x28>
    1d70:	8c e6       	ldi	r24, 0x6C	; 108
    1d72:	91 e0       	ldi	r25, 0x01	; 1
    1d74:	90 93 cb 05 	sts	0x05CB, r25	; 0x8005cb <Wire+0x2b>
    1d78:	80 93 ca 05 	sts	0x05CA, r24	; 0x8005ca <Wire+0x2a>
    1d7c:	84 e7       	ldi	r24, 0x74	; 116
    1d7e:	91 e0       	ldi	r25, 0x01	; 1
    1d80:	90 93 cd 05 	sts	0x05CD, r25	; 0x8005cd <Wire+0x2d>
    1d84:	80 93 cc 05 	sts	0x05CC, r24	; 0x8005cc <Wire+0x2c>
    1d88:	8e e7       	ldi	r24, 0x7E	; 126
    1d8a:	91 e0       	ldi	r25, 0x01	; 1
    1d8c:	90 93 cf 05 	sts	0x05CF, r25	; 0x8005cf <Wire+0x2f>
    1d90:	80 93 ce 05 	sts	0x05CE, r24	; 0x8005ce <Wire+0x2e>
    1d94:	8b ec       	ldi	r24, 0xCB	; 203
    1d96:	94 e0       	ldi	r25, 0x04	; 4
    1d98:	90 93 18 05 	sts	0x0518, r25	; 0x800518 <twi_onSlaveReceive+0x1>
    1d9c:	80 93 17 05 	sts	0x0517, r24	; 0x800517 <twi_onSlaveReceive>
    1da0:	8f eb       	ldi	r24, 0xBF	; 191
    1da2:	94 e0       	ldi	r25, 0x04	; 4
    1da4:	90 93 1a 05 	sts	0x051A, r25	; 0x80051a <twi_onSlaveTransmit+0x1>
    1da8:	80 93 19 05 	sts	0x0519, r24	; 0x800519 <twi_onSlaveTransmit>
    1dac:	62 e0       	ldi	r22, 0x02	; 2
    1dae:	88 e6       	ldi	r24, 0x68	; 104
    1db0:	95 e0       	ldi	r25, 0x05	; 5
    1db2:	0e 94 e5 0d 	call	0x1bca	; 0x1bca <Adafruit_MAX31865::Adafruit_MAX31865(signed char, SPIClass*) [clone .constprop.59]>
    1db6:	65 e0       	ldi	r22, 0x05	; 5
    1db8:	84 e8       	ldi	r24, 0x84	; 132
    1dba:	95 e0       	ldi	r25, 0x05	; 5
    1dbc:	0e 94 e5 0d 	call	0x1bca	; 0x1bca <Adafruit_MAX31865::Adafruit_MAX31865(signed char, SPIClass*) [clone .constprop.59]>
    1dc0:	c0 90 08 01 	lds	r12, 0x0108	; 0x800108 <m_kd>
    1dc4:	d0 90 09 01 	lds	r13, 0x0109	; 0x800109 <m_kd+0x1>
    1dc8:	e0 90 0a 01 	lds	r14, 0x010A	; 0x80010a <m_kd+0x2>
    1dcc:	f0 90 0b 01 	lds	r15, 0x010B	; 0x80010b <m_kd+0x3>
    1dd0:	80 90 04 01 	lds	r8, 0x0104	; 0x800104 <m_ki>
    1dd4:	90 90 05 01 	lds	r9, 0x0105	; 0x800105 <m_ki+0x1>
    1dd8:	a0 90 06 01 	lds	r10, 0x0106	; 0x800106 <m_ki+0x2>
    1ddc:	b0 90 07 01 	lds	r11, 0x0107	; 0x800107 <m_ki+0x3>
    1de0:	40 90 00 01 	lds	r4, 0x0100	; 0x800100 <__DATA_REGION_ORIGIN__>
    1de4:	50 90 01 01 	lds	r5, 0x0101	; 0x800101 <__DATA_REGION_ORIGIN__+0x1>
    1de8:	60 90 02 01 	lds	r6, 0x0102	; 0x800102 <__DATA_REGION_ORIGIN__+0x2>
    1dec:	70 90 03 01 	lds	r7, 0x0103	; 0x800103 <__DATA_REGION_ORIGIN__+0x3>
    1df0:	83 e2       	ldi	r24, 0x23	; 35
    1df2:	95 e0       	ldi	r25, 0x05	; 5
    1df4:	90 93 4a 05 	sts	0x054A, r25	; 0x80054a <m_pidHeater+0x1f>
    1df8:	80 93 49 05 	sts	0x0549, r24	; 0x800549 <m_pidHeater+0x1e>
    1dfc:	87 e2       	ldi	r24, 0x27	; 39
    1dfe:	95 e0       	ldi	r25, 0x05	; 5
    1e00:	90 93 48 05 	sts	0x0548, r25	; 0x800548 <m_pidHeater+0x1d>
    1e04:	80 93 47 05 	sts	0x0547, r24	; 0x800547 <m_pidHeater+0x1c>
    1e08:	8f e1       	ldi	r24, 0x1F	; 31
    1e0a:	95 e0       	ldi	r25, 0x05	; 5
    1e0c:	90 93 4c 05 	sts	0x054C, r25	; 0x80054c <m_pidHeater+0x21>
    1e10:	80 93 4b 05 	sts	0x054B, r24	; 0x80054b <m_pidHeater+0x20>
    1e14:	10 92 65 05 	sts	0x0565, r1	; 0x800565 <m_pidHeater+0x3a>
    1e18:	10 92 5d 05 	sts	0x055D, r1	; 0x80055d <m_pidHeater+0x32>
    1e1c:	10 92 5e 05 	sts	0x055E, r1	; 0x80055e <m_pidHeater+0x33>
    1e20:	10 92 5f 05 	sts	0x055F, r1	; 0x80055f <m_pidHeater+0x34>
    1e24:	10 92 60 05 	sts	0x0560, r1	; 0x800560 <m_pidHeater+0x35>
    1e28:	80 e0       	ldi	r24, 0x00	; 0
    1e2a:	90 e0       	ldi	r25, 0x00	; 0
    1e2c:	af e7       	ldi	r26, 0x7F	; 127
    1e2e:	b3 e4       	ldi	r27, 0x43	; 67
    1e30:	80 93 61 05 	sts	0x0561, r24	; 0x800561 <m_pidHeater+0x36>
    1e34:	90 93 62 05 	sts	0x0562, r25	; 0x800562 <m_pidHeater+0x37>
    1e38:	a0 93 63 05 	sts	0x0563, r26	; 0x800563 <m_pidHeater+0x38>
    1e3c:	b0 93 64 05 	sts	0x0564, r27	; 0x800564 <m_pidHeater+0x39>
    1e40:	84 e6       	ldi	r24, 0x64	; 100
    1e42:	90 e0       	ldi	r25, 0x00	; 0
    1e44:	a0 e0       	ldi	r26, 0x00	; 0
    1e46:	b0 e0       	ldi	r27, 0x00	; 0
    1e48:	80 93 59 05 	sts	0x0559, r24	; 0x800559 <m_pidHeater+0x2e>
    1e4c:	90 93 5a 05 	sts	0x055A, r25	; 0x80055a <m_pidHeater+0x2f>
    1e50:	a0 93 5b 05 	sts	0x055B, r26	; 0x80055b <m_pidHeater+0x30>
    1e54:	b0 93 5c 05 	sts	0x055C, r27	; 0x80055c <m_pidHeater+0x31>
    1e58:	10 92 44 05 	sts	0x0544, r1	; 0x800544 <m_pidHeater+0x19>
    1e5c:	10 92 43 05 	sts	0x0543, r1	; 0x800543 <m_pidHeater+0x18>
    1e60:	20 e0       	ldi	r18, 0x00	; 0
    1e62:	30 e0       	ldi	r19, 0x00	; 0
    1e64:	a9 01       	movw	r20, r18
    1e66:	c3 01       	movw	r24, r6
    1e68:	b2 01       	movw	r22, r4
    1e6a:	0e 94 f3 1e 	call	0x3de6	; 0x3de6 <__cmpsf2>
    1e6e:	87 fd       	sbrc	r24, 7
    1e70:	5a c0       	rjmp	.+180    	; 0x1f26 <global constructors keyed to 65535_0_OnlyCell.ino.cpp.o.2903+0x30a>
    1e72:	20 e0       	ldi	r18, 0x00	; 0
    1e74:	30 e0       	ldi	r19, 0x00	; 0
    1e76:	a9 01       	movw	r20, r18
    1e78:	c5 01       	movw	r24, r10
    1e7a:	b4 01       	movw	r22, r8
    1e7c:	0e 94 f3 1e 	call	0x3de6	; 0x3de6 <__cmpsf2>
    1e80:	87 fd       	sbrc	r24, 7
    1e82:	51 c0       	rjmp	.+162    	; 0x1f26 <global constructors keyed to 65535_0_OnlyCell.ino.cpp.o.2903+0x30a>
    1e84:	20 e0       	ldi	r18, 0x00	; 0
    1e86:	30 e0       	ldi	r19, 0x00	; 0
    1e88:	a9 01       	movw	r20, r18
    1e8a:	c7 01       	movw	r24, r14
    1e8c:	b6 01       	movw	r22, r12
    1e8e:	0e 94 f3 1e 	call	0x3de6	; 0x3de6 <__cmpsf2>
    1e92:	87 fd       	sbrc	r24, 7
    1e94:	48 c0       	rjmp	.+144    	; 0x1f26 <global constructors keyed to 65535_0_OnlyCell.ino.cpp.o.2903+0x30a>
    1e96:	81 e0       	ldi	r24, 0x01	; 1
    1e98:	90 e0       	ldi	r25, 0x00	; 0
    1e9a:	90 93 46 05 	sts	0x0546, r25	; 0x800546 <m_pidHeater+0x1b>
    1e9e:	80 93 45 05 	sts	0x0545, r24	; 0x800545 <m_pidHeater+0x1a>
    1ea2:	80 93 66 05 	sts	0x0566, r24	; 0x800566 <m_pidHeater+0x3b>
    1ea6:	40 92 2b 05 	sts	0x052B, r4	; 0x80052b <m_pidHeater>
    1eaa:	50 92 2c 05 	sts	0x052C, r5	; 0x80052c <m_pidHeater+0x1>
    1eae:	60 92 2d 05 	sts	0x052D, r6	; 0x80052d <m_pidHeater+0x2>
    1eb2:	70 92 2e 05 	sts	0x052E, r7	; 0x80052e <m_pidHeater+0x3>
    1eb6:	80 92 2f 05 	sts	0x052F, r8	; 0x80052f <m_pidHeater+0x4>
    1eba:	90 92 30 05 	sts	0x0530, r9	; 0x800530 <m_pidHeater+0x5>
    1ebe:	a0 92 31 05 	sts	0x0531, r10	; 0x800531 <m_pidHeater+0x6>
    1ec2:	b0 92 32 05 	sts	0x0532, r11	; 0x800532 <m_pidHeater+0x7>
    1ec6:	c0 92 33 05 	sts	0x0533, r12	; 0x800533 <m_pidHeater+0x8>
    1eca:	d0 92 34 05 	sts	0x0534, r13	; 0x800534 <m_pidHeater+0x9>
    1ece:	e0 92 35 05 	sts	0x0535, r14	; 0x800535 <m_pidHeater+0xa>
    1ed2:	f0 92 36 05 	sts	0x0536, r15	; 0x800536 <m_pidHeater+0xb>
    1ed6:	40 92 37 05 	sts	0x0537, r4	; 0x800537 <m_pidHeater+0xc>
    1eda:	50 92 38 05 	sts	0x0538, r5	; 0x800538 <m_pidHeater+0xd>
    1ede:	60 92 39 05 	sts	0x0539, r6	; 0x800539 <m_pidHeater+0xe>
    1ee2:	70 92 3a 05 	sts	0x053A, r7	; 0x80053a <m_pidHeater+0xf>
    1ee6:	2d ec       	ldi	r18, 0xCD	; 205
    1ee8:	3c ec       	ldi	r19, 0xCC	; 204
    1eea:	4c ec       	ldi	r20, 0xCC	; 204
    1eec:	5d e3       	ldi	r21, 0x3D	; 61
    1eee:	c5 01       	movw	r24, r10
    1ef0:	b4 01       	movw	r22, r8
    1ef2:	0e 94 59 1f 	call	0x3eb2	; 0x3eb2 <__mulsf3>
    1ef6:	60 93 3b 05 	sts	0x053B, r22	; 0x80053b <m_pidHeater+0x10>
    1efa:	70 93 3c 05 	sts	0x053C, r23	; 0x80053c <m_pidHeater+0x11>
    1efe:	80 93 3d 05 	sts	0x053D, r24	; 0x80053d <m_pidHeater+0x12>
    1f02:	90 93 3e 05 	sts	0x053E, r25	; 0x80053e <m_pidHeater+0x13>
    1f06:	2d ec       	ldi	r18, 0xCD	; 205
    1f08:	3c ec       	ldi	r19, 0xCC	; 204
    1f0a:	4c ec       	ldi	r20, 0xCC	; 204
    1f0c:	5d e3       	ldi	r21, 0x3D	; 61
    1f0e:	c7 01       	movw	r24, r14
    1f10:	b6 01       	movw	r22, r12
    1f12:	0e 94 d8 20 	call	0x41b0	; 0x41b0 <__divsf3>
    1f16:	60 93 3f 05 	sts	0x053F, r22	; 0x80053f <m_pidHeater+0x14>
    1f1a:	70 93 40 05 	sts	0x0540, r23	; 0x800540 <m_pidHeater+0x15>
    1f1e:	80 93 41 05 	sts	0x0541, r24	; 0x800541 <m_pidHeater+0x16>
    1f22:	90 93 42 05 	sts	0x0542, r25	; 0x800542 <m_pidHeater+0x17>
    1f26:	2f b7       	in	r18, 0x3f	; 63
    1f28:	f8 94       	cli
    1f2a:	80 91 1b 05 	lds	r24, 0x051B	; 0x80051b <timer0_millis>
    1f2e:	90 91 1c 05 	lds	r25, 0x051C	; 0x80051c <timer0_millis+0x1>
    1f32:	a0 91 1d 05 	lds	r26, 0x051D	; 0x80051d <timer0_millis+0x2>
    1f36:	b0 91 1e 05 	lds	r27, 0x051E	; 0x80051e <timer0_millis+0x3>
    1f3a:	2f bf       	out	0x3f, r18	; 63
    1f3c:	40 91 59 05 	lds	r20, 0x0559	; 0x800559 <m_pidHeater+0x2e>
    1f40:	50 91 5a 05 	lds	r21, 0x055A	; 0x80055a <m_pidHeater+0x2f>
    1f44:	60 91 5b 05 	lds	r22, 0x055B	; 0x80055b <m_pidHeater+0x30>
    1f48:	70 91 5c 05 	lds	r23, 0x055C	; 0x80055c <m_pidHeater+0x31>
    1f4c:	84 1b       	sub	r24, r20
    1f4e:	95 0b       	sbc	r25, r21
    1f50:	a6 0b       	sbc	r26, r22
    1f52:	b7 0b       	sbc	r27, r23
    1f54:	80 93 4d 05 	sts	0x054D, r24	; 0x80054d <m_pidHeater+0x22>
    1f58:	90 93 4e 05 	sts	0x054E, r25	; 0x80054e <m_pidHeater+0x23>
    1f5c:	a0 93 4f 05 	sts	0x054F, r26	; 0x80054f <m_pidHeater+0x24>
    1f60:	b0 93 50 05 	sts	0x0550, r27	; 0x800550 <m_pidHeater+0x25>
    1f64:	ff 90       	pop	r15
    1f66:	ef 90       	pop	r14
    1f68:	df 90       	pop	r13
    1f6a:	cf 90       	pop	r12
    1f6c:	bf 90       	pop	r11
    1f6e:	af 90       	pop	r10
    1f70:	9f 90       	pop	r9
    1f72:	8f 90       	pop	r8
    1f74:	7f 90       	pop	r7
    1f76:	6f 90       	pop	r6
    1f78:	5f 90       	pop	r5
    1f7a:	4f 90       	pop	r4
    1f7c:	08 95       	ret

00001f7e <main>:
main():
/home/huser/.arduino15/packages/MiniCore/hardware/avr/3.0.2/cores/MCUdude_corefiles/main.cpp:34

//void setupUSB() __attribute__((weak));
//void setupUSB() { }

int main(void)
{
    1f7e:	cf 93       	push	r28
    1f80:	df 93       	push	r29
    1f82:	cd b7       	in	r28, 0x3d	; 61
    1f84:	de b7       	in	r29, 0x3e	; 62
    1f86:	6f 97       	sbiw	r28, 0x1f	; 31
    1f88:	0f b6       	in	r0, 0x3f	; 63
    1f8a:	f8 94       	cli
    1f8c:	de bf       	out	0x3e, r29	; 62
    1f8e:	0f be       	out	0x3f, r0	; 63
    1f90:	cd bf       	out	0x3d, r28	; 61
init():
/home/huser/.arduino15/packages/MiniCore/hardware/avr/3.0.2/cores/MCUdude_corefiles/wiring.c:945

void init()
{
  // this needs to be called before setup() or some functions won't
  // work there
  sei();
    1f92:	78 94       	sei
/home/huser/.arduino15/packages/MiniCore/hardware/avr/3.0.2/cores/MCUdude_corefiles/wiring.c:957

  // On the ATmega168, timer 0 is also used for fast hardware pwm
  // (using phase-correct PWM would mean that timer 0 overflowed half as often
  // resulting in different millis() behavior on the ATmega8 and ATmega168)
#if defined(TCCR0A) && defined(WGM01)
  TCCR0A |= _BV(WGM01) | _BV(WGM00);
    1f94:	84 b5       	in	r24, 0x24	; 36
    1f96:	83 60       	ori	r24, 0x03	; 3
    1f98:	84 bd       	out	0x24, r24	; 36
/home/huser/.arduino15/packages/MiniCore/hardware/avr/3.0.2/cores/MCUdude_corefiles/wiring.c:972
  #if defined(WGM00) && defined(WGM01) // The ATmega8 doesn't have WGM00 and WGM01
    TCCR0 |= _BV(WGM01) | _BV(WGM00);
  #endif
#elif defined(TCCR0B) && defined(CS01) && defined(CS00)
  // This combination is for the standard 168/328/640/1280/1281/2560/2561
  TCCR0B |= _BV(CS01) | _BV(CS00);
    1f9a:	85 b5       	in	r24, 0x25	; 37
    1f9c:	83 60       	ori	r24, 0x03	; 3
    1f9e:	85 bd       	out	0x25, r24	; 37
/home/huser/.arduino15/packages/MiniCore/hardware/avr/3.0.2/cores/MCUdude_corefiles/wiring.c:984

// Enable timer 0 overflow interrupt
#if defined(TIMSK) && defined(TOIE0)
  TIMSK |= _BV(TOIE0);
#elif defined(TIMSK0) && defined(TOIE0)
  TIMSK0 |= _BV(TOIE0);
    1fa0:	80 91 6e 00 	lds	r24, 0x006E	; 0x80006e <__TEXT_REGION_LENGTH__+0x7f806e>
    1fa4:	81 60       	ori	r24, 0x01	; 1
    1fa6:	80 93 6e 00 	sts	0x006E, r24	; 0x80006e <__TEXT_REGION_LENGTH__+0x7f806e>
/home/huser/.arduino15/packages/MiniCore/hardware/avr/3.0.2/cores/MCUdude_corefiles/wiring.c:995
// this is better for motors as it ensures an even waveform
// note, however, that fast pwm mode can achieve a frequency of up
// 8 MHz (with a 16 MHz clock) at 50% duty cycle

#if defined(TCCR1B) && defined(CS11) && defined(CS10)
  TCCR1B = _BV(CS11); // Set timer 1 prescale factor to 64
    1faa:	92 e0       	ldi	r25, 0x02	; 2
    1fac:	90 93 81 00 	sts	0x0081, r25	; 0x800081 <__TEXT_REGION_LENGTH__+0x7f8081>
/home/huser/.arduino15/packages/MiniCore/hardware/avr/3.0.2/cores/MCUdude_corefiles/wiring.c:997
#if F_CPU >= 8000000L
  TCCR1B |= _BV(CS10);
    1fb0:	80 91 81 00 	lds	r24, 0x0081	; 0x800081 <__TEXT_REGION_LENGTH__+0x7f8081>
    1fb4:	81 60       	ori	r24, 0x01	; 1
    1fb6:	80 93 81 00 	sts	0x0081, r24	; 0x800081 <__TEXT_REGION_LENGTH__+0x7f8081>
/home/huser/.arduino15/packages/MiniCore/hardware/avr/3.0.2/cores/MCUdude_corefiles/wiring.c:1006
#if F_CPU >= 8000000L
  TCCR1 |= _BV(CS10);
#endif
#endif
#if defined(TCCR1A) && defined(WGM10)
  TCCR1A |= _BV(WGM10); // Put timer 1 in 8-bit phase correct pwm mode
    1fba:	80 91 80 00 	lds	r24, 0x0080	; 0x800080 <__TEXT_REGION_LENGTH__+0x7f8080>
    1fbe:	81 60       	ori	r24, 0x01	; 1
    1fc0:	80 93 80 00 	sts	0x0080, r24	; 0x800080 <__TEXT_REGION_LENGTH__+0x7f8080>
/home/huser/.arduino15/packages/MiniCore/hardware/avr/3.0.2/cores/MCUdude_corefiles/wiring.c:1013

// Set timer 2 prescale factor to 64
#if defined(TCCR2) && defined(CS22)
  TCCR2 |= _BV(CS22);
#elif defined(TCCR2B) && defined(CS22)
  TCCR2B |= _BV(CS22);
    1fc4:	80 91 b1 00 	lds	r24, 0x00B1	; 0x8000b1 <__TEXT_REGION_LENGTH__+0x7f80b1>
    1fc8:	84 60       	ori	r24, 0x04	; 4
    1fca:	80 93 b1 00 	sts	0x00B1, r24	; 0x8000b1 <__TEXT_REGION_LENGTH__+0x7f80b1>
/home/huser/.arduino15/packages/MiniCore/hardware/avr/3.0.2/cores/MCUdude_corefiles/wiring.c:1022

// Configure timer 2 for phase correct pwm (8-bit)
#if defined(TCCR2) && defined(WGM20)
  TCCR2 |= _BV(WGM20);
#elif defined(TCCR2A) && defined(WGM20)
  TCCR2A |= _BV(WGM20);
    1fce:	80 91 b0 00 	lds	r24, 0x00B0	; 0x8000b0 <__TEXT_REGION_LENGTH__+0x7f80b0>
    1fd2:	81 60       	ori	r24, 0x01	; 1
    1fd4:	80 93 b0 00 	sts	0x00B0, r24	; 0x8000b0 <__TEXT_REGION_LENGTH__+0x7f80b0>
/home/huser/.arduino15/packages/MiniCore/hardware/avr/3.0.2/cores/MCUdude_corefiles/wiring.c:1028
//#else
  // Timer 2 not finished (may not be present on this CPU)
#endif

#if defined(TCCR3B) && defined(CS31) && defined(WGM30)
  TCCR3B |= _BV(CS31) | _BV(CS30); // Set timer 3 prescale factor to 64
    1fd8:	80 91 91 00 	lds	r24, 0x0091	; 0x800091 <__TEXT_REGION_LENGTH__+0x7f8091>
    1fdc:	83 60       	ori	r24, 0x03	; 3
    1fde:	80 93 91 00 	sts	0x0091, r24	; 0x800091 <__TEXT_REGION_LENGTH__+0x7f8091>
/home/huser/.arduino15/packages/MiniCore/hardware/avr/3.0.2/cores/MCUdude_corefiles/wiring.c:1029
  TCCR3A |= _BV(WGM30);            // Put timer 3 in 8-bit phase correct pwm mode
    1fe2:	80 91 90 00 	lds	r24, 0x0090	; 0x800090 <__TEXT_REGION_LENGTH__+0x7f8090>
    1fe6:	81 60       	ori	r24, 0x01	; 1
    1fe8:	80 93 90 00 	sts	0x0090, r24	; 0x800090 <__TEXT_REGION_LENGTH__+0x7f8090>
/home/huser/.arduino15/packages/MiniCore/hardware/avr/3.0.2/cores/MCUdude_corefiles/wiring.c:1038
  TCCR4B |= _BV(CS42) | _BV(CS41) | _BV(CS40); // Set timer 4 prescale factor to 64
  TCCR4D |= _BV(WGM40);                        // Put timer 4 in phase- and frequency-correct PWM mode
  TCCR4A |= _BV(PWM4A);                        // Enable PWM mode for comparator OCR4A
  TCCR4C |= _BV(PWM4D);                        // Enable PWM mode for comparator OCR4D
#elif defined(TCCR4B) && defined(CS41) && defined(WGM40)
  TCCR4B |= _BV(CS41) | _BV(CS40); // Set timer 4 prescale factor to 64
    1fec:	80 91 a1 00 	lds	r24, 0x00A1	; 0x8000a1 <__TEXT_REGION_LENGTH__+0x7f80a1>
    1ff0:	83 60       	ori	r24, 0x03	; 3
    1ff2:	80 93 a1 00 	sts	0x00A1, r24	; 0x8000a1 <__TEXT_REGION_LENGTH__+0x7f80a1>
/home/huser/.arduino15/packages/MiniCore/hardware/avr/3.0.2/cores/MCUdude_corefiles/wiring.c:1039
  TCCR4A |= _BV(WGM40);            // Put timer 4 in 8-bit phase correct pwm mode
    1ff6:	80 91 a0 00 	lds	r24, 0x00A0	; 0x8000a0 <__TEXT_REGION_LENGTH__+0x7f80a0>
    1ffa:	81 60       	ori	r24, 0x01	; 1
    1ffc:	80 93 a0 00 	sts	0x00A0, r24	; 0x8000a0 <__TEXT_REGION_LENGTH__+0x7f80a0>
/home/huser/.arduino15/packages/MiniCore/hardware/avr/3.0.2/cores/MCUdude_corefiles/wiring.c:1052
#if defined(ADCSRA)
  // set a2d prescaler so we are inside the desired 50-200 KHz range.
  #if F_CPU >= 16000000 // 16 MHz / 128 = 125 KHz
    ADCSRA = _BV(ADPS2) | _BV(ADPS1) | _BV(ADPS0) | _BV(ADEN);
  #elif F_CPU >= 8000000 // 8 MHz / 64 = 125 KHz
    ADCSRA = _BV(ADPS2) | _BV(ADPS1) | _BV(ADEN);
    2000:	86 e8       	ldi	r24, 0x86	; 134
    2002:	80 93 7a 00 	sts	0x007A, r24	; 0x80007a <__TEXT_REGION_LENGTH__+0x7f807a>
/home/huser/.arduino15/packages/MiniCore/hardware/avr/3.0.2/cores/MCUdude_corefiles/wiring.c:1070
  // here so they can be used as normal digital i/o; they will be
  // reconnected in Serial.begin()
#if defined(UCSRB)
  UCSRB = 0;
#elif defined(UCSR0B)
  UCSR0B = 0;
    2006:	10 92 c1 00 	sts	0x00C1, r1	; 0x8000c1 <__TEXT_REGION_LENGTH__+0x7f80c1>
begin():
/home/huser/.arduino15/packages/MiniCore/hardware/avr/3.0.2/cores/MCUdude_corefiles/HardwareSerial.cpp:121

void HardwareSerial::begin(unsigned long baud, byte config)
{
  // Try u2x mode first
  uint16_t baud_setting = (F_CPU / 4 / baud - 1) / 2;
  *_ucsra = 1 << U2X0;
    200a:	e0 91 8a 04 	lds	r30, 0x048A	; 0x80048a <Serial+0x10>
    200e:	f0 91 8b 04 	lds	r31, 0x048B	; 0x80048b <Serial+0x11>
    2012:	90 83       	st	Z, r25
/home/huser/.arduino15/packages/MiniCore/hardware/avr/3.0.2/cores/MCUdude_corefiles/HardwareSerial.cpp:135
    *_ucsra = 0;
    baud_setting = (F_CPU / 8 / baud - 1) / 2;
  }

  // assign the baud_setting, a.k.a. ubrr (USART Baud Rate Register)
  *_ubrrh = baud_setting >> 8;
    2014:	e0 91 86 04 	lds	r30, 0x0486	; 0x800486 <Serial+0xc>
    2018:	f0 91 87 04 	lds	r31, 0x0487	; 0x800487 <Serial+0xd>
    201c:	10 82       	st	Z, r1
/home/huser/.arduino15/packages/MiniCore/hardware/avr/3.0.2/cores/MCUdude_corefiles/HardwareSerial.cpp:136
  *_ubrrl = baud_setting;
    201e:	e0 91 88 04 	lds	r30, 0x0488	; 0x800488 <Serial+0xe>
    2022:	f0 91 89 04 	lds	r31, 0x0489	; 0x800489 <Serial+0xf>
    2026:	87 e6       	ldi	r24, 0x67	; 103
    2028:	80 83       	st	Z, r24
/home/huser/.arduino15/packages/MiniCore/hardware/avr/3.0.2/cores/MCUdude_corefiles/HardwareSerial.cpp:138

  _written = false;
    202a:	10 92 92 04 	sts	0x0492, r1	; 0x800492 <Serial+0x18>
/home/huser/.arduino15/packages/MiniCore/hardware/avr/3.0.2/cores/MCUdude_corefiles/HardwareSerial.cpp:146
#if defined(__AVR_ATmega8__) || defined(__AVR_ATmega8515__) || defined(__AVR_ATmega162__) \
|| defined(__AVR_ATmega8535__) || defined(__AVR_ATmega16__)|| defined(__AVR_ATmega32__)   \
|| defined(__AVR_ATmega162__)
  config |= 0x80; // select UCSRC register (shared with UBRRH)
#endif
  *_ucsrc = config;
    202e:	e0 91 8e 04 	lds	r30, 0x048E	; 0x80048e <Serial+0x14>
    2032:	f0 91 8f 04 	lds	r31, 0x048F	; 0x80048f <Serial+0x15>
    2036:	86 e0       	ldi	r24, 0x06	; 6
    2038:	80 83       	st	Z, r24
/home/huser/.arduino15/packages/MiniCore/hardware/avr/3.0.2/cores/MCUdude_corefiles/HardwareSerial.cpp:148
  
  *_ucsrb |= _BV(RXEN0) | _BV(TXEN0) | _BV(RXCIE0);
    203a:	e0 91 8c 04 	lds	r30, 0x048C	; 0x80048c <Serial+0x12>
    203e:	f0 91 8d 04 	lds	r31, 0x048D	; 0x80048d <Serial+0x13>
    2042:	80 81       	ld	r24, Z
    2044:	88 69       	ori	r24, 0x98	; 152
    2046:	80 83       	st	Z, r24
/home/huser/.arduino15/packages/MiniCore/hardware/avr/3.0.2/cores/MCUdude_corefiles/HardwareSerial.cpp:149
  *_ucsrb &= ~_BV(UDRIE0);
    2048:	e0 91 8c 04 	lds	r30, 0x048C	; 0x80048c <Serial+0x12>
    204c:	f0 91 8d 04 	lds	r31, 0x048D	; 0x80048d <Serial+0x13>
    2050:	80 81       	ld	r24, Z
    2052:	8f 7d       	andi	r24, 0xDF	; 223
    2054:	80 83       	st	Z, r24
setup():
/home/huser/Dev/TAD_Workspace/Projects/firmwares/OnlyCell/OnlyCell.ino:84
  }
}

void setup() {
  Serial.begin(9600);
  Serial.println("Starting...");
    2056:	89 e6       	ldi	r24, 0x69	; 105
    2058:	91 e0       	ldi	r25, 0x01	; 1
    205a:	0e 94 98 08 	call	0x1130	; 0x1130 <Print::println(char const*) [clone .constprop.47]>
/home/huser/Dev/TAD_Workspace/Projects/firmwares/OnlyCell/OnlyCell.ino:86

  rtd1.begin(MAX31865_2WIRE); // 4-wire RTD
    205e:	70 e0       	ldi	r23, 0x00	; 0
    2060:	60 e0       	ldi	r22, 0x00	; 0
    2062:	88 e6       	ldi	r24, 0x68	; 104
    2064:	95 e0       	ldi	r25, 0x05	; 5
    2066:	0e 94 24 07 	call	0xe48	; 0xe48 <Adafruit_MAX31865::begin(max31865_numwires)>
/home/huser/Dev/TAD_Workspace/Projects/firmwares/OnlyCell/OnlyCell.ino:87
  rtd2.begin(MAX31865_3WIRE); // 4-wire RTD
    206a:	61 e0       	ldi	r22, 0x01	; 1
    206c:	70 e0       	ldi	r23, 0x00	; 0
    206e:	84 e8       	ldi	r24, 0x84	; 132
    2070:	95 e0       	ldi	r25, 0x05	; 5
    2072:	0e 94 24 07 	call	0xe48	; 0xe48 <Adafruit_MAX31865::begin(max31865_numwires)>
/home/huser/Dev/TAD_Workspace/Projects/firmwares/OnlyCell/OnlyCell.ino:90

  // Pin initialization
  pinMode(PELTIER_PWM_PIN, OUTPUT);
    2076:	61 e0       	ldi	r22, 0x01	; 1
    2078:	84 e0       	ldi	r24, 0x04	; 4
    207a:	0e 94 1a 02 	call	0x434	; 0x434 <pinMode>
/home/huser/Dev/TAD_Workspace/Projects/firmwares/OnlyCell/OnlyCell.ino:91
  pinMode(PELTIER_SWITCH_1_PIN, OUTPUT);
    207e:	61 e0       	ldi	r22, 0x01	; 1
    2080:	8a e0       	ldi	r24, 0x0A	; 10
    2082:	0e 94 1a 02 	call	0x434	; 0x434 <pinMode>
/home/huser/Dev/TAD_Workspace/Projects/firmwares/OnlyCell/OnlyCell.ino:92
  pinMode(PELTIER_SWITCH_2_PIN, OUTPUT);
    2086:	61 e0       	ldi	r22, 0x01	; 1
    2088:	83 e1       	ldi	r24, 0x13	; 19
    208a:	0e 94 1a 02 	call	0x434	; 0x434 <pinMode>
/home/huser/Dev/TAD_Workspace/Projects/firmwares/OnlyCell/OnlyCell.ino:93
  pinMode(PELTIER_EN_PIN, OUTPUT);
    208e:	61 e0       	ldi	r22, 0x01	; 1
    2090:	89 e1       	ldi	r24, 0x19	; 25
    2092:	0e 94 1a 02 	call	0x434	; 0x434 <pinMode>
/home/huser/Dev/TAD_Workspace/Projects/firmwares/OnlyCell/OnlyCell.ino:94
  pinMode(HEATER_PWM_PIN, OUTPUT);
    2096:	61 e0       	ldi	r22, 0x01	; 1
    2098:	88 e0       	ldi	r24, 0x08	; 8
    209a:	0e 94 1a 02 	call	0x434	; 0x434 <pinMode>
/home/huser/Dev/TAD_Workspace/Projects/firmwares/OnlyCell/OnlyCell.ino:95
  pinMode(MOTOR_DIR_PIN, OUTPUT);
    209e:	61 e0       	ldi	r22, 0x01	; 1
    20a0:	8a e1       	ldi	r24, 0x1A	; 26
    20a2:	0e 94 1a 02 	call	0x434	; 0x434 <pinMode>
/home/huser/Dev/TAD_Workspace/Projects/firmwares/OnlyCell/OnlyCell.ino:96
  pinMode(MOTOR_PWM_PIN, OUTPUT);
    20a6:	61 e0       	ldi	r22, 0x01	; 1
    20a8:	87 e1       	ldi	r24, 0x17	; 23
    20aa:	0e 94 1a 02 	call	0x434	; 0x434 <pinMode>
/home/huser/Dev/TAD_Workspace/Projects/firmwares/OnlyCell/OnlyCell.ino:97
  Serial.println("Starting...");
    20ae:	89 e6       	ldi	r24, 0x69	; 105
    20b0:	91 e0       	ldi	r25, 0x01	; 1
    20b2:	0e 94 98 08 	call	0x1130	; 0x1130 <Print::println(char const*) [clone .constprop.47]>
/home/huser/Dev/TAD_Workspace/Projects/firmwares/OnlyCell/OnlyCell.ino:103

  //pinMode(MOTOR_FB_PIN, INPUT_PULLUP); // Set the interrupt pin as input
  //attachInterrupt(digitalPinToInterrupt(MOTOR_FB_PIN), countRPM, FALLING); // Attach interrupt on falling edge

  // Default pin states
  setPeltierInCoolingMode();
    20b6:	0e 94 a6 08 	call	0x114c	; 0x114c <setPeltierInCoolingMode()>
/home/huser/Dev/TAD_Workspace/Projects/firmwares/OnlyCell/OnlyCell.ino:104
  setPeltierEnable(false);
    20ba:	0e 94 ff 07 	call	0xffe	; 0xffe <setPeltierEnable(bool) [clone .constprop.22]>
/home/huser/Dev/TAD_Workspace/Projects/firmwares/OnlyCell/OnlyCell.ino:105
  digitalWrite(PELTIER_PWM_PIN, LOW);
    20be:	60 e0       	ldi	r22, 0x00	; 0
    20c0:	84 e0       	ldi	r24, 0x04	; 4
    20c2:	0e 94 84 01 	call	0x308	; 0x308 <digitalWrite>
/home/huser/Dev/TAD_Workspace/Projects/firmwares/OnlyCell/OnlyCell.ino:106
  digitalWrite(HEATER_PWM_PIN, LOW);
    20c6:	60 e0       	ldi	r22, 0x00	; 0
    20c8:	88 e0       	ldi	r24, 0x08	; 8
    20ca:	0e 94 84 01 	call	0x308	; 0x308 <digitalWrite>
/home/huser/Dev/TAD_Workspace/Projects/firmwares/OnlyCell/OnlyCell.ino:107
  digitalWrite(MOTOR_DIR_PIN, HIGH);
    20ce:	61 e0       	ldi	r22, 0x01	; 1
    20d0:	8a e1       	ldi	r24, 0x1A	; 26
    20d2:	0e 94 84 01 	call	0x308	; 0x308 <digitalWrite>
/home/huser/Dev/TAD_Workspace/Projects/firmwares/OnlyCell/OnlyCell.ino:110

  m_rpmCount = 0;
  m_dutyCycleHeater = 0;
    20d6:	10 92 74 04 	sts	0x0474, r1	; 0x800474 <m_dutyCycleHeater>
/home/huser/Dev/TAD_Workspace/Projects/firmwares/OnlyCell/OnlyCell.ino:111
  m_dutyCyclePeltier = 0;
    20da:	10 92 73 04 	sts	0x0473, r1	; 0x800473 <m_dutyCyclePeltier>
/home/huser/Dev/TAD_Workspace/Projects/firmwares/OnlyCell/OnlyCell.ino:112
  m_motorDutyCycle = 0;
    20de:	10 92 f5 03 	sts	0x03F5, r1	; 0x8003f5 <m_motorDutyCycle>
    20e2:	10 92 f6 03 	sts	0x03F6, r1	; 0x8003f6 <m_motorDutyCycle+0x1>
    20e6:	10 92 f7 03 	sts	0x03F7, r1	; 0x8003f7 <m_motorDutyCycle+0x2>
    20ea:	10 92 f8 03 	sts	0x03F8, r1	; 0x8003f8 <m_motorDutyCycle+0x3>
/home/huser/Dev/TAD_Workspace/Projects/firmwares/OnlyCell/OnlyCell.ino:114

  readRTDTemperatureExt(rtd2, RREF, "RTD 2");
    20ee:	0e 94 85 0a 	call	0x150a	; 0x150a <readRTDTemperatureExt(Adafruit_MAX31865&, float, char const*) [clone .constprop.17]>
/home/huser/Dev/TAD_Workspace/Projects/firmwares/OnlyCell/OnlyCell.ino:115
  m_targetTemperature = m_currentTempExternal;
    20f2:	80 91 27 05 	lds	r24, 0x0527	; 0x800527 <m_currentTempExternal>
    20f6:	90 91 28 05 	lds	r25, 0x0528	; 0x800528 <m_currentTempExternal+0x1>
    20fa:	a0 91 29 05 	lds	r26, 0x0529	; 0x800529 <m_currentTempExternal+0x2>
    20fe:	b0 91 2a 05 	lds	r27, 0x052A	; 0x80052a <m_currentTempExternal+0x3>
    2102:	80 93 1f 05 	sts	0x051F, r24	; 0x80051f <m_targetTemperature>
    2106:	90 93 20 05 	sts	0x0520, r25	; 0x800520 <m_targetTemperature+0x1>
    210a:	a0 93 21 05 	sts	0x0521, r26	; 0x800521 <m_targetTemperature+0x2>
    210e:	b0 93 22 05 	sts	0x0522, r27	; 0x800522 <m_targetTemperature+0x3>
/home/huser/Dev/TAD_Workspace/Projects/firmwares/OnlyCell/OnlyCell.ino:116
  m_targetRpm = 0;
    2112:	10 92 e5 03 	sts	0x03E5, r1	; 0x8003e5 <m_targetRpm>
    2116:	10 92 e6 03 	sts	0x03E6, r1	; 0x8003e6 <m_targetRpm+0x1>
    211a:	10 92 e7 03 	sts	0x03E7, r1	; 0x8003e7 <m_targetRpm+0x2>
    211e:	10 92 e8 03 	sts	0x03E8, r1	; 0x8003e8 <m_targetRpm+0x3>
SetMode():
/home/huser/Arduino/libraries/PID/PID_v1.cpp:178
 * automatically initialized
 ******************************************************************************/
void PID::SetMode(int Mode)
{
    bool newAuto = (Mode == AUTOMATIC);
    if(newAuto && !inAuto)
    2122:	80 91 65 05 	lds	r24, 0x0565	; 0x800565 <m_pidHeater+0x3a>
    2126:	00 91 49 05 	lds	r16, 0x0549	; 0x800549 <m_pidHeater+0x1e>
    212a:	10 91 4a 05 	lds	r17, 0x054A	; 0x80054a <m_pidHeater+0x1f>
    212e:	81 11       	cpse	r24, r1
    2130:	46 c0       	rjmp	.+140    	; 0x21be <main+0x240>
Initialize():
/home/huser/Arduino/libraries/PID/PID_v1.cpp:191
 *	does all the things that need to happen to ensure a bumpless transfer
 *  from manual to automatic mode.
 ******************************************************************************/
void PID::Initialize()
{
   outputSum = *myOutput;
    2132:	d8 01       	movw	r26, r16
    2134:	cd 90       	ld	r12, X+
    2136:	dd 90       	ld	r13, X+
    2138:	ed 90       	ld	r14, X+
    213a:	fc 90       	ld	r15, X
    213c:	c0 92 51 05 	sts	0x0551, r12	; 0x800551 <m_pidHeater+0x26>
    2140:	d0 92 52 05 	sts	0x0552, r13	; 0x800552 <m_pidHeater+0x27>
    2144:	e0 92 53 05 	sts	0x0553, r14	; 0x800553 <m_pidHeater+0x28>
    2148:	f0 92 54 05 	sts	0x0554, r15	; 0x800554 <m_pidHeater+0x29>
/home/huser/Arduino/libraries/PID/PID_v1.cpp:192
   lastInput = *myInput;
    214c:	e0 91 47 05 	lds	r30, 0x0547	; 0x800547 <m_pidHeater+0x1c>
    2150:	f0 91 48 05 	lds	r31, 0x0548	; 0x800548 <m_pidHeater+0x1d>
    2154:	80 81       	ld	r24, Z
    2156:	91 81       	ldd	r25, Z+1	; 0x01
    2158:	a2 81       	ldd	r26, Z+2	; 0x02
    215a:	b3 81       	ldd	r27, Z+3	; 0x03
    215c:	80 93 55 05 	sts	0x0555, r24	; 0x800555 <m_pidHeater+0x2a>
    2160:	90 93 56 05 	sts	0x0556, r25	; 0x800556 <m_pidHeater+0x2b>
    2164:	a0 93 57 05 	sts	0x0557, r26	; 0x800557 <m_pidHeater+0x2c>
    2168:	b0 93 58 05 	sts	0x0558, r27	; 0x800558 <m_pidHeater+0x2d>
/home/huser/Arduino/libraries/PID/PID_v1.cpp:193
   if(outputSum > outMax) outputSum = outMax;
    216c:	80 90 61 05 	lds	r8, 0x0561	; 0x800561 <m_pidHeater+0x36>
    2170:	90 90 62 05 	lds	r9, 0x0562	; 0x800562 <m_pidHeater+0x37>
    2174:	a0 90 63 05 	lds	r10, 0x0563	; 0x800563 <m_pidHeater+0x38>
    2178:	b0 90 64 05 	lds	r11, 0x0564	; 0x800564 <m_pidHeater+0x39>
    217c:	a5 01       	movw	r20, r10
    217e:	94 01       	movw	r18, r8
    2180:	c7 01       	movw	r24, r14
    2182:	b6 01       	movw	r22, r12
    2184:	0e 94 80 21 	call	0x4300	; 0x4300 <__gesf2>
    2188:	18 16       	cp	r1, r24
    218a:	4c f4       	brge	.+18     	; 0x219e <main+0x220>
/home/huser/Arduino/libraries/PID/PID_v1.cpp:194
   else if(outputSum < outMin) outputSum = outMin;
    218c:	80 92 51 05 	sts	0x0551, r8	; 0x800551 <m_pidHeater+0x26>
    2190:	90 92 52 05 	sts	0x0552, r9	; 0x800552 <m_pidHeater+0x27>
    2194:	a0 92 53 05 	sts	0x0553, r10	; 0x800553 <m_pidHeater+0x28>
    2198:	b0 92 54 05 	sts	0x0554, r11	; 0x800554 <m_pidHeater+0x29>
    219c:	10 c0       	rjmp	.+32     	; 0x21be <main+0x240>
    219e:	80 90 5d 05 	lds	r8, 0x055D	; 0x80055d <m_pidHeater+0x32>
    21a2:	90 90 5e 05 	lds	r9, 0x055E	; 0x80055e <m_pidHeater+0x33>
    21a6:	a0 90 5f 05 	lds	r10, 0x055F	; 0x80055f <m_pidHeater+0x34>
    21aa:	b0 90 60 05 	lds	r11, 0x0560	; 0x800560 <m_pidHeater+0x35>
    21ae:	a5 01       	movw	r20, r10
    21b0:	94 01       	movw	r18, r8
    21b2:	c7 01       	movw	r24, r14
    21b4:	b6 01       	movw	r22, r12
    21b6:	0e 94 f3 1e 	call	0x3de6	; 0x3de6 <__cmpsf2>
    21ba:	87 fd       	sbrc	r24, 7
    21bc:	e7 cf       	rjmp	.-50     	; 0x218c <main+0x20e>
SetMode():
/home/huser/Arduino/libraries/PID/PID_v1.cpp:182
    bool newAuto = (Mode == AUTOMATIC);
    if(newAuto && !inAuto)
    {  /*we just went from manual to auto*/
        PID::Initialize();
    }
    inAuto = newAuto;
    21be:	81 e0       	ldi	r24, 0x01	; 1
    21c0:	80 93 65 05 	sts	0x0565, r24	; 0x800565 <m_pidHeater+0x3a>
SetOutputLimits():
/home/huser/Arduino/libraries/PID/PID_v1.cpp:157
 *  here.
 **************************************************************************/
void PID::SetOutputLimits(double Min, double Max)
{
   if(Min >= Max) return;
   outMin = Min;
    21c4:	c1 2c       	mov	r12, r1
    21c6:	d1 2c       	mov	r13, r1
    21c8:	28 ec       	ldi	r18, 0xC8	; 200
    21ca:	e2 2e       	mov	r14, r18
    21cc:	22 ec       	ldi	r18, 0xC2	; 194
    21ce:	f2 2e       	mov	r15, r18
    21d0:	c0 92 5d 05 	sts	0x055D, r12	; 0x80055d <m_pidHeater+0x32>
    21d4:	d0 92 5e 05 	sts	0x055E, r13	; 0x80055e <m_pidHeater+0x33>
    21d8:	e0 92 5f 05 	sts	0x055F, r14	; 0x80055f <m_pidHeater+0x34>
    21dc:	f0 92 60 05 	sts	0x0560, r15	; 0x800560 <m_pidHeater+0x35>
/home/huser/Arduino/libraries/PID/PID_v1.cpp:158
   outMax = Max;
    21e0:	41 2c       	mov	r4, r1
    21e2:	51 2c       	mov	r5, r1
    21e4:	38 ec       	ldi	r19, 0xC8	; 200
    21e6:	63 2e       	mov	r6, r19
    21e8:	32 e4       	ldi	r19, 0x42	; 66
    21ea:	73 2e       	mov	r7, r19
    21ec:	40 92 61 05 	sts	0x0561, r4	; 0x800561 <m_pidHeater+0x36>
    21f0:	50 92 62 05 	sts	0x0562, r5	; 0x800562 <m_pidHeater+0x37>
    21f4:	60 92 63 05 	sts	0x0563, r6	; 0x800563 <m_pidHeater+0x38>
    21f8:	70 92 64 05 	sts	0x0564, r7	; 0x800564 <m_pidHeater+0x39>
/home/huser/Arduino/libraries/PID/PID_v1.cpp:162

   if(inAuto)
   {
	   if(*myOutput > outMax) *myOutput = outMax;
    21fc:	f8 01       	movw	r30, r16
    21fe:	80 80       	ld	r8, Z
    2200:	91 80       	ldd	r9, Z+1	; 0x01
    2202:	a2 80       	ldd	r10, Z+2	; 0x02
    2204:	b3 80       	ldd	r11, Z+3	; 0x03
    2206:	a3 01       	movw	r20, r6
    2208:	92 01       	movw	r18, r4
    220a:	c5 01       	movw	r24, r10
    220c:	b4 01       	movw	r22, r8
    220e:	0e 94 80 21 	call	0x4300	; 0x4300 <__gesf2>
    2212:	18 16       	cp	r1, r24
    2214:	3c f5       	brge	.+78     	; 0x2264 <main+0x2e6>
    2216:	d8 01       	movw	r26, r16
    2218:	4d 92       	st	X+, r4
    221a:	5d 92       	st	X+, r5
    221c:	6d 92       	st	X+, r6
    221e:	7c 92       	st	X, r7
    2220:	13 97       	sbiw	r26, 0x03	; 3
/home/huser/Arduino/libraries/PID/PID_v1.cpp:165
	   else if(*myOutput < outMin) *myOutput = outMin;

	   if(outputSum > outMax) outputSum= outMax;
    2222:	80 90 51 05 	lds	r8, 0x0551	; 0x800551 <m_pidHeater+0x26>
    2226:	90 90 52 05 	lds	r9, 0x0552	; 0x800552 <m_pidHeater+0x27>
    222a:	a0 90 53 05 	lds	r10, 0x0553	; 0x800553 <m_pidHeater+0x28>
    222e:	b0 90 54 05 	lds	r11, 0x0554	; 0x800554 <m_pidHeater+0x29>
    2232:	c0 90 61 05 	lds	r12, 0x0561	; 0x800561 <m_pidHeater+0x36>
    2236:	d0 90 62 05 	lds	r13, 0x0562	; 0x800562 <m_pidHeater+0x37>
    223a:	e0 90 63 05 	lds	r14, 0x0563	; 0x800563 <m_pidHeater+0x38>
    223e:	f0 90 64 05 	lds	r15, 0x0564	; 0x800564 <m_pidHeater+0x39>
    2242:	a7 01       	movw	r20, r14
    2244:	96 01       	movw	r18, r12
    2246:	c5 01       	movw	r24, r10
    2248:	b4 01       	movw	r22, r8
    224a:	0e 94 80 21 	call	0x4300	; 0x4300 <__gesf2>
    224e:	18 16       	cp	r1, r24
    2250:	cc f4       	brge	.+50     	; 0x2284 <main+0x306>
/home/huser/Arduino/libraries/PID/PID_v1.cpp:166
	   else if(outputSum < outMin) outputSum= outMin;
    2252:	c0 92 51 05 	sts	0x0551, r12	; 0x800551 <m_pidHeater+0x26>
    2256:	d0 92 52 05 	sts	0x0552, r13	; 0x800552 <m_pidHeater+0x27>
    225a:	e0 92 53 05 	sts	0x0553, r14	; 0x800553 <m_pidHeater+0x28>
    225e:	f0 92 54 05 	sts	0x0554, r15	; 0x800554 <m_pidHeater+0x29>
    2262:	20 c0       	rjmp	.+64     	; 0x22a4 <main+0x326>
/home/huser/Arduino/libraries/PID/PID_v1.cpp:163
   outMax = Max;

   if(inAuto)
   {
	   if(*myOutput > outMax) *myOutput = outMax;
	   else if(*myOutput < outMin) *myOutput = outMin;
    2264:	20 e0       	ldi	r18, 0x00	; 0
    2266:	30 e0       	ldi	r19, 0x00	; 0
    2268:	48 ec       	ldi	r20, 0xC8	; 200
    226a:	52 ec       	ldi	r21, 0xC2	; 194
    226c:	c5 01       	movw	r24, r10
    226e:	b4 01       	movw	r22, r8
    2270:	0e 94 f3 1e 	call	0x3de6	; 0x3de6 <__cmpsf2>
    2274:	87 ff       	sbrs	r24, 7
    2276:	d5 cf       	rjmp	.-86     	; 0x2222 <main+0x2a4>
    2278:	f8 01       	movw	r30, r16
    227a:	c0 82       	st	Z, r12
    227c:	d1 82       	std	Z+1, r13	; 0x01
    227e:	e2 82       	std	Z+2, r14	; 0x02
    2280:	f3 82       	std	Z+3, r15	; 0x03
    2282:	cf cf       	rjmp	.-98     	; 0x2222 <main+0x2a4>
/home/huser/Arduino/libraries/PID/PID_v1.cpp:166

	   if(outputSum > outMax) outputSum= outMax;
	   else if(outputSum < outMin) outputSum= outMin;
    2284:	c0 90 5d 05 	lds	r12, 0x055D	; 0x80055d <m_pidHeater+0x32>
    2288:	d0 90 5e 05 	lds	r13, 0x055E	; 0x80055e <m_pidHeater+0x33>
    228c:	e0 90 5f 05 	lds	r14, 0x055F	; 0x80055f <m_pidHeater+0x34>
    2290:	f0 90 60 05 	lds	r15, 0x0560	; 0x800560 <m_pidHeater+0x35>
    2294:	a7 01       	movw	r20, r14
    2296:	96 01       	movw	r18, r12
    2298:	c5 01       	movw	r24, r10
    229a:	b4 01       	movw	r22, r8
    229c:	0e 94 f3 1e 	call	0x3de6	; 0x3de6 <__cmpsf2>
    22a0:	87 fd       	sbrc	r24, 7
    22a2:	d7 cf       	rjmp	.-82     	; 0x2252 <main+0x2d4>
setup():
/home/huser/Dev/TAD_Workspace/Projects/firmwares/OnlyCell/OnlyCell.ino:125
  m_pidHeater.SetOutputLimits(-100, 100);  // Output limits for both heating and cooling
  //m_pidMotor.SetMode(AUTOMATIC);
  //m_pidMotor.SetOutputLimits(0, 100);  // Limit output to PWM range

  // Configure Timer 1 for 30kHz PWM (for both heater and peltier)
  TCCR1A = 0;  
    22a4:	10 92 80 00 	sts	0x0080, r1	; 0x800080 <__TEXT_REGION_LENGTH__+0x7f8080>
/home/huser/Dev/TAD_Workspace/Projects/firmwares/OnlyCell/OnlyCell.ino:126
  TCCR1B = (1 << WGM12) | (1 << CS10);  // CTC mode, no prescaler
    22a8:	89 e0       	ldi	r24, 0x09	; 9
    22aa:	80 93 81 00 	sts	0x0081, r24	; 0x800081 <__TEXT_REGION_LENGTH__+0x7f8081>
/home/huser/Dev/TAD_Workspace/Projects/firmwares/OnlyCell/OnlyCell.ino:127
  OCR1A = 266;  // 30 kHz interrupt frequency
    22ae:	8a e0       	ldi	r24, 0x0A	; 10
    22b0:	91 e0       	ldi	r25, 0x01	; 1
    22b2:	90 93 89 00 	sts	0x0089, r25	; 0x800089 <__TEXT_REGION_LENGTH__+0x7f8089>
    22b6:	80 93 88 00 	sts	0x0088, r24	; 0x800088 <__TEXT_REGION_LENGTH__+0x7f8088>
/home/huser/Dev/TAD_Workspace/Projects/firmwares/OnlyCell/OnlyCell.ino:128
  TIMSK1 |= (1 << OCIE1A);  // Enable compare match interrupt
    22ba:	80 91 6f 00 	lds	r24, 0x006F	; 0x80006f <__TEXT_REGION_LENGTH__+0x7f806f>
    22be:	82 60       	ori	r24, 0x02	; 2
    22c0:	80 93 6f 00 	sts	0x006F, r24	; 0x80006f <__TEXT_REGION_LENGTH__+0x7f806f>
readRTDTemperatureInner():
/home/huser/Dev/TAD_Workspace/Projects/firmwares/OnlyCell/OnlyCell.ino:347
}


// Function to read temperature and check faults for the RTD sensor
void readRTDTemperatureInner(Adafruit_MAX31865 &rtdDev, float rref, const char *deviceName) {
  uint16_t rtd = rtdDev.readRTD();
    22c4:	88 e6       	ldi	r24, 0x68	; 104
    22c6:	95 e0       	ldi	r25, 0x05	; 5
    22c8:	0e 94 d8 06 	call	0xdb0	; 0xdb0 <Adafruit_MAX31865::readRTD()>
temperature():
/home/huser/Arduino/libraries/Adafruit_MAX31865_library/Adafruit_MAX31865.cpp:233
    430 or 4300
    @returns Temperature in C
*/
/**************************************************************************/
float Adafruit_MAX31865::temperature(float RTDnominal, float refResistor) {
  return calculateTemperature(readRTD(), RTDnominal, refResistor);
    22cc:	88 e6       	ldi	r24, 0x68	; 104
    22ce:	95 e0       	ldi	r25, 0x05	; 5
    22d0:	0e 94 d8 06 	call	0xdb0	; 0xdb0 <Adafruit_MAX31865::readRTD()>
    22d4:	0e 94 c4 09 	call	0x1388	; 0x1388 <Adafruit_MAX31865::calculateTemperature(unsigned int, float, float) [clone .constprop.20]>
    22d8:	6b 01       	movw	r12, r22
    22da:	7c 01       	movw	r14, r24
readRTDTemperatureInner():
/home/huser/Dev/TAD_Workspace/Projects/firmwares/OnlyCell/OnlyCell.ino:350
  float temperature = rtdDev.temperature(100, rref);

  uint8_t fault = rtdDev.readFault();
    22dc:	88 e6       	ldi	r24, 0x68	; 104
    22de:	95 e0       	ldi	r25, 0x05	; 5
    22e0:	0e 94 03 08 	call	0x1006	; 0x1006 <Adafruit_MAX31865::readFault(max31865_fault_cycle_t) [clone .constprop.21]>
/home/huser/Dev/TAD_Workspace/Projects/firmwares/OnlyCell/OnlyCell.ino:351
  if (fault) {
    22e4:	88 23       	and	r24, r24
    22e6:	09 f4       	brne	.+2      	; 0x22ea <main+0x36c>
    22e8:	13 c2       	rjmp	.+1062   	; 0x2710 <main+0x792>
/home/huser/Dev/TAD_Workspace/Projects/firmwares/OnlyCell/OnlyCell.ino:352
    rtdDev.clearFault();
    22ea:	88 e6       	ldi	r24, 0x68	; 104
    22ec:	95 e0       	ldi	r25, 0x05	; 5
    22ee:	0e 94 c9 06 	call	0xd92	; 0xd92 <Adafruit_MAX31865::clearFault()>
/home/huser/Dev/TAD_Workspace/Projects/firmwares/OnlyCell/OnlyCell.ino:353
    Serial.println("inner foult");
    22f2:	85 e7       	ldi	r24, 0x75	; 117
    22f4:	91 e0       	ldi	r25, 0x01	; 1
    22f6:	0e 94 98 08 	call	0x1130	; 0x1130 <Print::println(char const*) [clone .constprop.47]>
loop():
/home/huser/Dev/TAD_Workspace/Projects/firmwares/OnlyCell/OnlyCell.ino:144
void loop() {  


 
  readRTDTemperatureInner(rtd1, RREF, "RTD 1");
  readRTDTemperatureExt(rtd2, RREF, "RTD 2");
    22fa:	0e 94 85 0a 	call	0x150a	; 0x150a <readRTDTemperatureExt(Adafruit_MAX31865&, float, char const*) [clone .constprop.17]>
Compute():
/home/huser/Arduino/libraries/PID/PID_v1.cpp:60
 *   pid Output needs to be computed.  returns true when the output is computed,
 *   false when nothing has been done.
 **********************************************************************************/
bool PID::Compute()
{
   if(!inAuto) return false;
    22fe:	80 91 65 05 	lds	r24, 0x0565	; 0x800565 <m_pidHeater+0x3a>
    2302:	88 23       	and	r24, r24
    2304:	09 f4       	brne	.+2      	; 0x2308 <main+0x38a>
    2306:	31 c1       	rjmp	.+610    	; 0x256a <main+0x5ec>
millis():
/home/huser/.arduino15/packages/MiniCore/hardware/avr/3.0.2/cores/MCUdude_corefiles/wiring.c:218
}

unsigned long millis()
{
  unsigned long m;
  uint8_t oldSREG = SREG;
    2308:	8f b7       	in	r24, 0x3f	; 63
/home/huser/.arduino15/packages/MiniCore/hardware/avr/3.0.2/cores/MCUdude_corefiles/wiring.c:222

  // disable interrupts while we read timer0_millis or we might get an
  // inconsistent value (e.g. in the middle of a write to timer0_millis)
  cli();
    230a:	f8 94       	cli
/home/huser/.arduino15/packages/MiniCore/hardware/avr/3.0.2/cores/MCUdude_corefiles/wiring.c:223
  m = timer0_millis;
    230c:	20 91 1b 05 	lds	r18, 0x051B	; 0x80051b <timer0_millis>
    2310:	30 91 1c 05 	lds	r19, 0x051C	; 0x80051c <timer0_millis+0x1>
    2314:	40 91 1d 05 	lds	r20, 0x051D	; 0x80051d <timer0_millis+0x2>
    2318:	50 91 1e 05 	lds	r21, 0x051E	; 0x80051e <timer0_millis+0x3>
    231c:	2c 8f       	std	Y+28, r18	; 0x1c
    231e:	3d 8f       	std	Y+29, r19	; 0x1d
    2320:	4e 8f       	std	Y+30, r20	; 0x1e
    2322:	5f 8f       	std	Y+31, r21	; 0x1f
/home/huser/.arduino15/packages/MiniCore/hardware/avr/3.0.2/cores/MCUdude_corefiles/wiring.c:224
  SREG = oldSREG;
    2324:	8f bf       	out	0x3f, r24	; 63
Compute():
/home/huser/Arduino/libraries/PID/PID_v1.cpp:62
   unsigned long now = millis();
   unsigned long timeChange = (now - lastTime);
    2326:	80 91 4d 05 	lds	r24, 0x054D	; 0x80054d <m_pidHeater+0x22>
    232a:	90 91 4e 05 	lds	r25, 0x054E	; 0x80054e <m_pidHeater+0x23>
    232e:	a0 91 4f 05 	lds	r26, 0x054F	; 0x80054f <m_pidHeater+0x24>
    2332:	b0 91 50 05 	lds	r27, 0x0550	; 0x800550 <m_pidHeater+0x25>
    2336:	4c 8d       	ldd	r20, Y+28	; 0x1c
    2338:	5d 8d       	ldd	r21, Y+29	; 0x1d
    233a:	6e 8d       	ldd	r22, Y+30	; 0x1e
    233c:	7f 8d       	ldd	r23, Y+31	; 0x1f
    233e:	48 1b       	sub	r20, r24
    2340:	59 0b       	sbc	r21, r25
    2342:	6a 0b       	sbc	r22, r26
    2344:	7b 0b       	sbc	r23, r27
/home/huser/Arduino/libraries/PID/PID_v1.cpp:63
   if(timeChange>=SampleTime)
    2346:	80 91 59 05 	lds	r24, 0x0559	; 0x800559 <m_pidHeater+0x2e>
    234a:	90 91 5a 05 	lds	r25, 0x055A	; 0x80055a <m_pidHeater+0x2f>
    234e:	a0 91 5b 05 	lds	r26, 0x055B	; 0x80055b <m_pidHeater+0x30>
    2352:	b0 91 5c 05 	lds	r27, 0x055C	; 0x80055c <m_pidHeater+0x31>
    2356:	48 17       	cp	r20, r24
    2358:	59 07       	cpc	r21, r25
    235a:	6a 07       	cpc	r22, r26
    235c:	7b 07       	cpc	r23, r27
    235e:	08 f4       	brcc	.+2      	; 0x2362 <main+0x3e4>
    2360:	04 c1       	rjmp	.+520    	; 0x256a <main+0x5ec>
/home/huser/Arduino/libraries/PID/PID_v1.cpp:66
   {
      /*Compute all the working error variables*/
      double input = *myInput;
    2362:	e0 91 47 05 	lds	r30, 0x0547	; 0x800547 <m_pidHeater+0x1c>
    2366:	f0 91 48 05 	lds	r31, 0x0548	; 0x800548 <m_pidHeater+0x1d>
    236a:	40 80       	ld	r4, Z
    236c:	51 80       	ldd	r5, Z+1	; 0x01
    236e:	62 80       	ldd	r6, Z+2	; 0x02
    2370:	73 80       	ldd	r7, Z+3	; 0x03
/home/huser/Arduino/libraries/PID/PID_v1.cpp:67
      double error = *mySetpoint - input;
    2372:	e0 91 4b 05 	lds	r30, 0x054B	; 0x80054b <m_pidHeater+0x20>
    2376:	f0 91 4c 05 	lds	r31, 0x054C	; 0x80054c <m_pidHeater+0x21>
    237a:	a3 01       	movw	r20, r6
    237c:	92 01       	movw	r18, r4
    237e:	60 81       	ld	r22, Z
    2380:	71 81       	ldd	r23, Z+1	; 0x01
    2382:	82 81       	ldd	r24, Z+2	; 0x02
    2384:	93 81       	ldd	r25, Z+3	; 0x03
    2386:	0e 94 6b 20 	call	0x40d6	; 0x40d6 <__subsf3>
    238a:	6b 01       	movw	r12, r22
    238c:	7c 01       	movw	r14, r24
/home/huser/Arduino/libraries/PID/PID_v1.cpp:68
      double dInput = (input - lastInput);
    238e:	20 91 55 05 	lds	r18, 0x0555	; 0x800555 <m_pidHeater+0x2a>
    2392:	30 91 56 05 	lds	r19, 0x0556	; 0x800556 <m_pidHeater+0x2b>
    2396:	40 91 57 05 	lds	r20, 0x0557	; 0x800557 <m_pidHeater+0x2c>
    239a:	50 91 58 05 	lds	r21, 0x0558	; 0x800558 <m_pidHeater+0x2d>
    239e:	c3 01       	movw	r24, r6
    23a0:	b2 01       	movw	r22, r4
    23a2:	0e 94 6b 20 	call	0x40d6	; 0x40d6 <__subsf3>
    23a6:	6b 8b       	std	Y+19, r22	; 0x13
    23a8:	7c 8b       	std	Y+20, r23	; 0x14
    23aa:	8d 8b       	std	Y+21, r24	; 0x15
    23ac:	9e 8b       	std	Y+22, r25	; 0x16
/home/huser/Arduino/libraries/PID/PID_v1.cpp:69
      outputSum+= (ki * error);
    23ae:	20 91 3b 05 	lds	r18, 0x053B	; 0x80053b <m_pidHeater+0x10>
    23b2:	30 91 3c 05 	lds	r19, 0x053C	; 0x80053c <m_pidHeater+0x11>
    23b6:	40 91 3d 05 	lds	r20, 0x053D	; 0x80053d <m_pidHeater+0x12>
    23ba:	50 91 3e 05 	lds	r21, 0x053E	; 0x80053e <m_pidHeater+0x13>
    23be:	c7 01       	movw	r24, r14
    23c0:	b6 01       	movw	r22, r12
    23c2:	0e 94 59 1f 	call	0x3eb2	; 0x3eb2 <__mulsf3>
    23c6:	20 91 51 05 	lds	r18, 0x0551	; 0x800551 <m_pidHeater+0x26>
    23ca:	30 91 52 05 	lds	r19, 0x0552	; 0x800552 <m_pidHeater+0x27>
    23ce:	40 91 53 05 	lds	r20, 0x0553	; 0x800553 <m_pidHeater+0x28>
    23d2:	50 91 54 05 	lds	r21, 0x0554	; 0x800554 <m_pidHeater+0x29>
    23d6:	0e 94 6c 20 	call	0x40d8	; 0x40d8 <__addsf3>
    23da:	4b 01       	movw	r8, r22
    23dc:	5c 01       	movw	r10, r24
    23de:	80 92 51 05 	sts	0x0551, r8	; 0x800551 <m_pidHeater+0x26>
    23e2:	90 92 52 05 	sts	0x0552, r9	; 0x800552 <m_pidHeater+0x27>
    23e6:	a0 92 53 05 	sts	0x0553, r10	; 0x800553 <m_pidHeater+0x28>
    23ea:	b0 92 54 05 	sts	0x0554, r11	; 0x800554 <m_pidHeater+0x29>
/home/huser/Arduino/libraries/PID/PID_v1.cpp:72

      /*Add Proportional on Measurement, if P_ON_M is specified*/
      if(!pOnE) outputSum-= kp * dInput;
    23ee:	30 91 66 05 	lds	r19, 0x0566	; 0x800566 <m_pidHeater+0x3b>
    23f2:	3f 8b       	std	Y+23, r19	; 0x17
    23f4:	31 11       	cpse	r19, r1
    23f6:	1c c0       	rjmp	.+56     	; 0x2430 <main+0x4b2>
    23f8:	20 91 37 05 	lds	r18, 0x0537	; 0x800537 <m_pidHeater+0xc>
    23fc:	30 91 38 05 	lds	r19, 0x0538	; 0x800538 <m_pidHeater+0xd>
    2400:	40 91 39 05 	lds	r20, 0x0539	; 0x800539 <m_pidHeater+0xe>
    2404:	50 91 3a 05 	lds	r21, 0x053A	; 0x80053a <m_pidHeater+0xf>
    2408:	6b 89       	ldd	r22, Y+19	; 0x13
    240a:	7c 89       	ldd	r23, Y+20	; 0x14
    240c:	8d 89       	ldd	r24, Y+21	; 0x15
    240e:	9e 89       	ldd	r25, Y+22	; 0x16
    2410:	0e 94 59 1f 	call	0x3eb2	; 0x3eb2 <__mulsf3>
    2414:	9b 01       	movw	r18, r22
    2416:	ac 01       	movw	r20, r24
    2418:	c5 01       	movw	r24, r10
    241a:	b4 01       	movw	r22, r8
    241c:	0e 94 6b 20 	call	0x40d6	; 0x40d6 <__subsf3>
    2420:	60 93 51 05 	sts	0x0551, r22	; 0x800551 <m_pidHeater+0x26>
    2424:	70 93 52 05 	sts	0x0552, r23	; 0x800552 <m_pidHeater+0x27>
    2428:	80 93 53 05 	sts	0x0553, r24	; 0x800553 <m_pidHeater+0x28>
    242c:	90 93 54 05 	sts	0x0554, r25	; 0x800554 <m_pidHeater+0x29>
/home/huser/Arduino/libraries/PID/PID_v1.cpp:74

      if(outputSum > outMax) outputSum= outMax;
    2430:	80 91 51 05 	lds	r24, 0x0551	; 0x800551 <m_pidHeater+0x26>
    2434:	90 91 52 05 	lds	r25, 0x0552	; 0x800552 <m_pidHeater+0x27>
    2438:	a0 91 53 05 	lds	r26, 0x0553	; 0x800553 <m_pidHeater+0x28>
    243c:	b0 91 54 05 	lds	r27, 0x0554	; 0x800554 <m_pidHeater+0x29>
    2440:	88 8f       	std	Y+24, r24	; 0x18
    2442:	99 8f       	std	Y+25, r25	; 0x19
    2444:	aa 8f       	std	Y+26, r26	; 0x1a
    2446:	bb 8f       	std	Y+27, r27	; 0x1b
    2448:	00 91 61 05 	lds	r16, 0x0561	; 0x800561 <m_pidHeater+0x36>
    244c:	30 90 62 05 	lds	r3, 0x0562	; 0x800562 <m_pidHeater+0x37>
    2450:	20 90 63 05 	lds	r2, 0x0563	; 0x800563 <m_pidHeater+0x38>
    2454:	10 91 64 05 	lds	r17, 0x0564	; 0x800564 <m_pidHeater+0x39>
    2458:	20 2f       	mov	r18, r16
    245a:	33 2d       	mov	r19, r3
    245c:	42 2d       	mov	r20, r2
    245e:	51 2f       	mov	r21, r17
    2460:	bc 01       	movw	r22, r24
    2462:	cd 01       	movw	r24, r26
    2464:	0e 94 80 21 	call	0x4300	; 0x4300 <__gesf2>
    2468:	18 16       	cp	r1, r24
    246a:	0c f0       	brlt	.+2      	; 0x246e <main+0x4f0>
    246c:	5a c1       	rjmp	.+692    	; 0x2722 <main+0x7a4>
    246e:	80 2f       	mov	r24, r16
    2470:	93 2d       	mov	r25, r3
    2472:	a2 2d       	mov	r26, r2
    2474:	b1 2f       	mov	r27, r17
    2476:	80 93 51 05 	sts	0x0551, r24	; 0x800551 <m_pidHeater+0x26>
    247a:	90 93 52 05 	sts	0x0552, r25	; 0x800552 <m_pidHeater+0x27>
    247e:	a0 93 53 05 	sts	0x0553, r26	; 0x800553 <m_pidHeater+0x28>
    2482:	b0 93 54 05 	sts	0x0554, r27	; 0x800554 <m_pidHeater+0x29>
/home/huser/Arduino/libraries/PID/PID_v1.cpp:79
      else if(outputSum < outMin) outputSum= outMin;

      /*Add Proportional on Error, if P_ON_E is specified*/
	   double output;
      if(pOnE) output = kp * error;
    2486:	9f 89       	ldd	r25, Y+23	; 0x17
    2488:	99 23       	and	r25, r25
    248a:	09 f4       	brne	.+2      	; 0x248e <main+0x510>
    248c:	65 c1       	rjmp	.+714    	; 0x2758 <main+0x7da>
    248e:	20 91 37 05 	lds	r18, 0x0537	; 0x800537 <m_pidHeater+0xc>
    2492:	30 91 38 05 	lds	r19, 0x0538	; 0x800538 <m_pidHeater+0xd>
    2496:	40 91 39 05 	lds	r20, 0x0539	; 0x800539 <m_pidHeater+0xe>
    249a:	50 91 3a 05 	lds	r21, 0x053A	; 0x80053a <m_pidHeater+0xf>
    249e:	c7 01       	movw	r24, r14
    24a0:	b6 01       	movw	r22, r12
    24a2:	0e 94 59 1f 	call	0x3eb2	; 0x3eb2 <__mulsf3>
    24a6:	6b 01       	movw	r12, r22
    24a8:	7c 01       	movw	r14, r24
/home/huser/Arduino/libraries/PID/PID_v1.cpp:83
      else output = 0;

      /*Compute Rest of PID Output*/
      output += outputSum - kd * dInput;
    24aa:	20 91 3f 05 	lds	r18, 0x053F	; 0x80053f <m_pidHeater+0x14>
    24ae:	30 91 40 05 	lds	r19, 0x0540	; 0x800540 <m_pidHeater+0x15>
    24b2:	40 91 41 05 	lds	r20, 0x0541	; 0x800541 <m_pidHeater+0x16>
    24b6:	50 91 42 05 	lds	r21, 0x0542	; 0x800542 <m_pidHeater+0x17>
    24ba:	6b 89       	ldd	r22, Y+19	; 0x13
    24bc:	7c 89       	ldd	r23, Y+20	; 0x14
    24be:	8d 89       	ldd	r24, Y+21	; 0x15
    24c0:	9e 89       	ldd	r25, Y+22	; 0x16
    24c2:	0e 94 59 1f 	call	0x3eb2	; 0x3eb2 <__mulsf3>
    24c6:	9b 01       	movw	r18, r22
    24c8:	ac 01       	movw	r20, r24
    24ca:	60 91 51 05 	lds	r22, 0x0551	; 0x800551 <m_pidHeater+0x26>
    24ce:	70 91 52 05 	lds	r23, 0x0552	; 0x800552 <m_pidHeater+0x27>
    24d2:	80 91 53 05 	lds	r24, 0x0553	; 0x800553 <m_pidHeater+0x28>
    24d6:	90 91 54 05 	lds	r25, 0x0554	; 0x800554 <m_pidHeater+0x29>
    24da:	0e 94 6b 20 	call	0x40d6	; 0x40d6 <__subsf3>
    24de:	a7 01       	movw	r20, r14
    24e0:	96 01       	movw	r18, r12
    24e2:	0e 94 6c 20 	call	0x40d8	; 0x40d8 <__addsf3>
    24e6:	6b 01       	movw	r12, r22
    24e8:	7c 01       	movw	r14, r24
/home/huser/Arduino/libraries/PID/PID_v1.cpp:85

	    if(output > outMax) output = outMax;
    24ea:	9b 01       	movw	r18, r22
    24ec:	ac 01       	movw	r20, r24
    24ee:	60 2f       	mov	r22, r16
    24f0:	73 2d       	mov	r23, r3
    24f2:	82 2d       	mov	r24, r2
    24f4:	91 2f       	mov	r25, r17
    24f6:	0e 94 f3 1e 	call	0x3de6	; 0x3de6 <__cmpsf2>
    24fa:	87 fd       	sbrc	r24, 7
    24fc:	16 c0       	rjmp	.+44     	; 0x252a <main+0x5ac>
/home/huser/Arduino/libraries/PID/PID_v1.cpp:86
      else if(output < outMin) output = outMin;
    24fe:	00 91 5d 05 	lds	r16, 0x055D	; 0x80055d <m_pidHeater+0x32>
    2502:	30 90 5e 05 	lds	r3, 0x055E	; 0x80055e <m_pidHeater+0x33>
    2506:	20 90 5f 05 	lds	r2, 0x055F	; 0x80055f <m_pidHeater+0x34>
    250a:	10 91 60 05 	lds	r17, 0x0560	; 0x800560 <m_pidHeater+0x35>
    250e:	20 2f       	mov	r18, r16
    2510:	33 2d       	mov	r19, r3
    2512:	42 2d       	mov	r20, r2
    2514:	51 2f       	mov	r21, r17
    2516:	b6 01       	movw	r22, r12
    2518:	c7 01       	movw	r24, r14
    251a:	0e 94 f3 1e 	call	0x3de6	; 0x3de6 <__cmpsf2>
    251e:	87 fd       	sbrc	r24, 7
    2520:	04 c0       	rjmp	.+8      	; 0x252a <main+0x5ac>
main():
/home/huser/Arduino/libraries/PID/PID_v1.cpp:83
	   double output;
      if(pOnE) output = kp * error;
      else output = 0;

      /*Compute Rest of PID Output*/
      output += outputSum - kd * dInput;
    2522:	0c 2d       	mov	r16, r12
    2524:	3d 2c       	mov	r3, r13
    2526:	2e 2c       	mov	r2, r14
    2528:	1f 2d       	mov	r17, r15
Compute():
/home/huser/Arduino/libraries/PID/PID_v1.cpp:87

	    if(output > outMax) output = outMax;
      else if(output < outMin) output = outMin;
	    *myOutput = output;
    252a:	e0 91 49 05 	lds	r30, 0x0549	; 0x800549 <m_pidHeater+0x1e>
    252e:	f0 91 4a 05 	lds	r31, 0x054A	; 0x80054a <m_pidHeater+0x1f>
    2532:	80 2f       	mov	r24, r16
    2534:	93 2d       	mov	r25, r3
    2536:	a2 2d       	mov	r26, r2
    2538:	b1 2f       	mov	r27, r17
    253a:	80 83       	st	Z, r24
    253c:	91 83       	std	Z+1, r25	; 0x01
    253e:	a2 83       	std	Z+2, r26	; 0x02
    2540:	b3 83       	std	Z+3, r27	; 0x03
/home/huser/Arduino/libraries/PID/PID_v1.cpp:90

      /*Remember some variables for next time*/
      lastInput = input;
    2542:	40 92 55 05 	sts	0x0555, r4	; 0x800555 <m_pidHeater+0x2a>
    2546:	50 92 56 05 	sts	0x0556, r5	; 0x800556 <m_pidHeater+0x2b>
    254a:	60 92 57 05 	sts	0x0557, r6	; 0x800557 <m_pidHeater+0x2c>
    254e:	70 92 58 05 	sts	0x0558, r7	; 0x800558 <m_pidHeater+0x2d>
/home/huser/Arduino/libraries/PID/PID_v1.cpp:91
      lastTime = now;
    2552:	2c 8d       	ldd	r18, Y+28	; 0x1c
    2554:	3d 8d       	ldd	r19, Y+29	; 0x1d
    2556:	4e 8d       	ldd	r20, Y+30	; 0x1e
    2558:	5f 8d       	ldd	r21, Y+31	; 0x1f
    255a:	20 93 4d 05 	sts	0x054D, r18	; 0x80054d <m_pidHeater+0x22>
    255e:	30 93 4e 05 	sts	0x054E, r19	; 0x80054e <m_pidHeater+0x23>
    2562:	40 93 4f 05 	sts	0x054F, r20	; 0x80054f <m_pidHeater+0x24>
    2566:	50 93 50 05 	sts	0x0550, r21	; 0x800550 <m_pidHeater+0x25>
loop():
/home/huser/Dev/TAD_Workspace/Projects/firmwares/OnlyCell/OnlyCell.ino:148
  m_pidHeater.Compute();


  if(m_currentTempExternal > m_targetTemperature && m_outputHeater > 0){
    256a:	20 91 1f 05 	lds	r18, 0x051F	; 0x80051f <m_targetTemperature>
    256e:	30 91 20 05 	lds	r19, 0x0520	; 0x800520 <m_targetTemperature+0x1>
    2572:	40 91 21 05 	lds	r20, 0x0521	; 0x800521 <m_targetTemperature+0x2>
    2576:	50 91 22 05 	lds	r21, 0x0522	; 0x800522 <m_targetTemperature+0x3>
    257a:	60 91 27 05 	lds	r22, 0x0527	; 0x800527 <m_currentTempExternal>
    257e:	70 91 28 05 	lds	r23, 0x0528	; 0x800528 <m_currentTempExternal+0x1>
    2582:	80 91 29 05 	lds	r24, 0x0529	; 0x800529 <m_currentTempExternal+0x2>
    2586:	90 91 2a 05 	lds	r25, 0x052A	; 0x80052a <m_currentTempExternal+0x3>
    258a:	0e 94 80 21 	call	0x4300	; 0x4300 <__gesf2>
    258e:	18 16       	cp	r1, r24
    2590:	cc f4       	brge	.+50     	; 0x25c4 <main+0x646>
    2592:	20 e0       	ldi	r18, 0x00	; 0
    2594:	30 e0       	ldi	r19, 0x00	; 0
    2596:	a9 01       	movw	r20, r18
    2598:	60 91 23 05 	lds	r22, 0x0523	; 0x800523 <m_outputHeater>
    259c:	70 91 24 05 	lds	r23, 0x0524	; 0x800524 <m_outputHeater+0x1>
    25a0:	80 91 25 05 	lds	r24, 0x0525	; 0x800525 <m_outputHeater+0x2>
    25a4:	90 91 26 05 	lds	r25, 0x0526	; 0x800526 <m_outputHeater+0x3>
    25a8:	0e 94 80 21 	call	0x4300	; 0x4300 <__gesf2>
    25ac:	18 16       	cp	r1, r24
    25ae:	54 f4       	brge	.+20     	; 0x25c4 <main+0x646>
/home/huser/Dev/TAD_Workspace/Projects/firmwares/OnlyCell/OnlyCell.ino:149
    m_outputHeater = 0;
    25b0:	10 92 23 05 	sts	0x0523, r1	; 0x800523 <m_outputHeater>
    25b4:	10 92 24 05 	sts	0x0524, r1	; 0x800524 <m_outputHeater+0x1>
    25b8:	10 92 25 05 	sts	0x0525, r1	; 0x800525 <m_outputHeater+0x2>
    25bc:	10 92 26 05 	sts	0x0526, r1	; 0x800526 <m_outputHeater+0x3>
/home/huser/Dev/TAD_Workspace/Projects/firmwares/OnlyCell/OnlyCell.ino:150
    setPeltierEnable(false);
    25c0:	0e 94 ff 07 	call	0xffe	; 0xffe <setPeltierEnable(bool) [clone .constprop.22]>
/home/huser/Dev/TAD_Workspace/Projects/firmwares/OnlyCell/OnlyCell.ino:153
  }

  if(m_currentTempExternal < m_targetTemperature && m_outputHeater < 0){
    25c4:	20 91 1f 05 	lds	r18, 0x051F	; 0x80051f <m_targetTemperature>
    25c8:	30 91 20 05 	lds	r19, 0x0520	; 0x800520 <m_targetTemperature+0x1>
    25cc:	40 91 21 05 	lds	r20, 0x0521	; 0x800521 <m_targetTemperature+0x2>
    25d0:	50 91 22 05 	lds	r21, 0x0522	; 0x800522 <m_targetTemperature+0x3>
    25d4:	60 91 27 05 	lds	r22, 0x0527	; 0x800527 <m_currentTempExternal>
    25d8:	70 91 28 05 	lds	r23, 0x0528	; 0x800528 <m_currentTempExternal+0x1>
    25dc:	80 91 29 05 	lds	r24, 0x0529	; 0x800529 <m_currentTempExternal+0x2>
    25e0:	90 91 2a 05 	lds	r25, 0x052A	; 0x80052a <m_currentTempExternal+0x3>
    25e4:	0e 94 f3 1e 	call	0x3de6	; 0x3de6 <__cmpsf2>
    25e8:	87 ff       	sbrs	r24, 7
    25ea:	19 c0       	rjmp	.+50     	; 0x261e <main+0x6a0>
    25ec:	20 e0       	ldi	r18, 0x00	; 0
    25ee:	30 e0       	ldi	r19, 0x00	; 0
    25f0:	a9 01       	movw	r20, r18
    25f2:	60 91 23 05 	lds	r22, 0x0523	; 0x800523 <m_outputHeater>
    25f6:	70 91 24 05 	lds	r23, 0x0524	; 0x800524 <m_outputHeater+0x1>
    25fa:	80 91 25 05 	lds	r24, 0x0525	; 0x800525 <m_outputHeater+0x2>
    25fe:	90 91 26 05 	lds	r25, 0x0526	; 0x800526 <m_outputHeater+0x3>
    2602:	0e 94 f3 1e 	call	0x3de6	; 0x3de6 <__cmpsf2>
    2606:	87 ff       	sbrs	r24, 7
    2608:	0a c0       	rjmp	.+20     	; 0x261e <main+0x6a0>
/home/huser/Dev/TAD_Workspace/Projects/firmwares/OnlyCell/OnlyCell.ino:154
    m_outputHeater = 0;
    260a:	10 92 23 05 	sts	0x0523, r1	; 0x800523 <m_outputHeater>
    260e:	10 92 24 05 	sts	0x0524, r1	; 0x800524 <m_outputHeater+0x1>
    2612:	10 92 25 05 	sts	0x0525, r1	; 0x800525 <m_outputHeater+0x2>
    2616:	10 92 26 05 	sts	0x0526, r1	; 0x800526 <m_outputHeater+0x3>
/home/huser/Dev/TAD_Workspace/Projects/firmwares/OnlyCell/OnlyCell.ino:155
    setPeltierEnable(false);
    261a:	0e 94 ff 07 	call	0xffe	; 0xffe <setPeltierEnable(bool) [clone .constprop.22]>
/home/huser/Dev/TAD_Workspace/Projects/firmwares/OnlyCell/OnlyCell.ino:161
  }

  
  

  if(abs(m_currentTempExternal - m_targetTemperature) < hysteresis) {
    261e:	20 91 1f 05 	lds	r18, 0x051F	; 0x80051f <m_targetTemperature>
    2622:	30 91 20 05 	lds	r19, 0x0520	; 0x800520 <m_targetTemperature+0x1>
    2626:	40 91 21 05 	lds	r20, 0x0521	; 0x800521 <m_targetTemperature+0x2>
    262a:	50 91 22 05 	lds	r21, 0x0522	; 0x800522 <m_targetTemperature+0x3>
    262e:	60 91 27 05 	lds	r22, 0x0527	; 0x800527 <m_currentTempExternal>
    2632:	70 91 28 05 	lds	r23, 0x0528	; 0x800528 <m_currentTempExternal+0x1>
    2636:	80 91 29 05 	lds	r24, 0x0529	; 0x800529 <m_currentTempExternal+0x2>
    263a:	90 91 2a 05 	lds	r25, 0x052A	; 0x80052a <m_currentTempExternal+0x3>
    263e:	0e 94 6b 20 	call	0x40d6	; 0x40d6 <__subsf3>
    2642:	6b 01       	movw	r12, r22
    2644:	7c 01       	movw	r14, r24
_Z3absIdEDTqugtfp_Li0Efp_ngfp_ERKT_():
/home/huser/.arduino15/packages/MiniCore/hardware/avr/3.0.2/cores/MCUdude_corefiles/Arduino.h:310
#endif

#ifdef __cplusplus
	template<class T>
	auto abs(const T& x) -> decltype(x > 0 ? x : -x) {
		return x > 0 ? x : -x;
    2646:	20 e0       	ldi	r18, 0x00	; 0
    2648:	30 e0       	ldi	r19, 0x00	; 0
    264a:	a9 01       	movw	r20, r18
    264c:	0e 94 80 21 	call	0x4300	; 0x4300 <__gesf2>
    2650:	18 16       	cp	r1, r24
    2652:	24 f0       	brlt	.+8      	; 0x265c <main+0x6de>
    2654:	f7 fa       	bst	r15, 7
    2656:	f0 94       	com	r15
    2658:	f7 f8       	bld	r15, 7
    265a:	f0 94       	com	r15
loop():
/home/huser/Dev/TAD_Workspace/Projects/firmwares/OnlyCell/OnlyCell.ino:161
    265c:	2d ec       	ldi	r18, 0xCD	; 205
    265e:	3c ec       	ldi	r19, 0xCC	; 204
    2660:	4c e4       	ldi	r20, 0x4C	; 76
    2662:	5e e3       	ldi	r21, 0x3E	; 62
    2664:	c7 01       	movw	r24, r14
    2666:	b6 01       	movw	r22, r12
    2668:	0e 94 f3 1e 	call	0x3de6	; 0x3de6 <__cmpsf2>
    266c:	87 ff       	sbrs	r24, 7
    266e:	78 c0       	rjmp	.+240    	; 0x2760 <main+0x7e2>
/home/huser/Dev/TAD_Workspace/Projects/firmwares/OnlyCell/OnlyCell.ino:163
    // If within the hysteresis range, turn off both heater and Peltier
    digitalWrite(HEATER_PWM_PIN, LOW);
    2670:	60 e0       	ldi	r22, 0x00	; 0
    2672:	88 e0       	ldi	r24, 0x08	; 8
    2674:	0e 94 84 01 	call	0x308	; 0x308 <digitalWrite>
/home/huser/Dev/TAD_Workspace/Projects/firmwares/OnlyCell/OnlyCell.ino:164
    digitalWrite(PELTIER_PWM_PIN, LOW);
    2678:	60 e0       	ldi	r22, 0x00	; 0
    267a:	84 e0       	ldi	r24, 0x04	; 4
    267c:	0e 94 84 01 	call	0x308	; 0x308 <digitalWrite>
/home/huser/Dev/TAD_Workspace/Projects/firmwares/OnlyCell/OnlyCell.ino:165
    setPeltierEnable(false);
    2680:	0e 94 ff 07 	call	0xffe	; 0xffe <setPeltierEnable(bool) [clone .constprop.22]>
/home/huser/Dev/TAD_Workspace/Projects/firmwares/OnlyCell/OnlyCell.ino:168


    m_dutyCycleHeater = 0;
    2684:	10 92 74 04 	sts	0x0474, r1	; 0x800474 <m_dutyCycleHeater>
/home/huser/Dev/TAD_Workspace/Projects/firmwares/OnlyCell/OnlyCell.ino:169
    m_dutyCyclePeltier = 100;
    2688:	34 e6       	ldi	r19, 0x64	; 100
    268a:	30 93 73 04 	sts	0x0473, r19	; 0x800473 <m_dutyCyclePeltier>
/home/huser/Dev/TAD_Workspace/Projects/firmwares/OnlyCell/OnlyCell.ino:235

 



  Serial.println("GOGOGOGO");
    268e:	85 eb       	ldi	r24, 0xB5	; 181
    2690:	91 e0       	ldi	r25, 0x01	; 1
    2692:	0e 94 98 08 	call	0x1130	; 0x1130 <Print::println(char const*) [clone .constprop.47]>
/home/huser/Dev/TAD_Workspace/Projects/firmwares/OnlyCell/OnlyCell.ino:236
  delay(20);
    2696:	64 e1       	ldi	r22, 0x14	; 20
    2698:	70 e0       	ldi	r23, 0x00	; 0
    269a:	80 e0       	ldi	r24, 0x00	; 0
    269c:	90 e0       	ldi	r25, 0x00	; 0
    269e:	0e 94 7b 02 	call	0x4f6	; 0x4f6 <delay>
handleSerialInput():
/home/huser/Dev/TAD_Workspace/Projects/firmwares/OnlyCell/OnlyCell.ino:362
}



void handleSerialInput() {
  if (Serial.available() > 0) {
    26a2:	8a e7       	ldi	r24, 0x7A	; 122
    26a4:	94 e0       	ldi	r25, 0x04	; 4
    26a6:	0e 94 4c 03 	call	0x698	; 0x698 <HardwareSerial::available()>
    26aa:	18 16       	cp	r1, r24
    26ac:	19 06       	cpc	r1, r25
    26ae:	0c f0       	brlt	.+2      	; 0x26b2 <main+0x734>
    26b0:	74 c2       	rjmp	.+1256   	; 0x2b9a <main+0xc1c>
_ZN6String4initEv():
/home/huser/.arduino15/packages/MiniCore/hardware/avr/3.0.2/cores/MCUdude_corefiles/WString.cpp:134
/*  Memory Management                        */
/*********************************************/

inline void String::init(void)
{
  buffer = NULL;
    26b2:	1e 86       	std	Y+14, r1	; 0x0e
    26b4:	1d 86       	std	Y+13, r1	; 0x0d
/home/huser/.arduino15/packages/MiniCore/hardware/avr/3.0.2/cores/MCUdude_corefiles/WString.cpp:135
  capacity = 0;
    26b6:	18 8a       	std	Y+16, r1	; 0x10
    26b8:	1f 86       	std	Y+15, r1	; 0x0f
/home/huser/.arduino15/packages/MiniCore/hardware/avr/3.0.2/cores/MCUdude_corefiles/WString.cpp:136
  len = 0;
    26ba:	1a 8a       	std	Y+18, r1	; 0x12
    26bc:	19 8a       	std	Y+17, r1	; 0x11
__base_ctor ():
    26be:	68 e3       	ldi	r22, 0x38	; 56
    26c0:	71 e0       	ldi	r23, 0x01	; 1
    26c2:	ce 01       	movw	r24, r28
    26c4:	0d 96       	adiw	r24, 0x0d	; 13
    26c6:	0e 94 fe 0a 	call	0x15fc	; 0x15fc <String::String(char const*) [clone .part.2]>
readStringUntil():
/home/huser/.arduino15/packages/MiniCore/hardware/avr/3.0.2/cores/MCUdude_corefiles/Stream.cpp:246
}

String Stream::readStringUntil(char terminator)
{
  String ret;
  int c = timedRead();
    26ca:	0e 94 fe 02 	call	0x5fc	; 0x5fc <Stream::timedRead() [clone .constprop.45]>
/home/huser/.arduino15/packages/MiniCore/hardware/avr/3.0.2/cores/MCUdude_corefiles/Stream.cpp:247
  while (c >= 0 && c != terminator)
    26ce:	97 fd       	sbrc	r25, 7
    26d0:	47 c1       	rjmp	.+654    	; 0x2960 <main+0x9e2>
    26d2:	8a 30       	cpi	r24, 0x0A	; 10
    26d4:	91 05       	cpc	r25, r1
    26d6:	09 f4       	brne	.+2      	; 0x26da <main+0x75c>
    26d8:	43 c1       	rjmp	.+646    	; 0x2960 <main+0x9e2>
/home/huser/.arduino15/packages/MiniCore/hardware/avr/3.0.2/cores/MCUdude_corefiles/Stream.cpp:249
  {
    ret += (char)c;
    26da:	89 83       	std	Y+1, r24	; 0x01
concat():
/home/huser/.arduino15/packages/MiniCore/hardware/avr/3.0.2/cores/MCUdude_corefiles/WString.cpp:285

unsigned char String::concat(char c)
{
  char buf[2];
  buf[0] = c;
  buf[1] = 0;
    26dc:	1a 82       	std	Y+2, r1	; 0x02
/home/huser/.arduino15/packages/MiniCore/hardware/avr/3.0.2/cores/MCUdude_corefiles/WString.cpp:266
  return concat(s.buffer, s.len);
}

unsigned char String::concat(const char *cstr, unsigned int length)
{
  unsigned int newlen = len + length;
    26de:	09 89       	ldd	r16, Y+17	; 0x11
    26e0:	1a 89       	ldd	r17, Y+18	; 0x12
    26e2:	0f 5f       	subi	r16, 0xFF	; 255
    26e4:	1f 4f       	sbci	r17, 0xFF	; 255
/home/huser/.arduino15/packages/MiniCore/hardware/avr/3.0.2/cores/MCUdude_corefiles/WString.cpp:269
  if (!cstr) return 0;
  if (length == 0) return 1;
  if (!reserve(newlen)) return 0;
    26e6:	b8 01       	movw	r22, r16
    26e8:	ce 01       	movw	r24, r28
    26ea:	0d 96       	adiw	r24, 0x0d	; 13
    26ec:	0e 94 d6 0a 	call	0x15ac	; 0x15ac <String::reserve(unsigned int)>
    26f0:	88 23       	and	r24, r24
    26f2:	59 f3       	breq	.-42     	; 0x26ca <main+0x74c>
/home/huser/.arduino15/packages/MiniCore/hardware/avr/3.0.2/cores/MCUdude_corefiles/WString.cpp:270
  strcpy(buffer + len, cstr);
    26f4:	2d 85       	ldd	r18, Y+13	; 0x0d
    26f6:	3e 85       	ldd	r19, Y+14	; 0x0e
    26f8:	89 89       	ldd	r24, Y+17	; 0x11
    26fa:	9a 89       	ldd	r25, Y+18	; 0x12
    26fc:	be 01       	movw	r22, r28
    26fe:	6f 5f       	subi	r22, 0xFF	; 255
    2700:	7f 4f       	sbci	r23, 0xFF	; 255
    2702:	82 0f       	add	r24, r18
    2704:	93 1f       	adc	r25, r19
    2706:	0e 94 34 24 	call	0x4868	; 0x4868 <strcpy>
/home/huser/.arduino15/packages/MiniCore/hardware/avr/3.0.2/cores/MCUdude_corefiles/WString.cpp:271
  len = newlen;
    270a:	1a 8b       	std	Y+18, r17	; 0x12
    270c:	09 8b       	std	Y+17, r16	; 0x11
    270e:	dd cf       	rjmp	.-70     	; 0x26ca <main+0x74c>
readRTDTemperatureInner():
/home/huser/Dev/TAD_Workspace/Projects/firmwares/OnlyCell/OnlyCell.ino:355
  uint8_t fault = rtdDev.readFault();
  if (fault) {
    rtdDev.clearFault();
    Serial.println("inner foult");
  } else {
    m_currentTempInner = temperature;  // Update global temperature variable
    2710:	c0 92 05 04 	sts	0x0405, r12	; 0x800405 <m_currentTempInner>
    2714:	d0 92 06 04 	sts	0x0406, r13	; 0x800406 <m_currentTempInner+0x1>
    2718:	e0 92 07 04 	sts	0x0407, r14	; 0x800407 <m_currentTempInner+0x2>
    271c:	f0 92 08 04 	sts	0x0408, r15	; 0x800408 <m_currentTempInner+0x3>
    2720:	ec cd       	rjmp	.-1064   	; 0x22fa <main+0x37c>
Compute():
/home/huser/Arduino/libraries/PID/PID_v1.cpp:75

      /*Add Proportional on Measurement, if P_ON_M is specified*/
      if(!pOnE) outputSum-= kp * dInput;

      if(outputSum > outMax) outputSum= outMax;
      else if(outputSum < outMin) outputSum= outMin;
    2722:	80 90 5d 05 	lds	r8, 0x055D	; 0x80055d <m_pidHeater+0x32>
    2726:	90 90 5e 05 	lds	r9, 0x055E	; 0x80055e <m_pidHeater+0x33>
    272a:	a0 90 5f 05 	lds	r10, 0x055F	; 0x80055f <m_pidHeater+0x34>
    272e:	b0 90 60 05 	lds	r11, 0x0560	; 0x800560 <m_pidHeater+0x35>
    2732:	a5 01       	movw	r20, r10
    2734:	94 01       	movw	r18, r8
    2736:	68 8d       	ldd	r22, Y+24	; 0x18
    2738:	79 8d       	ldd	r23, Y+25	; 0x19
    273a:	8a 8d       	ldd	r24, Y+26	; 0x1a
    273c:	9b 8d       	ldd	r25, Y+27	; 0x1b
    273e:	0e 94 f3 1e 	call	0x3de6	; 0x3de6 <__cmpsf2>
    2742:	87 ff       	sbrs	r24, 7
    2744:	a0 ce       	rjmp	.-704    	; 0x2486 <main+0x508>
    2746:	80 92 51 05 	sts	0x0551, r8	; 0x800551 <m_pidHeater+0x26>
    274a:	90 92 52 05 	sts	0x0552, r9	; 0x800552 <m_pidHeater+0x27>
    274e:	a0 92 53 05 	sts	0x0553, r10	; 0x800553 <m_pidHeater+0x28>
    2752:	b0 92 54 05 	sts	0x0554, r11	; 0x800554 <m_pidHeater+0x29>
    2756:	97 ce       	rjmp	.-722    	; 0x2486 <main+0x508>
main():
/home/huser/Arduino/libraries/PID/PID_v1.cpp:80

      /*Add Proportional on Error, if P_ON_E is specified*/
	   double output;
      if(pOnE) output = kp * error;
      else output = 0;
    2758:	c1 2c       	mov	r12, r1
    275a:	d1 2c       	mov	r13, r1
    275c:	76 01       	movw	r14, r12
    275e:	a5 ce       	rjmp	.-694    	; 0x24aa <main+0x52c>
loop():
/home/huser/Dev/TAD_Workspace/Projects/firmwares/OnlyCell/OnlyCell.ino:177
  
  
  //there is temp difference....
  else {
    // Adjust heater and peltier PWM based on the PID output
    if (m_outputHeater >= 0) {
    2760:	c0 90 23 05 	lds	r12, 0x0523	; 0x800523 <m_outputHeater>
    2764:	d0 90 24 05 	lds	r13, 0x0524	; 0x800524 <m_outputHeater+0x1>
    2768:	e0 90 25 05 	lds	r14, 0x0525	; 0x800525 <m_outputHeater+0x2>
    276c:	f0 90 26 05 	lds	r15, 0x0526	; 0x800526 <m_outputHeater+0x3>
    2770:	20 e0       	ldi	r18, 0x00	; 0
    2772:	30 e0       	ldi	r19, 0x00	; 0
    2774:	a9 01       	movw	r20, r18
    2776:	c7 01       	movw	r24, r14
    2778:	b6 01       	movw	r22, r12
    277a:	0e 94 80 21 	call	0x4300	; 0x4300 <__gesf2>
    277e:	87 fd       	sbrc	r24, 7
    2780:	a7 c0       	rjmp	.+334    	; 0x28d0 <main+0x952>
/home/huser/Dev/TAD_Workspace/Projects/firmwares/OnlyCell/OnlyCell.ino:178
      if(m_outputHeater > 80){
    2782:	20 e0       	ldi	r18, 0x00	; 0
    2784:	30 e0       	ldi	r19, 0x00	; 0
    2786:	40 ea       	ldi	r20, 0xA0	; 160
    2788:	52 e4       	ldi	r21, 0x42	; 66
    278a:	c7 01       	movw	r24, r14
    278c:	b6 01       	movw	r22, r12
    278e:	0e 94 80 21 	call	0x4300	; 0x4300 <__gesf2>
    2792:	18 16       	cp	r1, r24
    2794:	0c f0       	brlt	.+2      	; 0x2798 <main+0x81a>
    2796:	8c c0       	rjmp	.+280    	; 0x28b0 <main+0x932>
setPeltierInHeatingMode():
/home/huser/Dev/TAD_Workspace/Projects/firmwares/OnlyCell/OnlyCell.ino:59



void setPeltierInHeatingMode()
{
  Serial.println("Peltier is going in Heating mode...");
    2798:	81 e8       	ldi	r24, 0x81	; 129
    279a:	91 e0       	ldi	r25, 0x01	; 1
    279c:	0e 94 98 08 	call	0x1130	; 0x1130 <Print::println(char const*) [clone .constprop.47]>
/home/huser/Dev/TAD_Workspace/Projects/firmwares/OnlyCell/OnlyCell.ino:60
  setPeltierEnable(false);
    27a0:	0e 94 ff 07 	call	0xffe	; 0xffe <setPeltierEnable(bool) [clone .constprop.22]>
/home/huser/Dev/TAD_Workspace/Projects/firmwares/OnlyCell/OnlyCell.ino:61
  digitalWrite(PELTIER_SWITCH_1_PIN, LOW);
    27a4:	60 e0       	ldi	r22, 0x00	; 0
    27a6:	8a e0       	ldi	r24, 0x0A	; 10
    27a8:	0e 94 84 01 	call	0x308	; 0x308 <digitalWrite>
/home/huser/Dev/TAD_Workspace/Projects/firmwares/OnlyCell/OnlyCell.ino:62
  digitalWrite(PELTIER_SWITCH_2_PIN, HIGH);
    27ac:	61 e0       	ldi	r22, 0x01	; 1
    27ae:	83 e1       	ldi	r24, 0x13	; 19
    27b0:	0e 94 84 01 	call	0x308	; 0x308 <digitalWrite>
setPeltierEnable():
/home/huser/Dev/TAD_Workspace/Projects/firmwares/OnlyCell/OnlyCell.ino:76
}

void setPeltierEnable(bool en)
{
  if(en){
    digitalWrite(PELTIER_EN_PIN, HIGH);
    27b4:	61 e0       	ldi	r22, 0x01	; 1
    27b6:	89 e1       	ldi	r24, 0x19	; 25
    27b8:	0e 94 84 01 	call	0x308	; 0x308 <digitalWrite>
loop():
/home/huser/Dev/TAD_Workspace/Projects/firmwares/OnlyCell/OnlyCell.ino:181
    // Adjust heater and peltier PWM based on the PID output
    if (m_outputHeater >= 0) {
      if(m_outputHeater > 80){
        setPeltierInHeatingMode();
        setPeltierEnable(true);
        m_dutyCyclePeltier = 50;  // Invert the negative output
    27bc:	82 e3       	ldi	r24, 0x32	; 50
    27be:	80 93 73 04 	sts	0x0473, r24	; 0x800473 <m_dutyCyclePeltier>
/home/huser/Dev/TAD_Workspace/Projects/firmwares/OnlyCell/OnlyCell.ino:182
        updatePeltierPWMTiming();
    27c2:	0e 94 c9 07 	call	0xf92	; 0xf92 <updatePeltierPWMTiming()>
    27c6:	c0 90 23 05 	lds	r12, 0x0523	; 0x800523 <m_outputHeater>
    27ca:	d0 90 24 05 	lds	r13, 0x0524	; 0x800524 <m_outputHeater+0x1>
    27ce:	e0 90 25 05 	lds	r14, 0x0525	; 0x800525 <m_outputHeater+0x2>
    27d2:	f0 90 26 05 	lds	r15, 0x0526	; 0x800526 <m_outputHeater+0x3>
_Z9constrainIdiiEDTqultfp_fp0_fp0_qugtfp_fp1_fp1_fp_ERKT_RKT0_RKT1_():
/home/huser/.arduino15/packages/MiniCore/hardware/avr/3.0.2/cores/MCUdude_corefiles/Arduino.h:345
    return rad * RAD_TO_DEG;
  }

  template<class T, class L, class H>
	auto constrain(const T& x, const L& l, const H& h) -> decltype((x < l) ? l : (x > h) ? h : x) {
		return (x < l) ? l : (x > h) ? h : x;
    27d6:	20 e0       	ldi	r18, 0x00	; 0
    27d8:	30 e0       	ldi	r19, 0x00	; 0
    27da:	a9 01       	movw	r20, r18
    27dc:	c7 01       	movw	r24, r14
    27de:	b6 01       	movw	r22, r12
    27e0:	0e 94 f3 1e 	call	0x3de6	; 0x3de6 <__cmpsf2>
    27e4:	87 fd       	sbrc	r24, 7
    27e6:	69 c0       	rjmp	.+210    	; 0x28ba <main+0x93c>
    27e8:	20 e0       	ldi	r18, 0x00	; 0
    27ea:	30 e0       	ldi	r19, 0x00	; 0
    27ec:	48 ec       	ldi	r20, 0xC8	; 200
    27ee:	52 e4       	ldi	r21, 0x42	; 66
    27f0:	c7 01       	movw	r24, r14
    27f2:	b6 01       	movw	r22, r12
    27f4:	0e 94 80 21 	call	0x4300	; 0x4300 <__gesf2>
    27f8:	18 16       	cp	r1, r24
    27fa:	0c f4       	brge	.+2      	; 0x27fe <main+0x880>
    27fc:	62 c0       	rjmp	.+196    	; 0x28c2 <main+0x944>
loop():
/home/huser/Dev/TAD_Workspace/Projects/firmwares/OnlyCell/OnlyCell.ino:189
        setPeltierInCoolingMode();
        setPeltierEnable(false);
      }

      // Heating mode: positive PID output
      m_dutyCycleHeater = constrain(m_outputHeater, 0, 100); // Limit to 0-100%
    27fe:	c7 01       	movw	r24, r14
    2800:	b6 01       	movw	r22, r12
    2802:	0e 94 51 21 	call	0x42a2	; 0x42a2 <__fixunssfsi>
    2806:	60 93 74 04 	sts	0x0474, r22	; 0x800474 <m_dutyCycleHeater>
/home/huser/Dev/TAD_Workspace/Projects/firmwares/OnlyCell/OnlyCell.ino:190
      m_dutyCyclePeltier = 0;  // No cooling when heating
    280a:	10 92 73 04 	sts	0x0473, r1	; 0x800473 <m_dutyCyclePeltier>
updateHeaterPWMTiming():
/home/huser/Dev/TAD_Workspace/Projects/firmwares/OnlyCell/OnlyCell.ino:255
  Serial.println(message);
}

// Update heater PWM timing
void updateHeaterPWMTiming() {
  m_onTimeHeater = (m_dutyCycleHeater * 266) / 100;
    280e:	20 91 74 04 	lds	r18, 0x0474	; 0x800474 <m_dutyCycleHeater>
    2812:	4a e0       	ldi	r20, 0x0A	; 10
    2814:	51 e0       	ldi	r21, 0x01	; 1
    2816:	24 9f       	mul	r18, r20
    2818:	c0 01       	movw	r24, r0
    281a:	25 9f       	mul	r18, r21
    281c:	90 0d       	add	r25, r0
    281e:	11 24       	eor	r1, r1
    2820:	64 e6       	ldi	r22, 0x64	; 100
    2822:	70 e0       	ldi	r23, 0x00	; 0
    2824:	0e 94 e5 21 	call	0x43ca	; 0x43ca <__divmodhi4>
    2828:	70 93 d8 03 	sts	0x03D8, r23	; 0x8003d8 <m_onTimeHeater+0x1>
    282c:	60 93 d7 03 	sts	0x03D7, r22	; 0x8003d7 <m_onTimeHeater>
/home/huser/Dev/TAD_Workspace/Projects/firmwares/OnlyCell/OnlyCell.ino:256
  m_offTimeHeater = 266 - m_onTimeHeater;
    2830:	80 91 d7 03 	lds	r24, 0x03D7	; 0x8003d7 <m_onTimeHeater>
    2834:	90 91 d8 03 	lds	r25, 0x03D8	; 0x8003d8 <m_onTimeHeater+0x1>
    2838:	aa e0       	ldi	r26, 0x0A	; 10
    283a:	b1 e0       	ldi	r27, 0x01	; 1
    283c:	a8 1b       	sub	r26, r24
    283e:	b9 0b       	sbc	r27, r25
    2840:	b0 93 d6 03 	sts	0x03D6, r27	; 0x8003d6 <m_offTimeHeater+0x1>
    2844:	a0 93 d5 03 	sts	0x03D5, r26	; 0x8003d5 <m_offTimeHeater>
loop():
/home/huser/Dev/TAD_Workspace/Projects/firmwares/OnlyCell/OnlyCell.ino:204

    

    

    dtostrf(m_outputHeater, 3, 1, outputHeaterStr);  // Convert double to string
    2848:	60 91 23 05 	lds	r22, 0x0523	; 0x800523 <m_outputHeater>
    284c:	70 91 24 05 	lds	r23, 0x0524	; 0x800524 <m_outputHeater+0x1>
    2850:	80 91 25 05 	lds	r24, 0x0525	; 0x800525 <m_outputHeater+0x2>
    2854:	90 91 26 05 	lds	r25, 0x0526	; 0x800526 <m_outputHeater+0x3>
    2858:	0d e6       	ldi	r16, 0x6D	; 109
    285a:	14 e0       	ldi	r17, 0x04	; 4
    285c:	21 e0       	ldi	r18, 0x01	; 1
    285e:	43 e0       	ldi	r20, 0x03	; 3
    2860:	0e 94 6f 18 	call	0x30de	; 0x30de <dtostrf>
/home/huser/Dev/TAD_Workspace/Projects/firmwares/OnlyCell/OnlyCell.ino:205
    snprintf(message, MESSAGE_LENGTH, "%s#%d#%d#%s", 
    2864:	30 91 73 04 	lds	r19, 0x0473	; 0x800473 <m_dutyCyclePeltier>
    2868:	20 91 74 04 	lds	r18, 0x0474	; 0x800474 <m_dutyCycleHeater>
    286c:	c8 01       	movw	r24, r16
    286e:	9f 93       	push	r25
    2870:	0f 93       	push	r16
    2872:	1f 92       	push	r1
    2874:	3f 93       	push	r19
    2876:	1f 92       	push	r1
    2878:	2f 93       	push	r18
    287a:	e5 ea       	ldi	r30, 0xA5	; 165
    287c:	f1 e0       	ldi	r31, 0x01	; 1
    287e:	ff 93       	push	r31
    2880:	ef 93       	push	r30
    2882:	49 ea       	ldi	r20, 0xA9	; 169
    2884:	51 e0       	ldi	r21, 0x01	; 1
    2886:	5f 93       	push	r21
    2888:	4f 93       	push	r20
    288a:	1f 92       	push	r1
    288c:	94 e6       	ldi	r25, 0x64	; 100
    288e:	9f 93       	push	r25
    2890:	a9 e0       	ldi	r26, 0x09	; 9
    2892:	b4 e0       	ldi	r27, 0x04	; 4
    2894:	bf 93       	push	r27
    2896:	af 93       	push	r26
    2898:	0e 94 49 24 	call	0x4892	; 0x4892 <snprintf>
/home/huser/Dev/TAD_Workspace/Projects/firmwares/OnlyCell/OnlyCell.ino:207
           "pid", m_dutyCycleHeater, m_dutyCyclePeltier, outputHeaterStr);
    Serial.println(message);
    289c:	89 e0       	ldi	r24, 0x09	; 9
    289e:	94 e0       	ldi	r25, 0x04	; 4
    28a0:	0e 94 98 08 	call	0x1130	; 0x1130 <Print::println(char const*) [clone .constprop.47]>
    28a4:	0f b6       	in	r0, 0x3f	; 63
    28a6:	f8 94       	cli
    28a8:	de bf       	out	0x3e, r29	; 62
    28aa:	0f be       	out	0x3f, r0	; 63
    28ac:	cd bf       	out	0x3d, r28	; 61
    28ae:	ef ce       	rjmp	.-546    	; 0x268e <main+0x710>
/home/huser/Dev/TAD_Workspace/Projects/firmwares/OnlyCell/OnlyCell.ino:184
        setPeltierInHeatingMode();
        setPeltierEnable(true);
        m_dutyCyclePeltier = 50;  // Invert the negative output
        updatePeltierPWMTiming();
      }else{
        setPeltierInCoolingMode();
    28b0:	0e 94 a6 08 	call	0x114c	; 0x114c <setPeltierInCoolingMode()>
/home/huser/Dev/TAD_Workspace/Projects/firmwares/OnlyCell/OnlyCell.ino:185
        setPeltierEnable(false);
    28b4:	0e 94 ff 07 	call	0xffe	; 0xffe <setPeltierEnable(bool) [clone .constprop.22]>
    28b8:	86 cf       	rjmp	.-244    	; 0x27c6 <main+0x848>
main():
/home/huser/.arduino15/packages/MiniCore/hardware/avr/3.0.2/cores/MCUdude_corefiles/Arduino.h:345
    28ba:	c1 2c       	mov	r12, r1
    28bc:	d1 2c       	mov	r13, r1
    28be:	76 01       	movw	r14, r12
    28c0:	9e cf       	rjmp	.-196    	; 0x27fe <main+0x880>
    28c2:	c1 2c       	mov	r12, r1
    28c4:	d1 2c       	mov	r13, r1
    28c6:	98 ec       	ldi	r25, 0xC8	; 200
    28c8:	e9 2e       	mov	r14, r25
    28ca:	92 e4       	ldi	r25, 0x42	; 66
    28cc:	f9 2e       	mov	r15, r25
    28ce:	97 cf       	rjmp	.-210    	; 0x27fe <main+0x880>
setPeltierEnable():
/home/huser/Dev/TAD_Workspace/Projects/firmwares/OnlyCell/OnlyCell.ino:76
}

void setPeltierEnable(bool en)
{
  if(en){
    digitalWrite(PELTIER_EN_PIN, HIGH);
    28d0:	61 e0       	ldi	r22, 0x01	; 1
    28d2:	89 e1       	ldi	r24, 0x19	; 25
    28d4:	0e 94 84 01 	call	0x308	; 0x308 <digitalWrite>
    28d8:	c0 90 23 05 	lds	r12, 0x0523	; 0x800523 <m_outputHeater>
    28dc:	d0 90 24 05 	lds	r13, 0x0524	; 0x800524 <m_outputHeater+0x1>
    28e0:	e0 90 25 05 	lds	r14, 0x0525	; 0x800525 <m_outputHeater+0x2>
    28e4:	f0 90 26 05 	lds	r15, 0x0526	; 0x800526 <m_outputHeater+0x3>
_Z3absIdEDTqugtfp_Li0Efp_ngfp_ERKT_():
/home/huser/.arduino15/packages/MiniCore/hardware/avr/3.0.2/cores/MCUdude_corefiles/Arduino.h:310
#endif

#ifdef __cplusplus
	template<class T>
	auto abs(const T& x) -> decltype(x > 0 ? x : -x) {
		return x > 0 ? x : -x;
    28e8:	20 e0       	ldi	r18, 0x00	; 0
    28ea:	30 e0       	ldi	r19, 0x00	; 0
    28ec:	a9 01       	movw	r20, r18
    28ee:	c7 01       	movw	r24, r14
    28f0:	b6 01       	movw	r22, r12
    28f2:	0e 94 80 21 	call	0x4300	; 0x4300 <__gesf2>
    28f6:	18 16       	cp	r1, r24
    28f8:	24 f0       	brlt	.+8      	; 0x2902 <main+0x984>
    28fa:	f7 fa       	bst	r15, 7
    28fc:	f0 94       	com	r15
    28fe:	f7 f8       	bld	r15, 7
    2900:	f0 94       	com	r15
_Z9constrainIdiiEDTqultfp_fp0_fp0_qugtfp_fp1_fp1_fp_ERKT_RKT0_RKT1_():
/home/huser/.arduino15/packages/MiniCore/hardware/avr/3.0.2/cores/MCUdude_corefiles/Arduino.h:345
    return rad * RAD_TO_DEG;
  }

  template<class T, class L, class H>
	auto constrain(const T& x, const L& l, const H& h) -> decltype((x < l) ? l : (x > h) ? h : x) {
		return (x < l) ? l : (x > h) ? h : x;
    2902:	20 e0       	ldi	r18, 0x00	; 0
    2904:	30 e0       	ldi	r19, 0x00	; 0
    2906:	a9 01       	movw	r20, r18
    2908:	c7 01       	movw	r24, r14
    290a:	b6 01       	movw	r22, r12
    290c:	0e 94 f3 1e 	call	0x3de6	; 0x3de6 <__cmpsf2>
    2910:	87 fd       	sbrc	r24, 7
    2912:	1b c0       	rjmp	.+54     	; 0x294a <main+0x9cc>
    2914:	20 e0       	ldi	r18, 0x00	; 0
    2916:	30 e0       	ldi	r19, 0x00	; 0
    2918:	48 ec       	ldi	r20, 0xC8	; 200
    291a:	52 e4       	ldi	r21, 0x42	; 66
    291c:	c7 01       	movw	r24, r14
    291e:	b6 01       	movw	r22, r12
    2920:	0e 94 80 21 	call	0x4300	; 0x4300 <__gesf2>
    2924:	18 16       	cp	r1, r24
    2926:	ac f0       	brlt	.+42     	; 0x2952 <main+0x9d4>
loop():
/home/huser/Dev/TAD_Workspace/Projects/firmwares/OnlyCell/OnlyCell.ino:195
      m_dutyCyclePeltier = 0;  // No cooling when heating
      updateHeaterPWMTiming();
    } else {
      // Cooling mode: negative PID output
      setPeltierEnable(true);
      m_dutyCyclePeltier = 100 - constrain(abs(m_outputHeater), 0, 100);  // Invert the negative output
    2928:	a7 01       	movw	r20, r14
    292a:	96 01       	movw	r18, r12
    292c:	60 e0       	ldi	r22, 0x00	; 0
    292e:	70 e0       	ldi	r23, 0x00	; 0
    2930:	88 ec       	ldi	r24, 0xC8	; 200
    2932:	92 e4       	ldi	r25, 0x42	; 66
    2934:	0e 94 6b 20 	call	0x40d6	; 0x40d6 <__subsf3>
    2938:	0e 94 51 21 	call	0x42a2	; 0x42a2 <__fixunssfsi>
    293c:	60 93 73 04 	sts	0x0473, r22	; 0x800473 <m_dutyCyclePeltier>
/home/huser/Dev/TAD_Workspace/Projects/firmwares/OnlyCell/OnlyCell.ino:196
      m_dutyCycleHeater = 0;  // No heating when cooling
    2940:	10 92 74 04 	sts	0x0474, r1	; 0x800474 <m_dutyCycleHeater>
/home/huser/Dev/TAD_Workspace/Projects/firmwares/OnlyCell/OnlyCell.ino:197
      updatePeltierPWMTiming();
    2944:	0e 94 c9 07 	call	0xf92	; 0xf92 <updatePeltierPWMTiming()>
    2948:	7f cf       	rjmp	.-258    	; 0x2848 <main+0x8ca>
main():
/home/huser/.arduino15/packages/MiniCore/hardware/avr/3.0.2/cores/MCUdude_corefiles/Arduino.h:345
    294a:	c1 2c       	mov	r12, r1
    294c:	d1 2c       	mov	r13, r1
    294e:	76 01       	movw	r14, r12
    2950:	eb cf       	rjmp	.-42     	; 0x2928 <main+0x9aa>
    2952:	c1 2c       	mov	r12, r1
    2954:	d1 2c       	mov	r13, r1
    2956:	88 ec       	ldi	r24, 0xC8	; 200
    2958:	e8 2e       	mov	r14, r24
    295a:	82 e4       	ldi	r24, 0x42	; 66
    295c:	f8 2e       	mov	r15, r24
    295e:	e4 cf       	rjmp	.-56     	; 0x2928 <main+0x9aa>
trim():
/home/huser/.arduino15/packages/MiniCore/hardware/avr/3.0.2/cores/MCUdude_corefiles/WString.cpp:722
  }
}

void String::trim(void)
{
  if (!buffer || len == 0) return;
    2960:	ad 84       	ldd	r10, Y+13	; 0x0d
    2962:	be 84       	ldd	r11, Y+14	; 0x0e
    2964:	a1 14       	cp	r10, r1
    2966:	b1 04       	cpc	r11, r1
    2968:	39 f0       	breq	.+14     	; 0x2978 <main+0x9fa>
    296a:	09 89       	ldd	r16, Y+17	; 0x11
    296c:	1a 89       	ldd	r17, Y+18	; 0x12
    296e:	75 01       	movw	r14, r10
    2970:	01 15       	cp	r16, r1
    2972:	11 05       	cpc	r17, r1
    2974:	09 f0       	breq	.+2      	; 0x2978 <main+0x9fa>
    2976:	98 c1       	rjmp	.+816    	; 0x2ca8 <main+0xd2a>
_ZN6String4initEv():
/home/huser/.arduino15/packages/MiniCore/hardware/avr/3.0.2/cores/MCUdude_corefiles/WString.cpp:134
/*  Memory Management                        */
/*********************************************/

inline void String::init(void)
{
  buffer = NULL;
    2978:	18 86       	std	Y+8, r1	; 0x08
    297a:	1f 82       	std	Y+7, r1	; 0x07
/home/huser/.arduino15/packages/MiniCore/hardware/avr/3.0.2/cores/MCUdude_corefiles/WString.cpp:135
  capacity = 0;
    297c:	1a 86       	std	Y+10, r1	; 0x0a
    297e:	19 86       	std	Y+9, r1	; 0x09
/home/huser/.arduino15/packages/MiniCore/hardware/avr/3.0.2/cores/MCUdude_corefiles/WString.cpp:136
  len = 0;
    2980:	1c 86       	std	Y+12, r1	; 0x0c
    2982:	1b 86       	std	Y+11, r1	; 0x0b
__base_ctor ():
    2984:	6e eb       	ldi	r22, 0xBE	; 190
    2986:	71 e0       	ldi	r23, 0x01	; 1
    2988:	ce 01       	movw	r24, r28
    298a:	07 96       	adiw	r24, 0x07	; 7
    298c:	0e 94 fe 0a 	call	0x15fc	; 0x15fc <String::String(char const*) [clone .part.2]>
handleSerialInput():
/home/huser/Dev/TAD_Workspace/Projects/firmwares/OnlyCell/OnlyCell.ino:367
  if (Serial.available() > 0) {
    String input = Serial.readStringUntil('\n');  // Read serial input until newline
    input.trim();  // Remove any leading/trailing whitespace

    // Check if the input starts with '>' and ends with '<'
    if (input.startsWith(">") && input.endsWith("<")) {
    2990:	be 01       	movw	r22, r28
    2992:	69 5f       	subi	r22, 0xF9	; 249
    2994:	7f 4f       	sbci	r23, 0xFF	; 255
    2996:	ce 01       	movw	r24, r28
    2998:	0d 96       	adiw	r24, 0x0d	; 13
    299a:	0e 94 bb 0a 	call	0x1576	; 0x1576 <String::startsWith(String const&) const>
main():
    299e:	10 e0       	ldi	r17, 0x00	; 0
handleSerialInput():
    29a0:	88 23       	and	r24, r24
    29a2:	51 f1       	breq	.+84     	; 0x29f8 <main+0xa7a>
_ZN6String4initEv():
/home/huser/.arduino15/packages/MiniCore/hardware/avr/3.0.2/cores/MCUdude_corefiles/WString.cpp:134
/*  Memory Management                        */
/*********************************************/

inline void String::init(void)
{
  buffer = NULL;
    29a4:	1a 82       	std	Y+2, r1	; 0x02
    29a6:	19 82       	std	Y+1, r1	; 0x01
/home/huser/.arduino15/packages/MiniCore/hardware/avr/3.0.2/cores/MCUdude_corefiles/WString.cpp:135
  capacity = 0;
    29a8:	1c 82       	std	Y+4, r1	; 0x04
    29aa:	1b 82       	std	Y+3, r1	; 0x03
/home/huser/.arduino15/packages/MiniCore/hardware/avr/3.0.2/cores/MCUdude_corefiles/WString.cpp:136
  len = 0;
    29ac:	1e 82       	std	Y+6, r1	; 0x06
    29ae:	1d 82       	std	Y+5, r1	; 0x05
__base_ctor ():
    29b0:	60 ec       	ldi	r22, 0xC0	; 192
    29b2:	71 e0       	ldi	r23, 0x01	; 1
    29b4:	ce 01       	movw	r24, r28
    29b6:	01 96       	adiw	r24, 0x01	; 1
    29b8:	0e 94 fe 0a 	call	0x15fc	; 0x15fc <String::String(char const*) [clone .part.2]>
endsWith():
/home/huser/.arduino15/packages/MiniCore/hardware/avr/3.0.2/cores/MCUdude_corefiles/WString.cpp:504
  return strncmp( &buffer[offset], s2.buffer, s2.len ) == 0;
}

unsigned char String::endsWith( const String &s2 ) const
{
  if ( len < s2.len || !buffer || !s2.buffer) return 0;
    29bc:	29 89       	ldd	r18, Y+17	; 0x11
    29be:	3a 89       	ldd	r19, Y+18	; 0x12
    29c0:	4d 81       	ldd	r20, Y+5	; 0x05
    29c2:	5e 81       	ldd	r21, Y+6	; 0x06
    29c4:	24 17       	cp	r18, r20
    29c6:	35 07       	cpc	r19, r21
    29c8:	90 f0       	brcs	.+36     	; 0x29ee <main+0xa70>
    29ca:	8d 85       	ldd	r24, Y+13	; 0x0d
    29cc:	9e 85       	ldd	r25, Y+14	; 0x0e
    29ce:	00 97       	sbiw	r24, 0x00	; 0
    29d0:	71 f0       	breq	.+28     	; 0x29ee <main+0xa70>
    29d2:	69 81       	ldd	r22, Y+1	; 0x01
    29d4:	7a 81       	ldd	r23, Y+2	; 0x02
    29d6:	61 15       	cp	r22, r1
    29d8:	71 05       	cpc	r23, r1
    29da:	49 f0       	breq	.+18     	; 0x29ee <main+0xa70>
/home/huser/.arduino15/packages/MiniCore/hardware/avr/3.0.2/cores/MCUdude_corefiles/WString.cpp:505
  return strcmp(&buffer[len - s2.len], s2.buffer) == 0;
    29dc:	24 1b       	sub	r18, r20
    29de:	35 0b       	sbc	r19, r21
    29e0:	82 0f       	add	r24, r18
    29e2:	93 1f       	adc	r25, r19
    29e4:	0e 94 2b 24 	call	0x4856	; 0x4856 <strcmp>
handleSerialInput():
/home/huser/Dev/TAD_Workspace/Projects/firmwares/OnlyCell/OnlyCell.ino:367
    29e8:	11 e0       	ldi	r17, 0x01	; 1
    29ea:	89 2b       	or	r24, r25
    29ec:	09 f0       	breq	.+2      	; 0x29f0 <main+0xa72>
main():
    29ee:	10 e0       	ldi	r17, 0x00	; 0
handleSerialInput():
    29f0:	ce 01       	movw	r24, r28
    29f2:	01 96       	adiw	r24, 0x01	; 1
    29f4:	0e 94 f7 07 	call	0xfee	; 0xfee <String::~String()>
    29f8:	ce 01       	movw	r24, r28
    29fa:	07 96       	adiw	r24, 0x07	; 7
    29fc:	0e 94 f7 07 	call	0xfee	; 0xfee <String::~String()>
    2a00:	11 23       	and	r17, r17
    2a02:	09 f4       	brne	.+2      	; 0x2a06 <main+0xa88>
    2a04:	d4 c1       	rjmp	.+936    	; 0x2dae <main+0xe30>
/home/huser/Dev/TAD_Workspace/Projects/firmwares/OnlyCell/OnlyCell.ino:369
      // Remove '>' and '<'
      input = input.substring(1, input.length() - 1);
    2a06:	29 89       	ldd	r18, Y+17	; 0x11
    2a08:	3a 89       	ldd	r19, Y+18	; 0x12
    2a0a:	21 50       	subi	r18, 0x01	; 1
    2a0c:	31 09       	sbc	r19, r1
    2a0e:	41 e0       	ldi	r20, 0x01	; 1
    2a10:	50 e0       	ldi	r21, 0x00	; 0
    2a12:	be 01       	movw	r22, r28
    2a14:	63 5f       	subi	r22, 0xF3	; 243
    2a16:	7f 4f       	sbci	r23, 0xFF	; 255
    2a18:	ce 01       	movw	r24, r28
    2a1a:	01 96       	adiw	r24, 0x01	; 1
    2a1c:	0e 94 29 0b 	call	0x1652	; 0x1652 <String::substring(unsigned int, unsigned int) const>
move():
/home/huser/.arduino15/packages/MiniCore/hardware/avr/3.0.2/cores/MCUdude_corefiles/WString.cpp:196
}

#if __cplusplus >= 201103L || defined(__GXX_EXPERIMENTAL_CXX0X__)
void String::move(String &rhs)
{
  if (buffer) {
    2a20:	8d 85       	ldd	r24, Y+13	; 0x0d
    2a22:	9e 85       	ldd	r25, Y+14	; 0x0e
    2a24:	00 97       	sbiw	r24, 0x00	; 0
    2a26:	09 f4       	brne	.+2      	; 0x2a2a <main+0xaac>
    2a28:	77 c1       	rjmp	.+750    	; 0x2d18 <main+0xd9a>
    2a2a:	69 81       	ldd	r22, Y+1	; 0x01
    2a2c:	7a 81       	ldd	r23, Y+2	; 0x02
_ZNK6StringcvMS_KFvvEEv.isra.0():
/home/huser/.arduino15/packages/MiniCore/hardware/avr/3.0.2/cores/MCUdude_corefiles/WString.h:138
  friend StringSumHelper & operator + (const StringSumHelper &lhs, float num);
  friend StringSumHelper & operator + (const StringSumHelper &lhs, double num);
  friend StringSumHelper & operator + (const StringSumHelper &lhs, const __FlashStringHelper *rhs);

  // comparison (only works w/ Strings and "strings")
  operator StringIfHelperType() const { return buffer ? &String::StringIfHelper : 0; }
    2a2e:	61 15       	cp	r22, r1
    2a30:	71 05       	cpc	r23, r1
    2a32:	09 f4       	brne	.+2      	; 0x2a36 <main+0xab8>
    2a34:	6f c1       	rjmp	.+734    	; 0x2d14 <main+0xd96>
move():
/home/huser/.arduino15/packages/MiniCore/hardware/avr/3.0.2/cores/MCUdude_corefiles/WString.cpp:197
    if (rhs && capacity >= rhs.len) {
    2a36:	4f 85       	ldd	r20, Y+15	; 0x0f
    2a38:	58 89       	ldd	r21, Y+16	; 0x10
    2a3a:	2d 81       	ldd	r18, Y+5	; 0x05
    2a3c:	3e 81       	ldd	r19, Y+6	; 0x06
    2a3e:	42 17       	cp	r20, r18
    2a40:	53 07       	cpc	r21, r19
    2a42:	08 f4       	brcc	.+2      	; 0x2a46 <main+0xac8>
    2a44:	67 c1       	rjmp	.+718    	; 0x2d14 <main+0xd96>
/home/huser/.arduino15/packages/MiniCore/hardware/avr/3.0.2/cores/MCUdude_corefiles/WString.cpp:198
      strcpy(buffer, rhs.buffer);
    2a46:	0e 94 34 24 	call	0x4868	; 0x4868 <strcpy>
/home/huser/.arduino15/packages/MiniCore/hardware/avr/3.0.2/cores/MCUdude_corefiles/WString.cpp:199
      len = rhs.len;
    2a4a:	8d 81       	ldd	r24, Y+5	; 0x05
    2a4c:	9e 81       	ldd	r25, Y+6	; 0x06
    2a4e:	9a 8b       	std	Y+18, r25	; 0x12
    2a50:	89 8b       	std	Y+17, r24	; 0x11
/home/huser/.arduino15/packages/MiniCore/hardware/avr/3.0.2/cores/MCUdude_corefiles/WString.cpp:211
  buffer = rhs.buffer;
  capacity = rhs.capacity;
  len = rhs.len;
  rhs.buffer = NULL;
  rhs.capacity = 0;
  rhs.len = 0;
    2a52:	1e 82       	std	Y+6, r1	; 0x06
    2a54:	1d 82       	std	Y+5, r1	; 0x05
handleSerialInput():
/home/huser/Dev/TAD_Workspace/Projects/firmwares/OnlyCell/OnlyCell.ino:369
    2a56:	ce 01       	movw	r24, r28
    2a58:	01 96       	adiw	r24, 0x01	; 1
    2a5a:	0e 94 f7 07 	call	0xfee	; 0xfee <String::~String()>
indexOf():
/home/huser/.arduino15/packages/MiniCore/hardware/avr/3.0.2/cores/MCUdude_corefiles/WString.cpp:557
/*  Search                                   */
/*********************************************/

int String::indexOf(char c) const
{
  return indexOf(c, 0);
    2a5e:	70 e0       	ldi	r23, 0x00	; 0
    2a60:	60 e0       	ldi	r22, 0x00	; 0
    2a62:	ce 01       	movw	r24, r28
    2a64:	0d 96       	adiw	r24, 0x0d	; 13
    2a66:	0e 94 a8 09 	call	0x1350	; 0x1350 <String::indexOf(char, unsigned int) const [clone .constprop.41]>
    2a6a:	6c 01       	movw	r12, r24
handleSerialInput():
/home/huser/Dev/TAD_Workspace/Projects/firmwares/OnlyCell/OnlyCell.ino:373

      // Check if the input is to set target temperature and RPM
      int idx1 = input.indexOf('#');
      int idx2 = input.indexOf('#', idx1 + 1);
    2a6c:	4c 01       	movw	r8, r24
    2a6e:	ff ef       	ldi	r31, 0xFF	; 255
    2a70:	8f 1a       	sub	r8, r31
    2a72:	9f 0a       	sbc	r9, r31
    2a74:	b4 01       	movw	r22, r8
    2a76:	ce 01       	movw	r24, r28
    2a78:	0d 96       	adiw	r24, 0x0d	; 13
    2a7a:	0e 94 a8 09 	call	0x1350	; 0x1350 <String::indexOf(char, unsigned int) const [clone .constprop.41]>
    2a7e:	5c 01       	movw	r10, r24
/home/huser/Dev/TAD_Workspace/Projects/firmwares/OnlyCell/OnlyCell.ino:374
      int idx3 = input.indexOf('#', idx2 + 1);
    2a80:	8c 01       	movw	r16, r24
    2a82:	0f 5f       	subi	r16, 0xFF	; 255
    2a84:	1f 4f       	sbci	r17, 0xFF	; 255
    2a86:	b8 01       	movw	r22, r16
    2a88:	ce 01       	movw	r24, r28
    2a8a:	0d 96       	adiw	r24, 0x0d	; 13
    2a8c:	0e 94 a8 09 	call	0x1350	; 0x1350 <String::indexOf(char, unsigned int) const [clone .constprop.41]>
    2a90:	7c 01       	movw	r14, r24
/home/huser/Dev/TAD_Workspace/Projects/firmwares/OnlyCell/OnlyCell.ino:376

      if (idx1 != -1 && idx2 != -1 && idx3 != -1) {  // Format: "cellID#positionIdx#targetTemp#targetRPM"
    2a92:	2f ef       	ldi	r18, 0xFF	; 255
    2a94:	c2 16       	cp	r12, r18
    2a96:	d2 06       	cpc	r13, r18
    2a98:	09 f4       	brne	.+2      	; 0x2a9c <main+0xb1e>
    2a9a:	84 c1       	rjmp	.+776    	; 0x2da4 <main+0xe26>
    2a9c:	3f ef       	ldi	r19, 0xFF	; 255
    2a9e:	a3 16       	cp	r10, r19
    2aa0:	b3 06       	cpc	r11, r19
    2aa2:	09 f4       	brne	.+2      	; 0x2aa6 <main+0xb28>
    2aa4:	7f c1       	rjmp	.+766    	; 0x2da4 <main+0xe26>
    2aa6:	01 96       	adiw	r24, 0x01	; 1
    2aa8:	09 f4       	brne	.+2      	; 0x2aac <main+0xb2e>
    2aaa:	7c c1       	rjmp	.+760    	; 0x2da4 <main+0xe26>
/home/huser/Dev/TAD_Workspace/Projects/firmwares/OnlyCell/OnlyCell.ino:377
        int positionIdx = input.substring(0, idx1).toInt();
    2aac:	96 01       	movw	r18, r12
    2aae:	50 e0       	ldi	r21, 0x00	; 0
    2ab0:	40 e0       	ldi	r20, 0x00	; 0
    2ab2:	be 01       	movw	r22, r28
    2ab4:	63 5f       	subi	r22, 0xF3	; 243
    2ab6:	7f 4f       	sbci	r23, 0xFF	; 255
    2ab8:	ce 01       	movw	r24, r28
    2aba:	01 96       	adiw	r24, 0x01	; 1
    2abc:	0e 94 29 0b 	call	0x1652	; 0x1652 <String::substring(unsigned int, unsigned int) const>
toInt():
/home/huser/.arduino15/packages/MiniCore/hardware/avr/3.0.2/cores/MCUdude_corefiles/WString.cpp:738
/*  Parsing / Conversion                     */
/*********************************************/

long String::toInt(void) const
{
  if (buffer) return atol(buffer);
    2ac0:	89 81       	ldd	r24, Y+1	; 0x01
    2ac2:	9a 81       	ldd	r25, Y+2	; 0x02
    2ac4:	00 97       	sbiw	r24, 0x00	; 0
    2ac6:	09 f4       	brne	.+2      	; 0x2aca <main+0xb4c>
    2ac8:	38 c1       	rjmp	.+624    	; 0x2d3a <main+0xdbc>
    2aca:	0e 94 91 18 	call	0x3122	; 0x3122 <atol>
handleSerialInput():
/home/huser/Dev/TAD_Workspace/Projects/firmwares/OnlyCell/OnlyCell.ino:377
    2ace:	6b 01       	movw	r12, r22
    2ad0:	ce 01       	movw	r24, r28
    2ad2:	01 96       	adiw	r24, 0x01	; 1
    2ad4:	0e 94 f7 07 	call	0xfee	; 0xfee <String::~String()>
/home/huser/Dev/TAD_Workspace/Projects/firmwares/OnlyCell/OnlyCell.ino:378
        double targetTemp = input.substring(idx1 + 1, idx2).toDouble();
    2ad8:	95 01       	movw	r18, r10
    2ada:	a4 01       	movw	r20, r8
    2adc:	be 01       	movw	r22, r28
    2ade:	63 5f       	subi	r22, 0xF3	; 243
    2ae0:	7f 4f       	sbci	r23, 0xFF	; 255
    2ae2:	ce 01       	movw	r24, r28
    2ae4:	01 96       	adiw	r24, 0x01	; 1
    2ae6:	0e 94 29 0b 	call	0x1652	; 0x1652 <String::substring(unsigned int, unsigned int) const>
    2aea:	ce 01       	movw	r24, r28
    2aec:	01 96       	adiw	r24, 0x01	; 1
    2aee:	0e 94 b0 0a 	call	0x1560	; 0x1560 <String::toDouble() const>
    2af2:	2b 01       	movw	r4, r22
    2af4:	3c 01       	movw	r6, r24
    2af6:	ce 01       	movw	r24, r28
    2af8:	01 96       	adiw	r24, 0x01	; 1
    2afa:	0e 94 f7 07 	call	0xfee	; 0xfee <String::~String()>
/home/huser/Dev/TAD_Workspace/Projects/firmwares/OnlyCell/OnlyCell.ino:379
        int targetRPM = input.substring(idx2 + 1, idx3).toInt();
    2afe:	97 01       	movw	r18, r14
    2b00:	a8 01       	movw	r20, r16
    2b02:	be 01       	movw	r22, r28
    2b04:	63 5f       	subi	r22, 0xF3	; 243
    2b06:	7f 4f       	sbci	r23, 0xFF	; 255
    2b08:	ce 01       	movw	r24, r28
    2b0a:	01 96       	adiw	r24, 0x01	; 1
    2b0c:	0e 94 29 0b 	call	0x1652	; 0x1652 <String::substring(unsigned int, unsigned int) const>
toInt():
/home/huser/.arduino15/packages/MiniCore/hardware/avr/3.0.2/cores/MCUdude_corefiles/WString.cpp:738
    2b10:	89 81       	ldd	r24, Y+1	; 0x01
    2b12:	9a 81       	ldd	r25, Y+2	; 0x02
    2b14:	00 97       	sbiw	r24, 0x00	; 0
    2b16:	09 f4       	brne	.+2      	; 0x2b1a <main+0xb9c>
    2b18:	14 c1       	rjmp	.+552    	; 0x2d42 <main+0xdc4>
    2b1a:	0e 94 91 18 	call	0x3122	; 0x3122 <atol>
handleSerialInput():
/home/huser/Dev/TAD_Workspace/Projects/firmwares/OnlyCell/OnlyCell.ino:379
    2b1e:	8b 01       	movw	r16, r22
    2b20:	ce 01       	movw	r24, r28
    2b22:	01 96       	adiw	r24, 0x01	; 1
    2b24:	0e 94 f7 07 	call	0xfee	; 0xfee <String::~String()>
substring():
/home/huser/.arduino15/packages/MiniCore/hardware/avr/3.0.2/cores/MCUdude_corefiles/WString.h:178
  int indexOf( const String &str, unsigned int fromIndex ) const;
  int lastIndexOf( char ch ) const;
  int lastIndexOf( char ch, unsigned int fromIndex ) const;
  int lastIndexOf( const String &str ) const;
  int lastIndexOf( const String &str, unsigned int fromIndex ) const;
  String substring( unsigned int beginIndex ) const { return substring(beginIndex, len); };
    2b28:	29 89       	ldd	r18, Y+17	; 0x11
    2b2a:	3a 89       	ldd	r19, Y+18	; 0x12
handleSerialInput():
/home/huser/Dev/TAD_Workspace/Projects/firmwares/OnlyCell/OnlyCell.ino:380
        int checksum = input.substring(idx3 + 1).toInt();
    2b2c:	a7 01       	movw	r20, r14
    2b2e:	4f 5f       	subi	r20, 0xFF	; 255
    2b30:	5f 4f       	sbci	r21, 0xFF	; 255
substring():
/home/huser/.arduino15/packages/MiniCore/hardware/avr/3.0.2/cores/MCUdude_corefiles/WString.h:178
    2b32:	be 01       	movw	r22, r28
    2b34:	63 5f       	subi	r22, 0xF3	; 243
    2b36:	7f 4f       	sbci	r23, 0xFF	; 255
    2b38:	ce 01       	movw	r24, r28
    2b3a:	01 96       	adiw	r24, 0x01	; 1
    2b3c:	0e 94 29 0b 	call	0x1652	; 0x1652 <String::substring(unsigned int, unsigned int) const>
toInt():
/home/huser/.arduino15/packages/MiniCore/hardware/avr/3.0.2/cores/MCUdude_corefiles/WString.cpp:738
    2b40:	89 81       	ldd	r24, Y+1	; 0x01
    2b42:	9a 81       	ldd	r25, Y+2	; 0x02
main():
/home/huser/.arduino15/packages/MiniCore/hardware/avr/3.0.2/cores/MCUdude_corefiles/WString.cpp:739
  return 0;
    2b44:	81 2c       	mov	r8, r1
    2b46:	91 2c       	mov	r9, r1
    2b48:	54 01       	movw	r10, r8
toInt():
/home/huser/.arduino15/packages/MiniCore/hardware/avr/3.0.2/cores/MCUdude_corefiles/WString.cpp:738
/*  Parsing / Conversion                     */
/*********************************************/

long String::toInt(void) const
{
  if (buffer) return atol(buffer);
    2b4a:	00 97       	sbiw	r24, 0x00	; 0
    2b4c:	19 f0       	breq	.+6      	; 0x2b54 <main+0xbd6>
    2b4e:	0e 94 91 18 	call	0x3122	; 0x3122 <atol>
    2b52:	4b 01       	movw	r8, r22
handleSerialInput():
/home/huser/Dev/TAD_Workspace/Projects/firmwares/OnlyCell/OnlyCell.ino:380
    2b54:	ce 01       	movw	r24, r28
    2b56:	01 96       	adiw	r24, 0x01	; 1
    2b58:	0e 94 f7 07 	call	0xfee	; 0xfee <String::~String()>
/home/huser/Dev/TAD_Workspace/Projects/firmwares/OnlyCell/OnlyCell.ino:382

        if(checksum != positionIdx+(int)targetTemp+targetRPM){
    2b5c:	c3 01       	movw	r24, r6
    2b5e:	b2 01       	movw	r22, r4
    2b60:	0e 94 4a 21 	call	0x4294	; 0x4294 <__fixsfsi>
    2b64:	6c 0d       	add	r22, r12
    2b66:	7d 1d       	adc	r23, r13
    2b68:	7b 01       	movw	r14, r22
    2b6a:	e0 0e       	add	r14, r16
    2b6c:	f1 1e       	adc	r15, r17
    2b6e:	8e 14       	cp	r8, r14
    2b70:	9f 04       	cpc	r9, r15
    2b72:	09 f4       	brne	.+2      	; 0x2b76 <main+0xbf8>
    2b74:	ea c0       	rjmp	.+468    	; 0x2d4a <main+0xdcc>
write():
    2b76:	82 ec       	ldi	r24, 0xC2	; 194
    2b78:	91 e0       	ldi	r25, 0x01	; 1
    2b7a:	0e 94 1c 08 	call	0x1038	; 0x1038 <Print::write(char const*) [clone .part.2] [clone .constprop.50]>
handleSerialInput():
/home/huser/Dev/TAD_Workspace/Projects/firmwares/OnlyCell/OnlyCell.ino:384
          Serial.print("Currupt data. checksum: ");
          Serial.print(checksum);
    2b7e:	c4 01       	movw	r24, r8
    2b80:	0e 94 8e 08 	call	0x111c	; 0x111c <Print::print(int, int) [clone .constprop.34]>
write():
    2b84:	8b ed       	ldi	r24, 0xDB	; 219
    2b86:	91 e0       	ldi	r25, 0x01	; 1
    2b88:	0e 94 1c 08 	call	0x1038	; 0x1038 <Print::write(char const*) [clone .part.2] [clone .constprop.50]>
handleSerialInput():
/home/huser/Dev/TAD_Workspace/Projects/firmwares/OnlyCell/OnlyCell.ino:386
          Serial.print("  positionIdx+(int)targetTemp+targetRPM: ");
          Serial.println(positionIdx+(int)targetTemp+targetRPM);
    2b8c:	c7 01       	movw	r24, r14
/home/huser/Dev/TAD_Workspace/Projects/firmwares/OnlyCell/OnlyCell.ino:400
        Serial.print("Updated Parameters: positionIdx=");
        Serial.print(positionIdx);
        Serial.print(", targetTemp=");
        Serial.print(targetTemp);
        Serial.print(", targetRPM=");
        Serial.println(targetRPM);
    2b8e:	0e 94 b4 08 	call	0x1168	; 0x1168 <Print::println(int, int) [clone .constprop.33]>
/home/huser/Dev/TAD_Workspace/Projects/firmwares/OnlyCell/OnlyCell.ino:363



void handleSerialInput() {
  if (Serial.available() > 0) {
    String input = Serial.readStringUntil('\n');  // Read serial input until newline
    2b92:	ce 01       	movw	r24, r28
    2b94:	0d 96       	adiw	r24, 0x0d	; 13
    2b96:	0e 94 f7 07 	call	0xfee	; 0xfee <String::~String()>
loop():
/home/huser/Dev/TAD_Workspace/Projects/firmwares/OnlyCell/OnlyCell.ino:240
  Serial.println("GOGOGOGO");
  delay(20);
  handleSerialInput();

  // Prepare serial message for custom format
  dtostrf(m_currentTempInner, 3, 1, innerStr);  // Convert double to string
    2b9a:	60 91 05 04 	lds	r22, 0x0405	; 0x800405 <m_currentTempInner>
    2b9e:	70 91 06 04 	lds	r23, 0x0406	; 0x800406 <m_currentTempInner+0x1>
    2ba2:	80 91 07 04 	lds	r24, 0x0407	; 0x800407 <m_currentTempInner+0x2>
    2ba6:	90 91 08 04 	lds	r25, 0x0408	; 0x800408 <m_currentTempInner+0x3>
    2baa:	0f ef       	ldi	r16, 0xFF	; 255
    2bac:	13 e0       	ldi	r17, 0x03	; 3
    2bae:	21 e0       	ldi	r18, 0x01	; 1
    2bb0:	43 e0       	ldi	r20, 0x03	; 3
    2bb2:	0e 94 6f 18 	call	0x30de	; 0x30de <dtostrf>
/home/huser/Dev/TAD_Workspace/Projects/firmwares/OnlyCell/OnlyCell.ino:241
  dtostrf(m_currentTempExternal, 3, 1, extStr);  // Convert double to string
    2bb6:	60 91 27 05 	lds	r22, 0x0527	; 0x800527 <m_currentTempExternal>
    2bba:	70 91 28 05 	lds	r23, 0x0528	; 0x800528 <m_currentTempExternal+0x1>
    2bbe:	80 91 29 05 	lds	r24, 0x0529	; 0x800529 <m_currentTempExternal+0x2>
    2bc2:	90 91 2a 05 	lds	r25, 0x052A	; 0x80052a <m_currentTempExternal+0x3>
    2bc6:	09 ef       	ldi	r16, 0xF9	; 249
    2bc8:	13 e0       	ldi	r17, 0x03	; 3
    2bca:	21 e0       	ldi	r18, 0x01	; 1
    2bcc:	43 e0       	ldi	r20, 0x03	; 3
    2bce:	0e 94 6f 18 	call	0x30de	; 0x30de <dtostrf>
/home/huser/Dev/TAD_Workspace/Projects/firmwares/OnlyCell/OnlyCell.ino:242
  dtostrf(m_motorDutyCycle, 3, 1, motorPowStr);  // Convert double to string
    2bd2:	60 91 f5 03 	lds	r22, 0x03F5	; 0x8003f5 <m_motorDutyCycle>
    2bd6:	70 91 f6 03 	lds	r23, 0x03F6	; 0x8003f6 <m_motorDutyCycle+0x1>
    2bda:	80 91 f7 03 	lds	r24, 0x03F7	; 0x8003f7 <m_motorDutyCycle+0x2>
    2bde:	90 91 f8 03 	lds	r25, 0x03F8	; 0x8003f8 <m_motorDutyCycle+0x3>
    2be2:	0f ee       	ldi	r16, 0xEF	; 239
    2be4:	13 e0       	ldi	r17, 0x03	; 3
    2be6:	21 e0       	ldi	r18, 0x01	; 1
    2be8:	43 e0       	ldi	r20, 0x03	; 3
    2bea:	0e 94 6f 18 	call	0x30de	; 0x30de <dtostrf>
/home/huser/Dev/TAD_Workspace/Projects/firmwares/OnlyCell/OnlyCell.ino:243
  dtostrf(m_targetTemperature, 3, 1, targetTempStr);  // Convert double to string
    2bee:	60 91 1f 05 	lds	r22, 0x051F	; 0x80051f <m_targetTemperature>
    2bf2:	70 91 20 05 	lds	r23, 0x0520	; 0x800520 <m_targetTemperature+0x1>
    2bf6:	80 91 21 05 	lds	r24, 0x0521	; 0x800521 <m_targetTemperature+0x2>
    2bfa:	90 91 22 05 	lds	r25, 0x0522	; 0x800522 <m_targetTemperature+0x3>
    2bfe:	09 ee       	ldi	r16, 0xE9	; 233
    2c00:	13 e0       	ldi	r17, 0x03	; 3
    2c02:	21 e0       	ldi	r18, 0x01	; 1
    2c04:	43 e0       	ldi	r20, 0x03	; 3
    2c06:	0e 94 6f 18 	call	0x30de	; 0x30de <dtostrf>
/home/huser/Dev/TAD_Workspace/Projects/firmwares/OnlyCell/OnlyCell.ino:244
  dtostrf(m_targetRpm, 3, 1, targetRpmStr);  // Convert double to string
    2c0a:	60 91 e5 03 	lds	r22, 0x03E5	; 0x8003e5 <m_targetRpm>
    2c0e:	70 91 e6 03 	lds	r23, 0x03E6	; 0x8003e6 <m_targetRpm+0x1>
    2c12:	80 91 e7 03 	lds	r24, 0x03E7	; 0x8003e7 <m_targetRpm+0x2>
    2c16:	90 91 e8 03 	lds	r25, 0x03E8	; 0x8003e8 <m_targetRpm+0x3>
    2c1a:	0f ed       	ldi	r16, 0xDF	; 223
    2c1c:	13 e0       	ldi	r17, 0x03	; 3
    2c1e:	21 e0       	ldi	r18, 0x01	; 1
    2c20:	43 e0       	ldi	r20, 0x03	; 3
    2c22:	0e 94 6f 18 	call	0x30de	; 0x30de <dtostrf>
/home/huser/Dev/TAD_Workspace/Projects/firmwares/OnlyCell/OnlyCell.ino:245
  dtostrf(m_currentRpm, 3, 1, currentRpmStr);  // Convert double to string
    2c26:	09 ed       	ldi	r16, 0xD9	; 217
    2c28:	13 e0       	ldi	r17, 0x03	; 3
    2c2a:	21 e0       	ldi	r18, 0x01	; 1
    2c2c:	43 e0       	ldi	r20, 0x03	; 3
    2c2e:	60 e0       	ldi	r22, 0x00	; 0
    2c30:	70 e0       	ldi	r23, 0x00	; 0
    2c32:	cb 01       	movw	r24, r22
    2c34:	0e 94 6f 18 	call	0x30de	; 0x30de <dtostrf>
/home/huser/Dev/TAD_Workspace/Projects/firmwares/OnlyCell/OnlyCell.ino:247

  snprintf(message, MESSAGE_LENGTH, "%s#%d#%s#%s#%s#%s#%s#%s", 
    2c38:	8f ed       	ldi	r24, 0xDF	; 223
    2c3a:	93 e0       	ldi	r25, 0x03	; 3
    2c3c:	9f 93       	push	r25
    2c3e:	8f 93       	push	r24
    2c40:	89 ee       	ldi	r24, 0xE9	; 233
    2c42:	93 e0       	ldi	r25, 0x03	; 3
    2c44:	9f 93       	push	r25
    2c46:	8f 93       	push	r24
    2c48:	8f ee       	ldi	r24, 0xEF	; 239
    2c4a:	93 e0       	ldi	r25, 0x03	; 3
    2c4c:	9f 93       	push	r25
    2c4e:	8f 93       	push	r24
    2c50:	c8 01       	movw	r24, r16
    2c52:	9f 93       	push	r25
    2c54:	0f 93       	push	r16
    2c56:	89 ef       	ldi	r24, 0xF9	; 249
    2c58:	93 e0       	ldi	r25, 0x03	; 3
    2c5a:	9f 93       	push	r25
    2c5c:	8f 93       	push	r24
    2c5e:	8f ef       	ldi	r24, 0xFF	; 255
    2c60:	93 e0       	ldi	r25, 0x03	; 3
    2c62:	9f 93       	push	r25
    2c64:	8f 93       	push	r24
    2c66:	1f 92       	push	r1
    2c68:	82 e0       	ldi	r24, 0x02	; 2
    2c6a:	8f 93       	push	r24
    2c6c:	ae e4       	ldi	r26, 0x4E	; 78
    2c6e:	b3 e0       	ldi	r27, 0x03	; 3
    2c70:	bf 93       	push	r27
    2c72:	af 93       	push	r26
    2c74:	2b e5       	ldi	r18, 0x5B	; 91
    2c76:	33 e0       	ldi	r19, 0x03	; 3
    2c78:	3f 93       	push	r19
    2c7a:	2f 93       	push	r18
    2c7c:	1f 92       	push	r1
    2c7e:	54 e6       	ldi	r21, 0x64	; 100
    2c80:	5f 93       	push	r21
    2c82:	89 e0       	ldi	r24, 0x09	; 9
    2c84:	94 e0       	ldi	r25, 0x04	; 4
    2c86:	9f 93       	push	r25
    2c88:	8f 93       	push	r24
    2c8a:	0e 94 49 24 	call	0x4892	; 0x4892 <snprintf>
/home/huser/Dev/TAD_Workspace/Projects/firmwares/OnlyCell/OnlyCell.ino:250
           BUSBOARD_PREFIX, 2, innerStr, extStr, currentRpmStr, motorPowStr, targetTempStr, targetRpmStr);

  Serial.println(message);
    2c8e:	89 e0       	ldi	r24, 0x09	; 9
    2c90:	94 e0       	ldi	r25, 0x04	; 4
    2c92:	0e 94 98 08 	call	0x1130	; 0x1130 <Print::println(char const*) [clone .constprop.47]>
main():
/home/huser/.arduino15/packages/MiniCore/hardware/avr/3.0.2/cores/MCUdude_corefiles/main.cpp:47
  
  setup();
    
  for (;;) {
    loop();
    if (serialEventRun) serialEventRun();
    2c96:	0e 94 f1 03 	call	0x7e2	; 0x7e2 <serialEventRun()>
    2c9a:	0f b6       	in	r0, 0x3f	; 63
    2c9c:	f8 94       	cli
    2c9e:	de bf       	out	0x3e, r29	; 62
    2ca0:	0f be       	out	0x3f, r0	; 63
    2ca2:	cd bf       	out	0x3d, r28	; 61
    2ca4:	0f cb       	rjmp	.-2530   	; 0x22c4 <main+0x346>
trim():
/home/huser/.arduino15/packages/MiniCore/hardware/avr/3.0.2/cores/MCUdude_corefiles/WString.cpp:724

void String::trim(void)
{
  if (!buffer || len == 0) return;
  char *begin = buffer;
  while (isspace(*begin)) begin++;
    2ca6:	76 01       	movw	r14, r12
    2ca8:	67 01       	movw	r12, r14
    2caa:	3f ef       	ldi	r19, 0xFF	; 255
    2cac:	c3 1a       	sub	r12, r19
    2cae:	d3 0a       	sbc	r13, r19
    2cb0:	d7 01       	movw	r26, r14
    2cb2:	8c 91       	ld	r24, X
    2cb4:	08 2e       	mov	r0, r24
    2cb6:	00 0c       	add	r0, r0
    2cb8:	99 0b       	sbc	r25, r25
    2cba:	0e 94 2e 1e 	call	0x3c5c	; 0x3c5c <isspace>
    2cbe:	89 2b       	or	r24, r25
    2cc0:	91 f7       	brne	.-28     	; 0x2ca6 <main+0xd28>
/home/huser/.arduino15/packages/MiniCore/hardware/avr/3.0.2/cores/MCUdude_corefiles/WString.cpp:725
  char *end = buffer + len - 1;
    2cc2:	01 50       	subi	r16, 0x01	; 1
    2cc4:	11 09       	sbc	r17, r1
    2cc6:	0a 0d       	add	r16, r10
    2cc8:	1b 1d       	adc	r17, r11
/home/huser/.arduino15/packages/MiniCore/hardware/avr/3.0.2/cores/MCUdude_corefiles/WString.cpp:726
  while (isspace(*end) && end >= begin) end--;
    2cca:	f8 01       	movw	r30, r16
    2ccc:	80 81       	ld	r24, Z
    2cce:	08 2e       	mov	r0, r24
    2cd0:	00 0c       	add	r0, r0
    2cd2:	99 0b       	sbc	r25, r25
    2cd4:	0e 94 2e 1e 	call	0x3c5c	; 0x3c5c <isspace>
    2cd8:	89 2b       	or	r24, r25
    2cda:	31 f0       	breq	.+12     	; 0x2ce8 <main+0xd6a>
    2cdc:	0e 15       	cp	r16, r14
    2cde:	1f 05       	cpc	r17, r15
    2ce0:	18 f0       	brcs	.+6      	; 0x2ce8 <main+0xd6a>
    2ce2:	01 50       	subi	r16, 0x01	; 1
    2ce4:	11 09       	sbc	r17, r1
    2ce6:	f1 cf       	rjmp	.-30     	; 0x2cca <main+0xd4c>
/home/huser/.arduino15/packages/MiniCore/hardware/avr/3.0.2/cores/MCUdude_corefiles/WString.cpp:727
  len = end + 1 - begin;
    2ce8:	0f 5f       	subi	r16, 0xFF	; 255
    2cea:	1f 4f       	sbci	r17, 0xFF	; 255
    2cec:	a8 01       	movw	r20, r16
    2cee:	4e 19       	sub	r20, r14
    2cf0:	5f 09       	sbc	r21, r15
    2cf2:	5a 8b       	std	Y+18, r21	; 0x12
    2cf4:	49 8b       	std	Y+17, r20	; 0x11
/home/huser/.arduino15/packages/MiniCore/hardware/avr/3.0.2/cores/MCUdude_corefiles/WString.cpp:728
  if (begin > buffer) memcpy(buffer, begin, len);
    2cf6:	ae 14       	cp	r10, r14
    2cf8:	bf 04       	cpc	r11, r15
    2cfa:	20 f4       	brcc	.+8      	; 0x2d04 <main+0xd86>
    2cfc:	b7 01       	movw	r22, r14
    2cfe:	c5 01       	movw	r24, r10
    2d00:	0e 94 17 24 	call	0x482e	; 0x482e <memcpy>
/home/huser/.arduino15/packages/MiniCore/hardware/avr/3.0.2/cores/MCUdude_corefiles/WString.cpp:729
  buffer[len] = 0;
    2d04:	ed 85       	ldd	r30, Y+13	; 0x0d
    2d06:	fe 85       	ldd	r31, Y+14	; 0x0e
    2d08:	89 89       	ldd	r24, Y+17	; 0x11
    2d0a:	9a 89       	ldd	r25, Y+18	; 0x12
    2d0c:	e8 0f       	add	r30, r24
    2d0e:	f9 1f       	adc	r31, r25
    2d10:	10 82       	st	Z, r1
    2d12:	32 ce       	rjmp	.-924    	; 0x2978 <main+0x9fa>
move():
/home/huser/.arduino15/packages/MiniCore/hardware/avr/3.0.2/cores/MCUdude_corefiles/WString.cpp:203
      strcpy(buffer, rhs.buffer);
      len = rhs.len;
      rhs.len = 0;
      return;
    } else {
      free(buffer);
    2d14:	0e 94 d1 22 	call	0x45a2	; 0x45a2 <free>
/home/huser/.arduino15/packages/MiniCore/hardware/avr/3.0.2/cores/MCUdude_corefiles/WString.cpp:206
    }
  }
  buffer = rhs.buffer;
    2d18:	89 81       	ldd	r24, Y+1	; 0x01
    2d1a:	9a 81       	ldd	r25, Y+2	; 0x02
    2d1c:	9e 87       	std	Y+14, r25	; 0x0e
    2d1e:	8d 87       	std	Y+13, r24	; 0x0d
/home/huser/.arduino15/packages/MiniCore/hardware/avr/3.0.2/cores/MCUdude_corefiles/WString.cpp:207
  capacity = rhs.capacity;
    2d20:	8b 81       	ldd	r24, Y+3	; 0x03
    2d22:	9c 81       	ldd	r25, Y+4	; 0x04
    2d24:	98 8b       	std	Y+16, r25	; 0x10
    2d26:	8f 87       	std	Y+15, r24	; 0x0f
/home/huser/.arduino15/packages/MiniCore/hardware/avr/3.0.2/cores/MCUdude_corefiles/WString.cpp:208
  len = rhs.len;
    2d28:	8d 81       	ldd	r24, Y+5	; 0x05
    2d2a:	9e 81       	ldd	r25, Y+6	; 0x06
    2d2c:	9a 8b       	std	Y+18, r25	; 0x12
    2d2e:	89 8b       	std	Y+17, r24	; 0x11
/home/huser/.arduino15/packages/MiniCore/hardware/avr/3.0.2/cores/MCUdude_corefiles/WString.cpp:209
  rhs.buffer = NULL;
    2d30:	1a 82       	std	Y+2, r1	; 0x02
    2d32:	19 82       	std	Y+1, r1	; 0x01
/home/huser/.arduino15/packages/MiniCore/hardware/avr/3.0.2/cores/MCUdude_corefiles/WString.cpp:210
  rhs.capacity = 0;
    2d34:	1c 82       	std	Y+4, r1	; 0x04
    2d36:	1b 82       	std	Y+3, r1	; 0x03
    2d38:	8c ce       	rjmp	.-744    	; 0x2a52 <main+0xad4>
main():
/home/huser/.arduino15/packages/MiniCore/hardware/avr/3.0.2/cores/MCUdude_corefiles/WString.cpp:739
/*********************************************/

long String::toInt(void) const
{
  if (buffer) return atol(buffer);
  return 0;
    2d3a:	60 e0       	ldi	r22, 0x00	; 0
    2d3c:	70 e0       	ldi	r23, 0x00	; 0
    2d3e:	cb 01       	movw	r24, r22
    2d40:	c6 ce       	rjmp	.-628    	; 0x2ace <main+0xb50>
    2d42:	60 e0       	ldi	r22, 0x00	; 0
    2d44:	70 e0       	ldi	r23, 0x00	; 0
    2d46:	cb 01       	movw	r24, r22
    2d48:	ea ce       	rjmp	.-556    	; 0x2b1e <main+0xba0>
handleSerialInput():
/home/huser/Dev/TAD_Workspace/Projects/firmwares/OnlyCell/OnlyCell.ino:391
          Serial.println(positionIdx+(int)targetTemp+targetRPM);
          return;
        }

        // Update the corresponding variables
        m_targetTemperature = targetTemp;
    2d4a:	40 92 1f 05 	sts	0x051F, r4	; 0x80051f <m_targetTemperature>
    2d4e:	50 92 20 05 	sts	0x0520, r5	; 0x800520 <m_targetTemperature+0x1>
    2d52:	60 92 21 05 	sts	0x0521, r6	; 0x800521 <m_targetTemperature+0x2>
    2d56:	70 92 22 05 	sts	0x0522, r7	; 0x800522 <m_targetTemperature+0x3>
/home/huser/Dev/TAD_Workspace/Projects/firmwares/OnlyCell/OnlyCell.ino:392
        m_targetRpm = targetRPM;
    2d5a:	b8 01       	movw	r22, r16
    2d5c:	01 2e       	mov	r0, r17
    2d5e:	00 0c       	add	r0, r0
    2d60:	88 0b       	sbc	r24, r24
    2d62:	99 0b       	sbc	r25, r25
    2d64:	0e 94 fa 1e 	call	0x3df4	; 0x3df4 <__floatsisf>
    2d68:	60 93 e5 03 	sts	0x03E5, r22	; 0x8003e5 <m_targetRpm>
    2d6c:	70 93 e6 03 	sts	0x03E6, r23	; 0x8003e6 <m_targetRpm+0x1>
    2d70:	80 93 e7 03 	sts	0x03E7, r24	; 0x8003e7 <m_targetRpm+0x2>
    2d74:	90 93 e8 03 	sts	0x03E8, r25	; 0x8003e8 <m_targetRpm+0x3>
write():
    2d78:	85 e0       	ldi	r24, 0x05	; 5
    2d7a:	92 e0       	ldi	r25, 0x02	; 2
    2d7c:	0e 94 1c 08 	call	0x1038	; 0x1038 <Print::write(char const*) [clone .part.2] [clone .constprop.50]>
handleSerialInput():
/home/huser/Dev/TAD_Workspace/Projects/firmwares/OnlyCell/OnlyCell.ino:396

        // Print confirmation of new settings
        Serial.print("Updated Parameters: positionIdx=");
        Serial.print(positionIdx);
    2d80:	c6 01       	movw	r24, r12
    2d82:	0e 94 8e 08 	call	0x111c	; 0x111c <Print::print(int, int) [clone .constprop.34]>
write():
    2d86:	86 e2       	ldi	r24, 0x26	; 38
    2d88:	92 e0       	ldi	r25, 0x02	; 2
    2d8a:	0e 94 1c 08 	call	0x1038	; 0x1038 <Print::write(char const*) [clone .part.2] [clone .constprop.50]>
print():
/home/huser/.arduino15/packages/MiniCore/hardware/avr/3.0.2/cores/MCUdude_corefiles/Print.cpp:111
  else return printNumber(n, base);
}

size_t Print::print(double n, int digits)
{
  return printFloat(n, digits);
    2d8e:	42 e0       	ldi	r20, 0x02	; 2
    2d90:	c3 01       	movw	r24, r6
    2d92:	b2 01       	movw	r22, r4
    2d94:	0e 94 cc 08 	call	0x1198	; 0x1198 <Print::printFloat(double, unsigned char) [clone .constprop.28]>
write():
    2d98:	84 e3       	ldi	r24, 0x34	; 52
    2d9a:	92 e0       	ldi	r25, 0x02	; 2
    2d9c:	0e 94 1c 08 	call	0x1038	; 0x1038 <Print::write(char const*) [clone .part.2] [clone .constprop.50]>
handleSerialInput():
/home/huser/Dev/TAD_Workspace/Projects/firmwares/OnlyCell/OnlyCell.ino:400
        Serial.print(", targetTemp=");
        Serial.print(targetTemp);
        Serial.print(", targetRPM=");
        Serial.println(targetRPM);
    2da0:	c8 01       	movw	r24, r16
    2da2:	f5 ce       	rjmp	.-534    	; 0x2b8e <main+0xc10>
/home/huser/Dev/TAD_Workspace/Projects/firmwares/OnlyCell/OnlyCell.ino:403
      }
      else {
        Serial.println("Error: Invalid input format. Use '>cellID#positionIdx#targetTemp#targetRPM<'");
    2da4:	81 e4       	ldi	r24, 0x41	; 65
    2da6:	92 e0       	ldi	r25, 0x02	; 2
/home/huser/Dev/TAD_Workspace/Projects/firmwares/OnlyCell/OnlyCell.ino:433
      } else {
        Serial.println("Error: Invalid PID input format. Use 'pid#kp#ki#kd'");
      }
    }
    else {
      Serial.println("Error: Invalid input format. Use '>cellID#positionIdx#targetTemp#targetRPM<' or 'pid#kp#ki#kd'");
    2da8:	0e 94 98 08 	call	0x1130	; 0x1130 <Print::println(char const*) [clone .constprop.47]>
    2dac:	f2 ce       	rjmp	.-540    	; 0x2b92 <main+0xc14>
_ZN6String4initEv():
/home/huser/.arduino15/packages/MiniCore/hardware/avr/3.0.2/cores/MCUdude_corefiles/WString.cpp:134
/*  Memory Management                        */
/*********************************************/

inline void String::init(void)
{
  buffer = NULL;
    2dae:	1a 82       	std	Y+2, r1	; 0x02
    2db0:	19 82       	std	Y+1, r1	; 0x01
/home/huser/.arduino15/packages/MiniCore/hardware/avr/3.0.2/cores/MCUdude_corefiles/WString.cpp:135
  capacity = 0;
    2db2:	1c 82       	std	Y+4, r1	; 0x04
    2db4:	1b 82       	std	Y+3, r1	; 0x03
/home/huser/.arduino15/packages/MiniCore/hardware/avr/3.0.2/cores/MCUdude_corefiles/WString.cpp:136
  len = 0;
    2db6:	1e 82       	std	Y+6, r1	; 0x06
    2db8:	1d 82       	std	Y+5, r1	; 0x05
__base_ctor ():
    2dba:	6e e8       	ldi	r22, 0x8E	; 142
    2dbc:	72 e0       	ldi	r23, 0x02	; 2
    2dbe:	ce 01       	movw	r24, r28
    2dc0:	01 96       	adiw	r24, 0x01	; 1
    2dc2:	0e 94 fe 0a 	call	0x15fc	; 0x15fc <String::String(char const*) [clone .part.2]>
handleSerialInput():
/home/huser/Dev/TAD_Workspace/Projects/firmwares/OnlyCell/OnlyCell.ino:406
      }
      else {
        Serial.println("Error: Invalid input format. Use '>cellID#positionIdx#targetTemp#targetRPM<'");
      }
    }
    else if (input.startsWith("pid#")) {  // Check if input is for PID parameters
    2dc6:	be 01       	movw	r22, r28
    2dc8:	6f 5f       	subi	r22, 0xFF	; 255
    2dca:	7f 4f       	sbci	r23, 0xFF	; 255
    2dcc:	ce 01       	movw	r24, r28
    2dce:	0d 96       	adiw	r24, 0x0d	; 13
    2dd0:	0e 94 bb 0a 	call	0x1576	; 0x1576 <String::startsWith(String const&) const>
    2dd4:	18 2f       	mov	r17, r24
    2dd6:	ce 01       	movw	r24, r28
    2dd8:	01 96       	adiw	r24, 0x01	; 1
    2dda:	0e 94 f7 07 	call	0xfee	; 0xfee <String::~String()>
    2dde:	11 23       	and	r17, r17
    2de0:	09 f4       	brne	.+2      	; 0x2de4 <main+0xe66>
    2de2:	53 c1       	rjmp	.+678    	; 0x308a <main+0x110c>
/home/huser/Dev/TAD_Workspace/Projects/firmwares/OnlyCell/OnlyCell.ino:407
      int pidIdx1 = input.indexOf('#', 4);  // Start after "pid#"
    2de4:	64 e0       	ldi	r22, 0x04	; 4
    2de6:	70 e0       	ldi	r23, 0x00	; 0
    2de8:	ce 01       	movw	r24, r28
    2dea:	0d 96       	adiw	r24, 0x0d	; 13
    2dec:	0e 94 a8 09 	call	0x1350	; 0x1350 <String::indexOf(char, unsigned int) const [clone .constprop.41]>
    2df0:	6c 01       	movw	r12, r24
/home/huser/Dev/TAD_Workspace/Projects/firmwares/OnlyCell/OnlyCell.ino:408
      int pidIdx2 = input.indexOf('#', pidIdx1 + 1);
    2df2:	7c 01       	movw	r14, r24
    2df4:	5f ef       	ldi	r21, 0xFF	; 255
    2df6:	e5 1a       	sub	r14, r21
    2df8:	f5 0a       	sbc	r15, r21
    2dfa:	b7 01       	movw	r22, r14
    2dfc:	ce 01       	movw	r24, r28
    2dfe:	0d 96       	adiw	r24, 0x0d	; 13
    2e00:	0e 94 a8 09 	call	0x1350	; 0x1350 <String::indexOf(char, unsigned int) const [clone .constprop.41]>
    2e04:	8c 01       	movw	r16, r24
/home/huser/Dev/TAD_Workspace/Projects/firmwares/OnlyCell/OnlyCell.ino:410

      if (pidIdx1 != -1 && pidIdx2 != -1) {
    2e06:	8f ef       	ldi	r24, 0xFF	; 255
    2e08:	c8 16       	cp	r12, r24
    2e0a:	d8 06       	cpc	r13, r24
    2e0c:	09 f4       	brne	.+2      	; 0x2e10 <main+0xe92>
    2e0e:	3a c1       	rjmp	.+628    	; 0x3084 <main+0x1106>
    2e10:	0f 3f       	cpi	r16, 0xFF	; 255
    2e12:	10 07       	cpc	r17, r16
    2e14:	09 f4       	brne	.+2      	; 0x2e18 <main+0xe9a>
    2e16:	36 c1       	rjmp	.+620    	; 0x3084 <main+0x1106>
/home/huser/Dev/TAD_Workspace/Projects/firmwares/OnlyCell/OnlyCell.ino:411
        double kp = input.substring(4, pidIdx1).toDouble();
    2e18:	96 01       	movw	r18, r12
    2e1a:	44 e0       	ldi	r20, 0x04	; 4
    2e1c:	50 e0       	ldi	r21, 0x00	; 0
    2e1e:	be 01       	movw	r22, r28
    2e20:	63 5f       	subi	r22, 0xF3	; 243
    2e22:	7f 4f       	sbci	r23, 0xFF	; 255
    2e24:	ce 01       	movw	r24, r28
    2e26:	01 96       	adiw	r24, 0x01	; 1
    2e28:	0e 94 29 0b 	call	0x1652	; 0x1652 <String::substring(unsigned int, unsigned int) const>
    2e2c:	ce 01       	movw	r24, r28
    2e2e:	01 96       	adiw	r24, 0x01	; 1
    2e30:	0e 94 b0 0a 	call	0x1560	; 0x1560 <String::toDouble() const>
    2e34:	2b 01       	movw	r4, r22
    2e36:	3c 01       	movw	r6, r24
    2e38:	ce 01       	movw	r24, r28
    2e3a:	01 96       	adiw	r24, 0x01	; 1
    2e3c:	0e 94 f7 07 	call	0xfee	; 0xfee <String::~String()>
/home/huser/Dev/TAD_Workspace/Projects/firmwares/OnlyCell/OnlyCell.ino:412
        double ki = input.substring(pidIdx1 + 1, pidIdx2).toDouble();
    2e40:	98 01       	movw	r18, r16
    2e42:	a7 01       	movw	r20, r14
    2e44:	be 01       	movw	r22, r28
    2e46:	63 5f       	subi	r22, 0xF3	; 243
    2e48:	7f 4f       	sbci	r23, 0xFF	; 255
    2e4a:	ce 01       	movw	r24, r28
    2e4c:	01 96       	adiw	r24, 0x01	; 1
    2e4e:	0e 94 29 0b 	call	0x1652	; 0x1652 <String::substring(unsigned int, unsigned int) const>
    2e52:	ce 01       	movw	r24, r28
    2e54:	01 96       	adiw	r24, 0x01	; 1
    2e56:	0e 94 b0 0a 	call	0x1560	; 0x1560 <String::toDouble() const>
    2e5a:	4b 01       	movw	r8, r22
    2e5c:	5c 01       	movw	r10, r24
    2e5e:	ce 01       	movw	r24, r28
    2e60:	01 96       	adiw	r24, 0x01	; 1
    2e62:	0e 94 f7 07 	call	0xfee	; 0xfee <String::~String()>
substring():
/home/huser/.arduino15/packages/MiniCore/hardware/avr/3.0.2/cores/MCUdude_corefiles/WString.h:178
    2e66:	29 89       	ldd	r18, Y+17	; 0x11
    2e68:	3a 89       	ldd	r19, Y+18	; 0x12
handleSerialInput():
/home/huser/Dev/TAD_Workspace/Projects/firmwares/OnlyCell/OnlyCell.ino:413
        double kd = input.substring(pidIdx2 + 1).toDouble();
    2e6a:	a8 01       	movw	r20, r16
    2e6c:	4f 5f       	subi	r20, 0xFF	; 255
    2e6e:	5f 4f       	sbci	r21, 0xFF	; 255
substring():
/home/huser/.arduino15/packages/MiniCore/hardware/avr/3.0.2/cores/MCUdude_corefiles/WString.h:178
    2e70:	be 01       	movw	r22, r28
    2e72:	63 5f       	subi	r22, 0xF3	; 243
    2e74:	7f 4f       	sbci	r23, 0xFF	; 255
    2e76:	ce 01       	movw	r24, r28
    2e78:	01 96       	adiw	r24, 0x01	; 1
    2e7a:	0e 94 29 0b 	call	0x1652	; 0x1652 <String::substring(unsigned int, unsigned int) const>
handleSerialInput():
/home/huser/Dev/TAD_Workspace/Projects/firmwares/OnlyCell/OnlyCell.ino:413
    2e7e:	ce 01       	movw	r24, r28
    2e80:	01 96       	adiw	r24, 0x01	; 1
    2e82:	0e 94 b0 0a 	call	0x1560	; 0x1560 <String::toDouble() const>
    2e86:	6b 01       	movw	r12, r22
    2e88:	7c 01       	movw	r14, r24
    2e8a:	ce 01       	movw	r24, r28
    2e8c:	01 96       	adiw	r24, 0x01	; 1
    2e8e:	0e 94 f7 07 	call	0xfee	; 0xfee <String::~String()>
/home/huser/Dev/TAD_Workspace/Projects/firmwares/OnlyCell/OnlyCell.ino:416

        // Update PID parameters
        m_kp = kp;
    2e92:	40 92 00 01 	sts	0x0100, r4	; 0x800100 <__DATA_REGION_ORIGIN__>
    2e96:	50 92 01 01 	sts	0x0101, r5	; 0x800101 <__DATA_REGION_ORIGIN__+0x1>
    2e9a:	60 92 02 01 	sts	0x0102, r6	; 0x800102 <__DATA_REGION_ORIGIN__+0x2>
    2e9e:	70 92 03 01 	sts	0x0103, r7	; 0x800103 <__DATA_REGION_ORIGIN__+0x3>
/home/huser/Dev/TAD_Workspace/Projects/firmwares/OnlyCell/OnlyCell.ino:417
        m_ki = ki;
    2ea2:	80 92 04 01 	sts	0x0104, r8	; 0x800104 <m_ki>
    2ea6:	90 92 05 01 	sts	0x0105, r9	; 0x800105 <m_ki+0x1>
    2eaa:	a0 92 06 01 	sts	0x0106, r10	; 0x800106 <m_ki+0x2>
    2eae:	b0 92 07 01 	sts	0x0107, r11	; 0x800107 <m_ki+0x3>
/home/huser/Dev/TAD_Workspace/Projects/firmwares/OnlyCell/OnlyCell.ino:418
        m_kd = kd;
    2eb2:	c0 92 08 01 	sts	0x0108, r12	; 0x800108 <m_kd>
    2eb6:	d0 92 09 01 	sts	0x0109, r13	; 0x800109 <m_kd+0x1>
    2eba:	e0 92 0a 01 	sts	0x010A, r14	; 0x80010a <m_kd+0x2>
    2ebe:	f0 92 0b 01 	sts	0x010B, r15	; 0x80010b <m_kd+0x3>
SetTunings():
/home/huser/Arduino/libraries/PID/PID_v1.cpp:104
 * it's called automatically from the constructor, but tunings can also
 * be adjusted on the fly during normal operation
 ******************************************************************************/
void PID::SetTunings(double Kp, double Ki, double Kd, int POn)
{
   if (Kp<0 || Ki<0 || Kd<0) return;
    2ec2:	20 e0       	ldi	r18, 0x00	; 0
    2ec4:	30 e0       	ldi	r19, 0x00	; 0
    2ec6:	a9 01       	movw	r20, r18
    2ec8:	c3 01       	movw	r24, r6
    2eca:	b2 01       	movw	r22, r4
    2ecc:	0e 94 f3 1e 	call	0x3de6	; 0x3de6 <__cmpsf2>
    2ed0:	87 fd       	sbrc	r24, 7
    2ed2:	a6 c0       	rjmp	.+332    	; 0x3020 <main+0x10a2>
    2ed4:	20 e0       	ldi	r18, 0x00	; 0
    2ed6:	30 e0       	ldi	r19, 0x00	; 0
    2ed8:	a9 01       	movw	r20, r18
    2eda:	c5 01       	movw	r24, r10
    2edc:	b4 01       	movw	r22, r8
    2ede:	0e 94 f3 1e 	call	0x3de6	; 0x3de6 <__cmpsf2>
    2ee2:	87 fd       	sbrc	r24, 7
    2ee4:	9d c0       	rjmp	.+314    	; 0x3020 <main+0x10a2>
    2ee6:	20 e0       	ldi	r18, 0x00	; 0
    2ee8:	30 e0       	ldi	r19, 0x00	; 0
    2eea:	a9 01       	movw	r20, r18
    2eec:	c7 01       	movw	r24, r14
    2eee:	b6 01       	movw	r22, r12
    2ef0:	0e 94 f3 1e 	call	0x3de6	; 0x3de6 <__cmpsf2>
    2ef4:	87 fd       	sbrc	r24, 7
    2ef6:	94 c0       	rjmp	.+296    	; 0x3020 <main+0x10a2>
/home/huser/Arduino/libraries/PID/PID_v1.cpp:107

   pOn = POn;
   pOnE = POn == P_ON_E;
    2ef8:	81 e0       	ldi	r24, 0x01	; 1
    2efa:	20 91 45 05 	lds	r18, 0x0545	; 0x800545 <m_pidHeater+0x1a>
    2efe:	30 91 46 05 	lds	r19, 0x0546	; 0x800546 <m_pidHeater+0x1b>
    2f02:	21 30       	cpi	r18, 0x01	; 1
    2f04:	31 05       	cpc	r19, r1
    2f06:	09 f0       	breq	.+2      	; 0x2f0a <main+0xf8c>
    2f08:	80 e0       	ldi	r24, 0x00	; 0
    2f0a:	80 93 66 05 	sts	0x0566, r24	; 0x800566 <m_pidHeater+0x3b>
/home/huser/Arduino/libraries/PID/PID_v1.cpp:109

   dispKp = Kp; dispKi = Ki; dispKd = Kd;
    2f0e:	40 92 2b 05 	sts	0x052B, r4	; 0x80052b <m_pidHeater>
    2f12:	50 92 2c 05 	sts	0x052C, r5	; 0x80052c <m_pidHeater+0x1>
    2f16:	60 92 2d 05 	sts	0x052D, r6	; 0x80052d <m_pidHeater+0x2>
    2f1a:	70 92 2e 05 	sts	0x052E, r7	; 0x80052e <m_pidHeater+0x3>
    2f1e:	80 92 2f 05 	sts	0x052F, r8	; 0x80052f <m_pidHeater+0x4>
    2f22:	90 92 30 05 	sts	0x0530, r9	; 0x800530 <m_pidHeater+0x5>
    2f26:	a0 92 31 05 	sts	0x0531, r10	; 0x800531 <m_pidHeater+0x6>
    2f2a:	b0 92 32 05 	sts	0x0532, r11	; 0x800532 <m_pidHeater+0x7>
    2f2e:	c0 92 33 05 	sts	0x0533, r12	; 0x800533 <m_pidHeater+0x8>
    2f32:	d0 92 34 05 	sts	0x0534, r13	; 0x800534 <m_pidHeater+0x9>
    2f36:	e0 92 35 05 	sts	0x0535, r14	; 0x800535 <m_pidHeater+0xa>
    2f3a:	f0 92 36 05 	sts	0x0536, r15	; 0x800536 <m_pidHeater+0xb>
/home/huser/Arduino/libraries/PID/PID_v1.cpp:111

   double SampleTimeInSec = ((double)SampleTime)/1000;
    2f3e:	60 91 59 05 	lds	r22, 0x0559	; 0x800559 <m_pidHeater+0x2e>
    2f42:	70 91 5a 05 	lds	r23, 0x055A	; 0x80055a <m_pidHeater+0x2f>
    2f46:	80 91 5b 05 	lds	r24, 0x055B	; 0x80055b <m_pidHeater+0x30>
    2f4a:	90 91 5c 05 	lds	r25, 0x055C	; 0x80055c <m_pidHeater+0x31>
    2f4e:	0e 94 f8 1e 	call	0x3df0	; 0x3df0 <__floatunsisf>
    2f52:	20 e0       	ldi	r18, 0x00	; 0
    2f54:	30 e0       	ldi	r19, 0x00	; 0
    2f56:	4a e7       	ldi	r20, 0x7A	; 122
    2f58:	54 e4       	ldi	r21, 0x44	; 68
    2f5a:	0e 94 d8 20 	call	0x41b0	; 0x41b0 <__divsf3>
    2f5e:	6b 8b       	std	Y+19, r22	; 0x13
    2f60:	7c 8b       	std	Y+20, r23	; 0x14
    2f62:	8d 8b       	std	Y+21, r24	; 0x15
    2f64:	9e 8b       	std	Y+22, r25	; 0x16
/home/huser/Arduino/libraries/PID/PID_v1.cpp:112
   kp = Kp;
    2f66:	40 92 37 05 	sts	0x0537, r4	; 0x800537 <m_pidHeater+0xc>
    2f6a:	50 92 38 05 	sts	0x0538, r5	; 0x800538 <m_pidHeater+0xd>
    2f6e:	60 92 39 05 	sts	0x0539, r6	; 0x800539 <m_pidHeater+0xe>
    2f72:	70 92 3a 05 	sts	0x053A, r7	; 0x80053a <m_pidHeater+0xf>
/home/huser/Arduino/libraries/PID/PID_v1.cpp:113
   ki = Ki * SampleTimeInSec;
    2f76:	9b 01       	movw	r18, r22
    2f78:	ac 01       	movw	r20, r24
    2f7a:	c5 01       	movw	r24, r10
    2f7c:	b4 01       	movw	r22, r8
    2f7e:	0e 94 59 1f 	call	0x3eb2	; 0x3eb2 <__mulsf3>
    2f82:	4b 01       	movw	r8, r22
    2f84:	5c 01       	movw	r10, r24
    2f86:	80 92 3b 05 	sts	0x053B, r8	; 0x80053b <m_pidHeater+0x10>
    2f8a:	90 92 3c 05 	sts	0x053C, r9	; 0x80053c <m_pidHeater+0x11>
    2f8e:	a0 92 3d 05 	sts	0x053D, r10	; 0x80053d <m_pidHeater+0x12>
    2f92:	b0 92 3e 05 	sts	0x053E, r11	; 0x80053e <m_pidHeater+0x13>
/home/huser/Arduino/libraries/PID/PID_v1.cpp:114
   kd = Kd / SampleTimeInSec;
    2f96:	2b 89       	ldd	r18, Y+19	; 0x13
    2f98:	3c 89       	ldd	r19, Y+20	; 0x14
    2f9a:	4d 89       	ldd	r20, Y+21	; 0x15
    2f9c:	5e 89       	ldd	r21, Y+22	; 0x16
    2f9e:	c7 01       	movw	r24, r14
    2fa0:	b6 01       	movw	r22, r12
    2fa2:	0e 94 d8 20 	call	0x41b0	; 0x41b0 <__divsf3>
    2fa6:	6b 01       	movw	r12, r22
    2fa8:	7c 01       	movw	r14, r24
    2faa:	c0 92 3f 05 	sts	0x053F, r12	; 0x80053f <m_pidHeater+0x14>
    2fae:	d0 92 40 05 	sts	0x0540, r13	; 0x800540 <m_pidHeater+0x15>
    2fb2:	e0 92 41 05 	sts	0x0541, r14	; 0x800541 <m_pidHeater+0x16>
    2fb6:	f0 92 42 05 	sts	0x0542, r15	; 0x800542 <m_pidHeater+0x17>
/home/huser/Arduino/libraries/PID/PID_v1.cpp:116

  if(controllerDirection ==REVERSE)
    2fba:	80 91 43 05 	lds	r24, 0x0543	; 0x800543 <m_pidHeater+0x18>
    2fbe:	90 91 44 05 	lds	r25, 0x0544	; 0x800544 <m_pidHeater+0x19>
    2fc2:	01 97       	sbiw	r24, 0x01	; 1
    2fc4:	69 f5       	brne	.+90     	; 0x3020 <main+0x10a2>
/home/huser/Arduino/libraries/PID/PID_v1.cpp:118
   {
      kp = (0 - kp);
    2fc6:	a3 01       	movw	r20, r6
    2fc8:	92 01       	movw	r18, r4
    2fca:	60 e0       	ldi	r22, 0x00	; 0
    2fcc:	70 e0       	ldi	r23, 0x00	; 0
    2fce:	cb 01       	movw	r24, r22
    2fd0:	0e 94 6b 20 	call	0x40d6	; 0x40d6 <__subsf3>
    2fd4:	60 93 37 05 	sts	0x0537, r22	; 0x800537 <m_pidHeater+0xc>
    2fd8:	70 93 38 05 	sts	0x0538, r23	; 0x800538 <m_pidHeater+0xd>
    2fdc:	80 93 39 05 	sts	0x0539, r24	; 0x800539 <m_pidHeater+0xe>
    2fe0:	90 93 3a 05 	sts	0x053A, r25	; 0x80053a <m_pidHeater+0xf>
/home/huser/Arduino/libraries/PID/PID_v1.cpp:119
      ki = (0 - ki);
    2fe4:	a5 01       	movw	r20, r10
    2fe6:	94 01       	movw	r18, r8
    2fe8:	60 e0       	ldi	r22, 0x00	; 0
    2fea:	70 e0       	ldi	r23, 0x00	; 0
    2fec:	cb 01       	movw	r24, r22
    2fee:	0e 94 6b 20 	call	0x40d6	; 0x40d6 <__subsf3>
    2ff2:	60 93 3b 05 	sts	0x053B, r22	; 0x80053b <m_pidHeater+0x10>
    2ff6:	70 93 3c 05 	sts	0x053C, r23	; 0x80053c <m_pidHeater+0x11>
    2ffa:	80 93 3d 05 	sts	0x053D, r24	; 0x80053d <m_pidHeater+0x12>
    2ffe:	90 93 3e 05 	sts	0x053E, r25	; 0x80053e <m_pidHeater+0x13>
/home/huser/Arduino/libraries/PID/PID_v1.cpp:120
      kd = (0 - kd);
    3002:	a7 01       	movw	r20, r14
    3004:	96 01       	movw	r18, r12
    3006:	60 e0       	ldi	r22, 0x00	; 0
    3008:	70 e0       	ldi	r23, 0x00	; 0
    300a:	cb 01       	movw	r24, r22
    300c:	0e 94 6b 20 	call	0x40d6	; 0x40d6 <__subsf3>
    3010:	60 93 3f 05 	sts	0x053F, r22	; 0x80053f <m_pidHeater+0x14>
    3014:	70 93 40 05 	sts	0x0540, r23	; 0x800540 <m_pidHeater+0x15>
    3018:	80 93 41 05 	sts	0x0541, r24	; 0x800541 <m_pidHeater+0x16>
    301c:	90 93 42 05 	sts	0x0542, r25	; 0x800542 <m_pidHeater+0x17>
write():
    3020:	83 e9       	ldi	r24, 0x93	; 147
    3022:	92 e0       	ldi	r25, 0x02	; 2
    3024:	0e 94 1c 08 	call	0x1038	; 0x1038 <Print::write(char const*) [clone .part.2] [clone .constprop.50]>
print():
/home/huser/.arduino15/packages/MiniCore/hardware/avr/3.0.2/cores/MCUdude_corefiles/Print.cpp:111
    3028:	60 91 00 01 	lds	r22, 0x0100	; 0x800100 <__DATA_REGION_ORIGIN__>
    302c:	70 91 01 01 	lds	r23, 0x0101	; 0x800101 <__DATA_REGION_ORIGIN__+0x1>
    3030:	80 91 02 01 	lds	r24, 0x0102	; 0x800102 <__DATA_REGION_ORIGIN__+0x2>
    3034:	90 91 03 01 	lds	r25, 0x0103	; 0x800103 <__DATA_REGION_ORIGIN__+0x3>
    3038:	42 e0       	ldi	r20, 0x02	; 2
    303a:	0e 94 cc 08 	call	0x1198	; 0x1198 <Print::printFloat(double, unsigned char) [clone .constprop.28]>
write():
    303e:	8f ea       	ldi	r24, 0xAF	; 175
    3040:	92 e0       	ldi	r25, 0x02	; 2
    3042:	0e 94 1c 08 	call	0x1038	; 0x1038 <Print::write(char const*) [clone .part.2] [clone .constprop.50]>
print():
    3046:	60 91 04 01 	lds	r22, 0x0104	; 0x800104 <m_ki>
    304a:	70 91 05 01 	lds	r23, 0x0105	; 0x800105 <m_ki+0x1>
    304e:	80 91 06 01 	lds	r24, 0x0106	; 0x800106 <m_ki+0x2>
    3052:	90 91 07 01 	lds	r25, 0x0107	; 0x800107 <m_ki+0x3>
    3056:	42 e0       	ldi	r20, 0x02	; 2
    3058:	0e 94 cc 08 	call	0x1198	; 0x1198 <Print::printFloat(double, unsigned char) [clone .constprop.28]>
write():
    305c:	85 eb       	ldi	r24, 0xB5	; 181
    305e:	92 e0       	ldi	r25, 0x02	; 2
    3060:	0e 94 1c 08 	call	0x1038	; 0x1038 <Print::write(char const*) [clone .part.2] [clone .constprop.50]>
print():
    3064:	60 91 08 01 	lds	r22, 0x0108	; 0x800108 <m_kd>
    3068:	70 91 09 01 	lds	r23, 0x0109	; 0x800109 <m_kd+0x1>
    306c:	80 91 0a 01 	lds	r24, 0x010A	; 0x80010a <m_kd+0x2>
    3070:	90 91 0b 01 	lds	r25, 0x010B	; 0x80010b <m_kd+0x3>
    3074:	42 e0       	ldi	r20, 0x02	; 2
    3076:	0e 94 cc 08 	call	0x1198	; 0x1198 <Print::printFloat(double, unsigned char) [clone .constprop.28]>
write():
    307a:	86 e3       	ldi	r24, 0x36	; 54
    307c:	91 e0       	ldi	r25, 0x01	; 1
    307e:	0e 94 1c 08 	call	0x1038	; 0x1038 <Print::write(char const*) [clone .part.2] [clone .constprop.50]>
    3082:	87 cd       	rjmp	.-1266   	; 0x2b92 <main+0xc14>
handleSerialInput():
/home/huser/Dev/TAD_Workspace/Projects/firmwares/OnlyCell/OnlyCell.ino:429
        Serial.print(", ki=");
        Serial.print(m_ki);
        Serial.print(", kd=");
        Serial.println(m_kd);
      } else {
        Serial.println("Error: Invalid PID input format. Use 'pid#kp#ki#kd'");
    3084:	8b eb       	ldi	r24, 0xBB	; 187
    3086:	92 e0       	ldi	r25, 0x02	; 2
    3088:	8f ce       	rjmp	.-738    	; 0x2da8 <main+0xe2a>
/home/huser/Dev/TAD_Workspace/Projects/firmwares/OnlyCell/OnlyCell.ino:433
      }
    }
    else {
      Serial.println("Error: Invalid input format. Use '>cellID#positionIdx#targetTemp#targetRPM<' or 'pid#kp#ki#kd'");
    308a:	8f ee       	ldi	r24, 0xEF	; 239
    308c:	92 e0       	ldi	r25, 0x02	; 2
    308e:	8c ce       	rjmp	.-744    	; 0x2da8 <main+0xe2a>

00003090 <global destructors keyed to 65535_1_OnlyCell.ino.cpp.o.2905>:
_GLOBAL__D_65535_1_OnlyCell.ino.cpp.o.2905():
    3090:	80 91 86 05 	lds	r24, 0x0586	; 0x800586 <rtd2+0x2>
    3094:	90 91 87 05 	lds	r25, 0x0587	; 0x800587 <rtd2+0x3>
    3098:	00 97       	sbiw	r24, 0x00	; 0
    309a:	11 f0       	breq	.+4      	; 0x30a0 <global destructors keyed to 65535_1_OnlyCell.ino.cpp.o.2905+0x10>
    309c:	0e 94 d1 22 	call	0x45a2	; 0x45a2 <free>
    30a0:	80 91 6a 05 	lds	r24, 0x056A	; 0x80056a <rtd1+0x2>
    30a4:	90 91 6b 05 	lds	r25, 0x056B	; 0x80056b <rtd1+0x3>
    30a8:	00 97       	sbiw	r24, 0x00	; 0
    30aa:	11 f0       	breq	.+4      	; 0x30b0 <global destructors keyed to 65535_1_OnlyCell.ino.cpp.o.2905+0x20>
    30ac:	0e 94 d1 22 	call	0x45a2	; 0x45a2 <free>
    30b0:	88 e2       	ldi	r24, 0x28	; 40
    30b2:	91 e0       	ldi	r25, 0x01	; 1
    30b4:	90 93 a1 05 	sts	0x05A1, r25	; 0x8005a1 <Wire+0x1>
    30b8:	80 93 a0 05 	sts	0x05A0, r24	; 0x8005a0 <Wire>
    30bc:	80 91 ae 05 	lds	r24, 0x05AE	; 0x8005ae <Wire+0xe>
    30c0:	90 91 af 05 	lds	r25, 0x05AF	; 0x8005af <Wire+0xf>
    30c4:	00 97       	sbiw	r24, 0x00	; 0
    30c6:	11 f0       	breq	.+4      	; 0x30cc <global destructors keyed to 65535_1_OnlyCell.ino.cpp.o.2905+0x3c>
    30c8:	0e 94 d1 22 	call	0x45a2	; 0x45a2 <free>
    30cc:	80 91 b3 05 	lds	r24, 0x05B3	; 0x8005b3 <Wire+0x13>
    30d0:	90 91 b4 05 	lds	r25, 0x05B4	; 0x8005b4 <Wire+0x14>
    30d4:	00 97       	sbiw	r24, 0x00	; 0
    30d6:	11 f0       	breq	.+4      	; 0x30dc <global destructors keyed to 65535_1_OnlyCell.ino.cpp.o.2905+0x4c>
    30d8:	0c 94 d1 22 	jmp	0x45a2	; 0x45a2 <free>
    30dc:	08 95       	ret

000030de <dtostrf>:
dtostrf():
    30de:	ef 92       	push	r14
    30e0:	0f 93       	push	r16
    30e2:	1f 93       	push	r17
    30e4:	cf 93       	push	r28
    30e6:	df 93       	push	r29
    30e8:	e8 01       	movw	r28, r16
    30ea:	34 e0       	ldi	r19, 0x04	; 4
    30ec:	47 fd       	sbrc	r20, 7
    30ee:	34 e1       	ldi	r19, 0x14	; 20
    30f0:	04 2e       	mov	r0, r20
    30f2:	00 0c       	add	r0, r0
    30f4:	55 0b       	sbc	r21, r21
    30f6:	57 ff       	sbrs	r21, 7
    30f8:	03 c0       	rjmp	.+6      	; 0x3100 <dtostrf+0x22>
    30fa:	51 95       	neg	r21
    30fc:	41 95       	neg	r20
    30fe:	51 09       	sbc	r21, r1
    3100:	e3 2e       	mov	r14, r19
    3102:	02 2f       	mov	r16, r18
    3104:	24 2f       	mov	r18, r20
    3106:	ae 01       	movw	r20, r28
    3108:	0e 94 a7 1a 	call	0x354e	; 0x354e <dtoa_prf>
    310c:	ce 01       	movw	r24, r28
    310e:	df 91       	pop	r29
    3110:	cf 91       	pop	r28
    3112:	1f 91       	pop	r17
    3114:	0f 91       	pop	r16
    3116:	ef 90       	pop	r14
    3118:	08 95       	ret

0000311a <atof>:
atof():
    311a:	66 27       	eor	r22, r22
    311c:	77 27       	eor	r23, r23
    311e:	0c 94 06 1c 	jmp	0x380c	; 0x380c <strtod>

00003122 <atol>:
atol():
    3122:	1f 93       	push	r17
    3124:	fc 01       	movw	r30, r24
    3126:	99 27       	eor	r25, r25
    3128:	88 27       	eor	r24, r24
    312a:	bc 01       	movw	r22, r24
    312c:	e8 94       	clt
    312e:	11 91       	ld	r17, Z+
    3130:	10 32       	cpi	r17, 0x20	; 32
    3132:	e9 f3       	breq	.-6      	; 0x312e <atol+0xc>
    3134:	19 30       	cpi	r17, 0x09	; 9
    3136:	10 f0       	brcs	.+4      	; 0x313c <atol+0x1a>
    3138:	1e 30       	cpi	r17, 0x0E	; 14
    313a:	c8 f3       	brcs	.-14     	; 0x312e <atol+0xc>
    313c:	1b 32       	cpi	r17, 0x2B	; 43
    313e:	51 f0       	breq	.+20     	; 0x3154 <atol+0x32>
    3140:	1d 32       	cpi	r17, 0x2D	; 45
    3142:	49 f4       	brne	.+18     	; 0x3156 <atol+0x34>
    3144:	68 94       	set
    3146:	06 c0       	rjmp	.+12     	; 0x3154 <atol+0x32>
    3148:	0e 94 b8 18 	call	0x3170	; 0x3170 <__mulsi_const_10>
    314c:	61 0f       	add	r22, r17
    314e:	71 1d       	adc	r23, r1
    3150:	81 1d       	adc	r24, r1
    3152:	91 1d       	adc	r25, r1
    3154:	11 91       	ld	r17, Z+
    3156:	10 53       	subi	r17, 0x30	; 48
    3158:	1a 30       	cpi	r17, 0x0A	; 10
    315a:	b0 f3       	brcs	.-20     	; 0x3148 <atol+0x26>
    315c:	3e f4       	brtc	.+14     	; 0x316c <atol+0x4a>
    315e:	90 95       	com	r25
    3160:	80 95       	com	r24
    3162:	70 95       	com	r23
    3164:	61 95       	neg	r22
    3166:	7f 4f       	sbci	r23, 0xFF	; 255
    3168:	8f 4f       	sbci	r24, 0xFF	; 255
    316a:	9f 4f       	sbci	r25, 0xFF	; 255
    316c:	1f 91       	pop	r17
    316e:	08 95       	ret

00003170 <__mulsi_const_10>:
__mulsi_const_10():
    3170:	59 2f       	mov	r21, r25
    3172:	48 2f       	mov	r20, r24
    3174:	37 2f       	mov	r19, r23
    3176:	26 2f       	mov	r18, r22
    3178:	66 0f       	add	r22, r22
    317a:	77 1f       	adc	r23, r23
    317c:	88 1f       	adc	r24, r24
    317e:	99 1f       	adc	r25, r25
    3180:	66 0f       	add	r22, r22
    3182:	77 1f       	adc	r23, r23
    3184:	88 1f       	adc	r24, r24
    3186:	99 1f       	adc	r25, r25
    3188:	62 0f       	add	r22, r18
    318a:	73 1f       	adc	r23, r19
    318c:	84 1f       	adc	r24, r20
    318e:	95 1f       	adc	r25, r21
    3190:	66 0f       	add	r22, r22
    3192:	77 1f       	adc	r23, r23
    3194:	88 1f       	adc	r24, r24
    3196:	99 1f       	adc	r25, r25
    3198:	08 95       	ret

0000319a <vfprintf>:
vfprintf():
    319a:	ab e0       	ldi	r26, 0x0B	; 11
    319c:	b0 e0       	ldi	r27, 0x00	; 0
    319e:	e3 ed       	ldi	r30, 0xD3	; 211
    31a0:	f8 e1       	ldi	r31, 0x18	; 24
    31a2:	0c 94 25 20 	jmp	0x404a	; 0x404a <__prologue_saves__>
    31a6:	7c 01       	movw	r14, r24
    31a8:	3b 01       	movw	r6, r22
    31aa:	8a 01       	movw	r16, r20
    31ac:	fc 01       	movw	r30, r24
    31ae:	17 82       	std	Z+7, r1	; 0x07
    31b0:	16 82       	std	Z+6, r1	; 0x06
    31b2:	83 81       	ldd	r24, Z+3	; 0x03
    31b4:	81 ff       	sbrs	r24, 1
    31b6:	c8 c1       	rjmp	.+912    	; 0x3548 <vfprintf+0x3ae>
    31b8:	ce 01       	movw	r24, r28
    31ba:	01 96       	adiw	r24, 0x01	; 1
    31bc:	5c 01       	movw	r10, r24
    31be:	f7 01       	movw	r30, r14
    31c0:	93 81       	ldd	r25, Z+3	; 0x03
    31c2:	f3 01       	movw	r30, r6
    31c4:	93 fd       	sbrc	r25, 3
    31c6:	85 91       	lpm	r24, Z+
    31c8:	93 ff       	sbrs	r25, 3
    31ca:	81 91       	ld	r24, Z+
    31cc:	3f 01       	movw	r6, r30
    31ce:	88 23       	and	r24, r24
    31d0:	09 f4       	brne	.+2      	; 0x31d4 <vfprintf+0x3a>
    31d2:	53 c1       	rjmp	.+678    	; 0x347a <vfprintf+0x2e0>
    31d4:	85 32       	cpi	r24, 0x25	; 37
    31d6:	39 f4       	brne	.+14     	; 0x31e6 <vfprintf+0x4c>
    31d8:	93 fd       	sbrc	r25, 3
    31da:	85 91       	lpm	r24, Z+
    31dc:	93 ff       	sbrs	r25, 3
    31de:	81 91       	ld	r24, Z+
    31e0:	3f 01       	movw	r6, r30
    31e2:	85 32       	cpi	r24, 0x25	; 37
    31e4:	29 f4       	brne	.+10     	; 0x31f0 <vfprintf+0x56>
    31e6:	b7 01       	movw	r22, r14
    31e8:	90 e0       	ldi	r25, 0x00	; 0
    31ea:	0e 94 65 1e 	call	0x3cca	; 0x3cca <fputc>
    31ee:	e7 cf       	rjmp	.-50     	; 0x31be <vfprintf+0x24>
    31f0:	91 2c       	mov	r9, r1
    31f2:	21 2c       	mov	r2, r1
    31f4:	31 2c       	mov	r3, r1
    31f6:	ff e1       	ldi	r31, 0x1F	; 31
    31f8:	f3 15       	cp	r31, r3
    31fa:	38 f0       	brcs	.+14     	; 0x320a <vfprintf+0x70>
    31fc:	8b 32       	cpi	r24, 0x2B	; 43
    31fe:	11 f1       	breq	.+68     	; 0x3244 <vfprintf+0xaa>
    3200:	90 f4       	brcc	.+36     	; 0x3226 <vfprintf+0x8c>
    3202:	80 32       	cpi	r24, 0x20	; 32
    3204:	09 f1       	breq	.+66     	; 0x3248 <vfprintf+0xae>
    3206:	83 32       	cpi	r24, 0x23	; 35
    3208:	29 f1       	breq	.+74     	; 0x3254 <vfprintf+0xba>
    320a:	37 fc       	sbrc	r3, 7
    320c:	3c c0       	rjmp	.+120    	; 0x3286 <vfprintf+0xec>
    320e:	20 ed       	ldi	r18, 0xD0	; 208
    3210:	28 0f       	add	r18, r24
    3212:	2a 30       	cpi	r18, 0x0A	; 10
    3214:	50 f5       	brcc	.+84     	; 0x326a <vfprintf+0xd0>
    3216:	36 fe       	sbrs	r3, 6
    3218:	20 c0       	rjmp	.+64     	; 0x325a <vfprintf+0xc0>
    321a:	8a e0       	ldi	r24, 0x0A	; 10
    321c:	98 9e       	mul	r9, r24
    321e:	20 0d       	add	r18, r0
    3220:	11 24       	eor	r1, r1
    3222:	92 2e       	mov	r9, r18
    3224:	06 c0       	rjmp	.+12     	; 0x3232 <vfprintf+0x98>
    3226:	8d 32       	cpi	r24, 0x2D	; 45
    3228:	91 f0       	breq	.+36     	; 0x324e <vfprintf+0xb4>
    322a:	80 33       	cpi	r24, 0x30	; 48
    322c:	71 f7       	brne	.-36     	; 0x320a <vfprintf+0x70>
    322e:	68 94       	set
    3230:	30 f8       	bld	r3, 0
    3232:	f3 01       	movw	r30, r6
    3234:	93 fd       	sbrc	r25, 3
    3236:	85 91       	lpm	r24, Z+
    3238:	93 ff       	sbrs	r25, 3
    323a:	81 91       	ld	r24, Z+
    323c:	3f 01       	movw	r6, r30
    323e:	81 11       	cpse	r24, r1
    3240:	da cf       	rjmp	.-76     	; 0x31f6 <vfprintf+0x5c>
    3242:	21 c0       	rjmp	.+66     	; 0x3286 <vfprintf+0xec>
    3244:	68 94       	set
    3246:	31 f8       	bld	r3, 1
    3248:	68 94       	set
    324a:	32 f8       	bld	r3, 2
    324c:	f2 cf       	rjmp	.-28     	; 0x3232 <vfprintf+0x98>
    324e:	68 94       	set
    3250:	33 f8       	bld	r3, 3
    3252:	ef cf       	rjmp	.-34     	; 0x3232 <vfprintf+0x98>
    3254:	68 94       	set
    3256:	34 f8       	bld	r3, 4
    3258:	ec cf       	rjmp	.-40     	; 0x3232 <vfprintf+0x98>
    325a:	ea e0       	ldi	r30, 0x0A	; 10
    325c:	2e 9e       	mul	r2, r30
    325e:	20 0d       	add	r18, r0
    3260:	11 24       	eor	r1, r1
    3262:	22 2e       	mov	r2, r18
    3264:	68 94       	set
    3266:	35 f8       	bld	r3, 5
    3268:	e4 cf       	rjmp	.-56     	; 0x3232 <vfprintf+0x98>
    326a:	8e 32       	cpi	r24, 0x2E	; 46
    326c:	29 f4       	brne	.+10     	; 0x3278 <vfprintf+0xde>
    326e:	36 fc       	sbrc	r3, 6
    3270:	04 c1       	rjmp	.+520    	; 0x347a <vfprintf+0x2e0>
    3272:	68 94       	set
    3274:	36 f8       	bld	r3, 6
    3276:	dd cf       	rjmp	.-70     	; 0x3232 <vfprintf+0x98>
    3278:	8c 36       	cpi	r24, 0x6C	; 108
    327a:	19 f4       	brne	.+6      	; 0x3282 <vfprintf+0xe8>
    327c:	68 94       	set
    327e:	37 f8       	bld	r3, 7
    3280:	d8 cf       	rjmp	.-80     	; 0x3232 <vfprintf+0x98>
    3282:	88 36       	cpi	r24, 0x68	; 104
    3284:	b1 f2       	breq	.-84     	; 0x3232 <vfprintf+0x98>
    3286:	98 2f       	mov	r25, r24
    3288:	9f 7d       	andi	r25, 0xDF	; 223
    328a:	95 54       	subi	r25, 0x45	; 69
    328c:	93 30       	cpi	r25, 0x03	; 3
    328e:	e0 f0       	brcs	.+56     	; 0x32c8 <vfprintf+0x12e>
    3290:	83 36       	cpi	r24, 0x63	; 99
    3292:	a1 f1       	breq	.+104    	; 0x32fc <vfprintf+0x162>
    3294:	83 37       	cpi	r24, 0x73	; 115
    3296:	c1 f1       	breq	.+112    	; 0x3308 <vfprintf+0x16e>
    3298:	83 35       	cpi	r24, 0x53	; 83
    329a:	09 f0       	breq	.+2      	; 0x329e <vfprintf+0x104>
    329c:	63 c0       	rjmp	.+198    	; 0x3364 <vfprintf+0x1ca>
    329e:	28 01       	movw	r4, r16
    32a0:	f2 e0       	ldi	r31, 0x02	; 2
    32a2:	4f 0e       	add	r4, r31
    32a4:	51 1c       	adc	r5, r1
    32a6:	f8 01       	movw	r30, r16
    32a8:	c0 80       	ld	r12, Z
    32aa:	d1 80       	ldd	r13, Z+1	; 0x01
    32ac:	69 2d       	mov	r22, r9
    32ae:	70 e0       	ldi	r23, 0x00	; 0
    32b0:	36 fc       	sbrc	r3, 6
    32b2:	02 c0       	rjmp	.+4      	; 0x32b8 <vfprintf+0x11e>
    32b4:	6f ef       	ldi	r22, 0xFF	; 255
    32b6:	7f ef       	ldi	r23, 0xFF	; 255
    32b8:	c6 01       	movw	r24, r12
    32ba:	0e 94 4f 1e 	call	0x3c9e	; 0x3c9e <strnlen_P>
    32be:	4c 01       	movw	r8, r24
    32c0:	68 94       	set
    32c2:	37 f8       	bld	r3, 7
    32c4:	82 01       	movw	r16, r4
    32c6:	0a c0       	rjmp	.+20     	; 0x32dc <vfprintf+0x142>
    32c8:	0c 5f       	subi	r16, 0xFC	; 252
    32ca:	1f 4f       	sbci	r17, 0xFF	; 255
    32cc:	ff e3       	ldi	r31, 0x3F	; 63
    32ce:	f9 83       	std	Y+1, r31	; 0x01
    32d0:	88 24       	eor	r8, r8
    32d2:	83 94       	inc	r8
    32d4:	91 2c       	mov	r9, r1
    32d6:	65 01       	movw	r12, r10
    32d8:	e8 94       	clt
    32da:	37 f8       	bld	r3, 7
    32dc:	33 fe       	sbrs	r3, 3
    32de:	2d c0       	rjmp	.+90     	; 0x333a <vfprintf+0x1a0>
    32e0:	52 2c       	mov	r5, r2
    32e2:	81 14       	cp	r8, r1
    32e4:	91 04       	cpc	r9, r1
    32e6:	71 f5       	brne	.+92     	; 0x3344 <vfprintf+0x1aa>
    32e8:	55 20       	and	r5, r5
    32ea:	09 f4       	brne	.+2      	; 0x32ee <vfprintf+0x154>
    32ec:	68 cf       	rjmp	.-304    	; 0x31be <vfprintf+0x24>
    32ee:	b7 01       	movw	r22, r14
    32f0:	80 e2       	ldi	r24, 0x20	; 32
    32f2:	90 e0       	ldi	r25, 0x00	; 0
    32f4:	0e 94 65 1e 	call	0x3cca	; 0x3cca <fputc>
    32f8:	5a 94       	dec	r5
    32fa:	f6 cf       	rjmp	.-20     	; 0x32e8 <vfprintf+0x14e>
    32fc:	f8 01       	movw	r30, r16
    32fe:	80 81       	ld	r24, Z
    3300:	89 83       	std	Y+1, r24	; 0x01
    3302:	0e 5f       	subi	r16, 0xFE	; 254
    3304:	1f 4f       	sbci	r17, 0xFF	; 255
    3306:	e4 cf       	rjmp	.-56     	; 0x32d0 <vfprintf+0x136>
    3308:	28 01       	movw	r4, r16
    330a:	f2 e0       	ldi	r31, 0x02	; 2
    330c:	4f 0e       	add	r4, r31
    330e:	51 1c       	adc	r5, r1
    3310:	f8 01       	movw	r30, r16
    3312:	c0 80       	ld	r12, Z
    3314:	d1 80       	ldd	r13, Z+1	; 0x01
    3316:	69 2d       	mov	r22, r9
    3318:	70 e0       	ldi	r23, 0x00	; 0
    331a:	36 fc       	sbrc	r3, 6
    331c:	02 c0       	rjmp	.+4      	; 0x3322 <vfprintf+0x188>
    331e:	6f ef       	ldi	r22, 0xFF	; 255
    3320:	7f ef       	ldi	r23, 0xFF	; 255
    3322:	c6 01       	movw	r24, r12
    3324:	0e 94 5a 1e 	call	0x3cb4	; 0x3cb4 <strnlen>
    3328:	4c 01       	movw	r8, r24
    332a:	82 01       	movw	r16, r4
    332c:	d5 cf       	rjmp	.-86     	; 0x32d8 <vfprintf+0x13e>
    332e:	b7 01       	movw	r22, r14
    3330:	80 e2       	ldi	r24, 0x20	; 32
    3332:	90 e0       	ldi	r25, 0x00	; 0
    3334:	0e 94 65 1e 	call	0x3cca	; 0x3cca <fputc>
    3338:	2a 94       	dec	r2
    333a:	28 14       	cp	r2, r8
    333c:	19 04       	cpc	r1, r9
    333e:	09 f0       	breq	.+2      	; 0x3342 <vfprintf+0x1a8>
    3340:	b0 f7       	brcc	.-20     	; 0x332e <vfprintf+0x194>
    3342:	ce cf       	rjmp	.-100    	; 0x32e0 <vfprintf+0x146>
    3344:	f6 01       	movw	r30, r12
    3346:	37 fc       	sbrc	r3, 7
    3348:	85 91       	lpm	r24, Z+
    334a:	37 fe       	sbrs	r3, 7
    334c:	81 91       	ld	r24, Z+
    334e:	6f 01       	movw	r12, r30
    3350:	b7 01       	movw	r22, r14
    3352:	90 e0       	ldi	r25, 0x00	; 0
    3354:	0e 94 65 1e 	call	0x3cca	; 0x3cca <fputc>
    3358:	51 10       	cpse	r5, r1
    335a:	5a 94       	dec	r5
    335c:	f1 e0       	ldi	r31, 0x01	; 1
    335e:	8f 1a       	sub	r8, r31
    3360:	91 08       	sbc	r9, r1
    3362:	bf cf       	rjmp	.-130    	; 0x32e2 <vfprintf+0x148>
    3364:	84 36       	cpi	r24, 0x64	; 100
    3366:	19 f0       	breq	.+6      	; 0x336e <vfprintf+0x1d4>
    3368:	89 36       	cpi	r24, 0x69	; 105
    336a:	09 f0       	breq	.+2      	; 0x336e <vfprintf+0x1d4>
    336c:	77 c0       	rjmp	.+238    	; 0x345c <vfprintf+0x2c2>
    336e:	f8 01       	movw	r30, r16
    3370:	37 fe       	sbrs	r3, 7
    3372:	6b c0       	rjmp	.+214    	; 0x344a <vfprintf+0x2b0>
    3374:	60 81       	ld	r22, Z
    3376:	71 81       	ldd	r23, Z+1	; 0x01
    3378:	82 81       	ldd	r24, Z+2	; 0x02
    337a:	93 81       	ldd	r25, Z+3	; 0x03
    337c:	0c 5f       	subi	r16, 0xFC	; 252
    337e:	1f 4f       	sbci	r17, 0xFF	; 255
    3380:	f3 2d       	mov	r31, r3
    3382:	ff 76       	andi	r31, 0x6F	; 111
    3384:	3f 2e       	mov	r3, r31
    3386:	97 ff       	sbrs	r25, 7
    3388:	09 c0       	rjmp	.+18     	; 0x339c <vfprintf+0x202>
    338a:	90 95       	com	r25
    338c:	80 95       	com	r24
    338e:	70 95       	com	r23
    3390:	61 95       	neg	r22
    3392:	7f 4f       	sbci	r23, 0xFF	; 255
    3394:	8f 4f       	sbci	r24, 0xFF	; 255
    3396:	9f 4f       	sbci	r25, 0xFF	; 255
    3398:	68 94       	set
    339a:	37 f8       	bld	r3, 7
    339c:	2a e0       	ldi	r18, 0x0A	; 10
    339e:	30 e0       	ldi	r19, 0x00	; 0
    33a0:	a5 01       	movw	r20, r10
    33a2:	0e 94 95 1e 	call	0x3d2a	; 0x3d2a <__ultoa_invert>
    33a6:	c8 2e       	mov	r12, r24
    33a8:	ca 18       	sub	r12, r10
    33aa:	8c 2c       	mov	r8, r12
    33ac:	43 2c       	mov	r4, r3
    33ae:	36 fe       	sbrs	r3, 6
    33b0:	0c c0       	rjmp	.+24     	; 0x33ca <vfprintf+0x230>
    33b2:	e8 94       	clt
    33b4:	40 f8       	bld	r4, 0
    33b6:	c9 14       	cp	r12, r9
    33b8:	40 f4       	brcc	.+16     	; 0x33ca <vfprintf+0x230>
    33ba:	34 fe       	sbrs	r3, 4
    33bc:	05 c0       	rjmp	.+10     	; 0x33c8 <vfprintf+0x22e>
    33be:	32 fc       	sbrc	r3, 2
    33c0:	03 c0       	rjmp	.+6      	; 0x33c8 <vfprintf+0x22e>
    33c2:	f3 2d       	mov	r31, r3
    33c4:	fe 7e       	andi	r31, 0xEE	; 238
    33c6:	4f 2e       	mov	r4, r31
    33c8:	89 2c       	mov	r8, r9
    33ca:	44 fe       	sbrs	r4, 4
    33cc:	95 c0       	rjmp	.+298    	; 0x34f8 <vfprintf+0x35e>
    33ce:	fe 01       	movw	r30, r28
    33d0:	ec 0d       	add	r30, r12
    33d2:	f1 1d       	adc	r31, r1
    33d4:	80 81       	ld	r24, Z
    33d6:	80 33       	cpi	r24, 0x30	; 48
    33d8:	09 f0       	breq	.+2      	; 0x33dc <vfprintf+0x242>
    33da:	87 c0       	rjmp	.+270    	; 0x34ea <vfprintf+0x350>
    33dc:	24 2d       	mov	r18, r4
    33de:	29 7e       	andi	r18, 0xE9	; 233
    33e0:	42 2e       	mov	r4, r18
    33e2:	84 2d       	mov	r24, r4
    33e4:	88 70       	andi	r24, 0x08	; 8
    33e6:	58 2e       	mov	r5, r24
    33e8:	43 fc       	sbrc	r4, 3
    33ea:	95 c0       	rjmp	.+298    	; 0x3516 <vfprintf+0x37c>
    33ec:	40 fe       	sbrs	r4, 0
    33ee:	8f c0       	rjmp	.+286    	; 0x350e <vfprintf+0x374>
    33f0:	9c 2c       	mov	r9, r12
    33f2:	82 14       	cp	r8, r2
    33f4:	18 f4       	brcc	.+6      	; 0x33fc <vfprintf+0x262>
    33f6:	2c 0c       	add	r2, r12
    33f8:	92 2c       	mov	r9, r2
    33fa:	98 18       	sub	r9, r8
    33fc:	44 fe       	sbrs	r4, 4
    33fe:	91 c0       	rjmp	.+290    	; 0x3522 <vfprintf+0x388>
    3400:	b7 01       	movw	r22, r14
    3402:	80 e3       	ldi	r24, 0x30	; 48
    3404:	90 e0       	ldi	r25, 0x00	; 0
    3406:	0e 94 65 1e 	call	0x3cca	; 0x3cca <fputc>
    340a:	42 fe       	sbrs	r4, 2
    340c:	09 c0       	rjmp	.+18     	; 0x3420 <vfprintf+0x286>
    340e:	88 e7       	ldi	r24, 0x78	; 120
    3410:	90 e0       	ldi	r25, 0x00	; 0
    3412:	41 fe       	sbrs	r4, 1
    3414:	02 c0       	rjmp	.+4      	; 0x341a <vfprintf+0x280>
    3416:	88 e5       	ldi	r24, 0x58	; 88
    3418:	90 e0       	ldi	r25, 0x00	; 0
    341a:	b7 01       	movw	r22, r14
    341c:	0e 94 65 1e 	call	0x3cca	; 0x3cca <fputc>
    3420:	c9 14       	cp	r12, r9
    3422:	08 f4       	brcc	.+2      	; 0x3426 <vfprintf+0x28c>
    3424:	8a c0       	rjmp	.+276    	; 0x353a <vfprintf+0x3a0>
    3426:	ca 94       	dec	r12
    3428:	d1 2c       	mov	r13, r1
    342a:	9f ef       	ldi	r25, 0xFF	; 255
    342c:	c9 1a       	sub	r12, r25
    342e:	d9 0a       	sbc	r13, r25
    3430:	ca 0c       	add	r12, r10
    3432:	db 1c       	adc	r13, r11
    3434:	f6 01       	movw	r30, r12
    3436:	82 91       	ld	r24, -Z
    3438:	6f 01       	movw	r12, r30
    343a:	b7 01       	movw	r22, r14
    343c:	90 e0       	ldi	r25, 0x00	; 0
    343e:	0e 94 65 1e 	call	0x3cca	; 0x3cca <fputc>
    3442:	ac 14       	cp	r10, r12
    3444:	bd 04       	cpc	r11, r13
    3446:	b1 f7       	brne	.-20     	; 0x3434 <vfprintf+0x29a>
    3448:	4f cf       	rjmp	.-354    	; 0x32e8 <vfprintf+0x14e>
    344a:	60 81       	ld	r22, Z
    344c:	71 81       	ldd	r23, Z+1	; 0x01
    344e:	07 2e       	mov	r0, r23
    3450:	00 0c       	add	r0, r0
    3452:	88 0b       	sbc	r24, r24
    3454:	99 0b       	sbc	r25, r25
    3456:	0e 5f       	subi	r16, 0xFE	; 254
    3458:	1f 4f       	sbci	r17, 0xFF	; 255
    345a:	92 cf       	rjmp	.-220    	; 0x3380 <vfprintf+0x1e6>
    345c:	d3 2c       	mov	r13, r3
    345e:	e8 94       	clt
    3460:	d4 f8       	bld	r13, 4
    3462:	2a e0       	ldi	r18, 0x0A	; 10
    3464:	30 e0       	ldi	r19, 0x00	; 0
    3466:	85 37       	cpi	r24, 0x75	; 117
    3468:	39 f1       	breq	.+78     	; 0x34b8 <vfprintf+0x31e>
    346a:	23 2d       	mov	r18, r3
    346c:	29 7f       	andi	r18, 0xF9	; 249
    346e:	d2 2e       	mov	r13, r18
    3470:	8f 36       	cpi	r24, 0x6F	; 111
    3472:	01 f1       	breq	.+64     	; 0x34b4 <vfprintf+0x31a>
    3474:	48 f4       	brcc	.+18     	; 0x3488 <vfprintf+0x2ee>
    3476:	88 35       	cpi	r24, 0x58	; 88
    3478:	a9 f0       	breq	.+42     	; 0x34a4 <vfprintf+0x30a>
    347a:	f7 01       	movw	r30, r14
    347c:	86 81       	ldd	r24, Z+6	; 0x06
    347e:	97 81       	ldd	r25, Z+7	; 0x07
    3480:	2b 96       	adiw	r28, 0x0b	; 11
    3482:	e2 e1       	ldi	r30, 0x12	; 18
    3484:	0c 94 41 20 	jmp	0x4082	; 0x4082 <__epilogue_restores__>
    3488:	80 37       	cpi	r24, 0x70	; 112
    348a:	49 f0       	breq	.+18     	; 0x349e <vfprintf+0x304>
    348c:	88 37       	cpi	r24, 0x78	; 120
    348e:	a9 f7       	brne	.-22     	; 0x347a <vfprintf+0x2e0>
    3490:	d4 fe       	sbrs	r13, 4
    3492:	02 c0       	rjmp	.+4      	; 0x3498 <vfprintf+0x2fe>
    3494:	68 94       	set
    3496:	d2 f8       	bld	r13, 2
    3498:	20 e1       	ldi	r18, 0x10	; 16
    349a:	30 e0       	ldi	r19, 0x00	; 0
    349c:	0d c0       	rjmp	.+26     	; 0x34b8 <vfprintf+0x31e>
    349e:	68 94       	set
    34a0:	d4 f8       	bld	r13, 4
    34a2:	f6 cf       	rjmp	.-20     	; 0x3490 <vfprintf+0x2f6>
    34a4:	34 fe       	sbrs	r3, 4
    34a6:	03 c0       	rjmp	.+6      	; 0x34ae <vfprintf+0x314>
    34a8:	82 2f       	mov	r24, r18
    34aa:	86 60       	ori	r24, 0x06	; 6
    34ac:	d8 2e       	mov	r13, r24
    34ae:	20 e1       	ldi	r18, 0x10	; 16
    34b0:	32 e0       	ldi	r19, 0x02	; 2
    34b2:	02 c0       	rjmp	.+4      	; 0x34b8 <vfprintf+0x31e>
    34b4:	28 e0       	ldi	r18, 0x08	; 8
    34b6:	30 e0       	ldi	r19, 0x00	; 0
    34b8:	f8 01       	movw	r30, r16
    34ba:	d7 fe       	sbrs	r13, 7
    34bc:	0f c0       	rjmp	.+30     	; 0x34dc <vfprintf+0x342>
    34be:	60 81       	ld	r22, Z
    34c0:	71 81       	ldd	r23, Z+1	; 0x01
    34c2:	82 81       	ldd	r24, Z+2	; 0x02
    34c4:	93 81       	ldd	r25, Z+3	; 0x03
    34c6:	0c 5f       	subi	r16, 0xFC	; 252
    34c8:	1f 4f       	sbci	r17, 0xFF	; 255
    34ca:	a5 01       	movw	r20, r10
    34cc:	0e 94 95 1e 	call	0x3d2a	; 0x3d2a <__ultoa_invert>
    34d0:	c8 2e       	mov	r12, r24
    34d2:	ca 18       	sub	r12, r10
    34d4:	3d 2c       	mov	r3, r13
    34d6:	e8 94       	clt
    34d8:	37 f8       	bld	r3, 7
    34da:	67 cf       	rjmp	.-306    	; 0x33aa <vfprintf+0x210>
    34dc:	60 81       	ld	r22, Z
    34de:	71 81       	ldd	r23, Z+1	; 0x01
    34e0:	90 e0       	ldi	r25, 0x00	; 0
    34e2:	80 e0       	ldi	r24, 0x00	; 0
    34e4:	0e 5f       	subi	r16, 0xFE	; 254
    34e6:	1f 4f       	sbci	r17, 0xFF	; 255
    34e8:	f0 cf       	rjmp	.-32     	; 0x34ca <vfprintf+0x330>
    34ea:	42 fc       	sbrc	r4, 2
    34ec:	02 c0       	rjmp	.+4      	; 0x34f2 <vfprintf+0x358>
    34ee:	83 94       	inc	r8
    34f0:	78 cf       	rjmp	.-272    	; 0x33e2 <vfprintf+0x248>
    34f2:	83 94       	inc	r8
    34f4:	83 94       	inc	r8
    34f6:	75 cf       	rjmp	.-278    	; 0x33e2 <vfprintf+0x248>
    34f8:	84 2d       	mov	r24, r4
    34fa:	86 78       	andi	r24, 0x86	; 134
    34fc:	09 f4       	brne	.+2      	; 0x3500 <vfprintf+0x366>
    34fe:	71 cf       	rjmp	.-286    	; 0x33e2 <vfprintf+0x248>
    3500:	f6 cf       	rjmp	.-20     	; 0x34ee <vfprintf+0x354>
    3502:	b7 01       	movw	r22, r14
    3504:	80 e2       	ldi	r24, 0x20	; 32
    3506:	90 e0       	ldi	r25, 0x00	; 0
    3508:	0e 94 65 1e 	call	0x3cca	; 0x3cca <fputc>
    350c:	83 94       	inc	r8
    350e:	82 14       	cp	r8, r2
    3510:	c0 f3       	brcs	.-16     	; 0x3502 <vfprintf+0x368>
    3512:	51 2c       	mov	r5, r1
    3514:	73 cf       	rjmp	.-282    	; 0x33fc <vfprintf+0x262>
    3516:	52 2c       	mov	r5, r2
    3518:	58 18       	sub	r5, r8
    351a:	82 14       	cp	r8, r2
    351c:	08 f4       	brcc	.+2      	; 0x3520 <vfprintf+0x386>
    351e:	6e cf       	rjmp	.-292    	; 0x33fc <vfprintf+0x262>
    3520:	f8 cf       	rjmp	.-16     	; 0x3512 <vfprintf+0x378>
    3522:	84 2d       	mov	r24, r4
    3524:	86 78       	andi	r24, 0x86	; 134
    3526:	09 f4       	brne	.+2      	; 0x352a <vfprintf+0x390>
    3528:	7b cf       	rjmp	.-266    	; 0x3420 <vfprintf+0x286>
    352a:	8b e2       	ldi	r24, 0x2B	; 43
    352c:	41 fe       	sbrs	r4, 1
    352e:	80 e2       	ldi	r24, 0x20	; 32
    3530:	47 fc       	sbrc	r4, 7
    3532:	8d e2       	ldi	r24, 0x2D	; 45
    3534:	b7 01       	movw	r22, r14
    3536:	90 e0       	ldi	r25, 0x00	; 0
    3538:	71 cf       	rjmp	.-286    	; 0x341c <vfprintf+0x282>
    353a:	b7 01       	movw	r22, r14
    353c:	80 e3       	ldi	r24, 0x30	; 48
    353e:	90 e0       	ldi	r25, 0x00	; 0
    3540:	0e 94 65 1e 	call	0x3cca	; 0x3cca <fputc>
    3544:	9a 94       	dec	r9
    3546:	6c cf       	rjmp	.-296    	; 0x3420 <vfprintf+0x286>
    3548:	8f ef       	ldi	r24, 0xFF	; 255
    354a:	9f ef       	ldi	r25, 0xFF	; 255
    354c:	99 cf       	rjmp	.-206    	; 0x3480 <vfprintf+0x2e6>

0000354e <dtoa_prf>:
dtoa_prf():
    354e:	a9 e0       	ldi	r26, 0x09	; 9
    3550:	b0 e0       	ldi	r27, 0x00	; 0
    3552:	ed ea       	ldi	r30, 0xAD	; 173
    3554:	fa e1       	ldi	r31, 0x1A	; 26
    3556:	0c 94 2b 20 	jmp	0x4056	; 0x4056 <__prologue_saves__+0xc>
    355a:	6a 01       	movw	r12, r20
    355c:	f2 2e       	mov	r15, r18
    355e:	b0 2e       	mov	r11, r16
    3560:	10 2f       	mov	r17, r16
    3562:	fb e3       	ldi	r31, 0x3B	; 59
    3564:	af 2e       	mov	r10, r31
    3566:	a0 16       	cp	r10, r16
    3568:	08 f4       	brcc	.+2      	; 0x356c <dtoa_prf+0x1e>
    356a:	1b e3       	ldi	r17, 0x3B	; 59
    356c:	1f 5f       	subi	r17, 0xFF	; 255
    356e:	01 2f       	mov	r16, r17
    3570:	27 e0       	ldi	r18, 0x07	; 7
    3572:	ae 01       	movw	r20, r28
    3574:	4f 5f       	subi	r20, 0xFF	; 255
    3576:	5f 4f       	sbci	r21, 0xFF	; 255
    3578:	0e 94 56 1d 	call	0x3aac	; 0x3aac <__ftoa_engine>
    357c:	bc 01       	movw	r22, r24
    357e:	89 81       	ldd	r24, Y+1	; 0x01
    3580:	98 2f       	mov	r25, r24
    3582:	99 70       	andi	r25, 0x09	; 9
    3584:	91 30       	cpi	r25, 0x01	; 1
    3586:	09 f4       	brne	.+2      	; 0x358a <dtoa_prf+0x3c>
    3588:	3f c0       	rjmp	.+126    	; 0x3608 <dtoa_prf+0xba>
    358a:	9b e2       	ldi	r25, 0x2B	; 43
    358c:	e1 fc       	sbrc	r14, 1
    358e:	04 c0       	rjmp	.+8      	; 0x3598 <dtoa_prf+0x4a>
    3590:	9e 2d       	mov	r25, r14
    3592:	91 70       	andi	r25, 0x01	; 1
    3594:	e0 fc       	sbrc	r14, 0
    3596:	3a c0       	rjmp	.+116    	; 0x360c <dtoa_prf+0xbe>
    3598:	5e 2d       	mov	r21, r14
    359a:	50 71       	andi	r21, 0x10	; 16
    359c:	e8 2f       	mov	r30, r24
    359e:	e8 70       	andi	r30, 0x08	; 8
    35a0:	83 ff       	sbrs	r24, 3
    35a2:	46 c0       	rjmp	.+140    	; 0x3630 <dtoa_prf+0xe2>
    35a4:	84 e0       	ldi	r24, 0x04	; 4
    35a6:	91 11       	cpse	r25, r1
    35a8:	01 c0       	rjmp	.+2      	; 0x35ac <dtoa_prf+0x5e>
    35aa:	83 e0       	ldi	r24, 0x03	; 3
    35ac:	ef 2d       	mov	r30, r15
    35ae:	e8 1b       	sub	r30, r24
    35b0:	8f 15       	cp	r24, r15
    35b2:	08 f0       	brcs	.+2      	; 0x35b6 <dtoa_prf+0x68>
    35b4:	e0 e0       	ldi	r30, 0x00	; 0
    35b6:	d6 01       	movw	r26, r12
    35b8:	8e 2f       	mov	r24, r30
    35ba:	20 e2       	ldi	r18, 0x20	; 32
    35bc:	55 23       	and	r21, r21
    35be:	51 f1       	breq	.+84     	; 0x3614 <dtoa_prf+0xc6>
    35c0:	99 23       	and	r25, r25
    35c2:	29 f0       	breq	.+10     	; 0x35ce <dtoa_prf+0x80>
    35c4:	d6 01       	movw	r26, r12
    35c6:	9c 93       	st	X, r25
    35c8:	c6 01       	movw	r24, r12
    35ca:	01 96       	adiw	r24, 0x01	; 1
    35cc:	6c 01       	movw	r12, r24
    35ce:	96 01       	movw	r18, r12
    35d0:	2d 5f       	subi	r18, 0xFD	; 253
    35d2:	3f 4f       	sbci	r19, 0xFF	; 255
    35d4:	e2 fe       	sbrs	r14, 2
    35d6:	24 c0       	rjmp	.+72     	; 0x3620 <dtoa_prf+0xd2>
    35d8:	8e e4       	ldi	r24, 0x4E	; 78
    35da:	d6 01       	movw	r26, r12
    35dc:	8c 93       	st	X, r24
    35de:	91 e4       	ldi	r25, 0x41	; 65
    35e0:	11 96       	adiw	r26, 0x01	; 1
    35e2:	9c 93       	st	X, r25
    35e4:	11 97       	sbiw	r26, 0x01	; 1
    35e6:	12 96       	adiw	r26, 0x02	; 2
    35e8:	8c 93       	st	X, r24
    35ea:	d9 01       	movw	r26, r18
    35ec:	8e 2f       	mov	r24, r30
    35ee:	90 e2       	ldi	r25, 0x20	; 32
    35f0:	81 11       	cpse	r24, r1
    35f2:	1b c0       	rjmp	.+54     	; 0x362a <dtoa_prf+0xdc>
    35f4:	e2 0f       	add	r30, r18
    35f6:	f3 2f       	mov	r31, r19
    35f8:	f1 1d       	adc	r31, r1
    35fa:	10 82       	st	Z, r1
    35fc:	8e ef       	ldi	r24, 0xFE	; 254
    35fe:	9f ef       	ldi	r25, 0xFF	; 255
    3600:	29 96       	adiw	r28, 0x09	; 9
    3602:	ec e0       	ldi	r30, 0x0C	; 12
    3604:	0c 94 47 20 	jmp	0x408e	; 0x408e <__epilogue_restores__+0xc>
    3608:	9d e2       	ldi	r25, 0x2D	; 45
    360a:	c6 cf       	rjmp	.-116    	; 0x3598 <dtoa_prf+0x4a>
    360c:	90 e2       	ldi	r25, 0x20	; 32
    360e:	c4 cf       	rjmp	.-120    	; 0x3598 <dtoa_prf+0x4a>
    3610:	2d 93       	st	X+, r18
    3612:	81 50       	subi	r24, 0x01	; 1
    3614:	81 11       	cpse	r24, r1
    3616:	fc cf       	rjmp	.-8      	; 0x3610 <dtoa_prf+0xc2>
    3618:	ce 0e       	add	r12, r30
    361a:	d1 1c       	adc	r13, r1
    361c:	e0 e0       	ldi	r30, 0x00	; 0
    361e:	d0 cf       	rjmp	.-96     	; 0x35c0 <dtoa_prf+0x72>
    3620:	8e e6       	ldi	r24, 0x6E	; 110
    3622:	d6 01       	movw	r26, r12
    3624:	8c 93       	st	X, r24
    3626:	91 e6       	ldi	r25, 0x61	; 97
    3628:	db cf       	rjmp	.-74     	; 0x35e0 <dtoa_prf+0x92>
    362a:	9d 93       	st	X+, r25
    362c:	81 50       	subi	r24, 0x01	; 1
    362e:	e0 cf       	rjmp	.-64     	; 0x35f0 <dtoa_prf+0xa2>
    3630:	48 2f       	mov	r20, r24
    3632:	44 70       	andi	r20, 0x04	; 4
    3634:	82 ff       	sbrs	r24, 2
    3636:	3d c0       	rjmp	.+122    	; 0x36b2 <dtoa_prf+0x164>
    3638:	84 e0       	ldi	r24, 0x04	; 4
    363a:	91 11       	cpse	r25, r1
    363c:	01 c0       	rjmp	.+2      	; 0x3640 <dtoa_prf+0xf2>
    363e:	83 e0       	ldi	r24, 0x03	; 3
    3640:	8f 15       	cp	r24, r15
    3642:	10 f4       	brcc	.+4      	; 0x3648 <dtoa_prf+0xfa>
    3644:	ef 2d       	mov	r30, r15
    3646:	e8 1b       	sub	r30, r24
    3648:	d6 01       	movw	r26, r12
    364a:	8e 2f       	mov	r24, r30
    364c:	20 e2       	ldi	r18, 0x20	; 32
    364e:	55 23       	and	r21, r21
    3650:	09 f1       	breq	.+66     	; 0x3694 <dtoa_prf+0x146>
    3652:	99 23       	and	r25, r25
    3654:	29 f0       	breq	.+10     	; 0x3660 <dtoa_prf+0x112>
    3656:	d6 01       	movw	r26, r12
    3658:	9c 93       	st	X, r25
    365a:	c6 01       	movw	r24, r12
    365c:	01 96       	adiw	r24, 0x01	; 1
    365e:	6c 01       	movw	r12, r24
    3660:	96 01       	movw	r18, r12
    3662:	2d 5f       	subi	r18, 0xFD	; 253
    3664:	3f 4f       	sbci	r19, 0xFF	; 255
    3666:	e2 fe       	sbrs	r14, 2
    3668:	1b c0       	rjmp	.+54     	; 0x36a0 <dtoa_prf+0x152>
    366a:	89 e4       	ldi	r24, 0x49	; 73
    366c:	d6 01       	movw	r26, r12
    366e:	8c 93       	st	X, r24
    3670:	8e e4       	ldi	r24, 0x4E	; 78
    3672:	11 96       	adiw	r26, 0x01	; 1
    3674:	8c 93       	st	X, r24
    3676:	11 97       	sbiw	r26, 0x01	; 1
    3678:	86 e4       	ldi	r24, 0x46	; 70
    367a:	12 96       	adiw	r26, 0x02	; 2
    367c:	8c 93       	st	X, r24
    367e:	d9 01       	movw	r26, r18
    3680:	8e 2f       	mov	r24, r30
    3682:	90 e2       	ldi	r25, 0x20	; 32
    3684:	88 23       	and	r24, r24
    3686:	09 f4       	brne	.+2      	; 0x368a <dtoa_prf+0x13c>
    3688:	b5 cf       	rjmp	.-150    	; 0x35f4 <dtoa_prf+0xa6>
    368a:	9d 93       	st	X+, r25
    368c:	81 50       	subi	r24, 0x01	; 1
    368e:	fa cf       	rjmp	.-12     	; 0x3684 <dtoa_prf+0x136>
    3690:	2d 93       	st	X+, r18
    3692:	81 50       	subi	r24, 0x01	; 1
    3694:	81 11       	cpse	r24, r1
    3696:	fc cf       	rjmp	.-8      	; 0x3690 <dtoa_prf+0x142>
    3698:	ce 0e       	add	r12, r30
    369a:	d1 1c       	adc	r13, r1
    369c:	e0 e0       	ldi	r30, 0x00	; 0
    369e:	d9 cf       	rjmp	.-78     	; 0x3652 <dtoa_prf+0x104>
    36a0:	89 e6       	ldi	r24, 0x69	; 105
    36a2:	d6 01       	movw	r26, r12
    36a4:	8c 93       	st	X, r24
    36a6:	8e e6       	ldi	r24, 0x6E	; 110
    36a8:	11 96       	adiw	r26, 0x01	; 1
    36aa:	8c 93       	st	X, r24
    36ac:	11 97       	sbiw	r26, 0x01	; 1
    36ae:	86 e6       	ldi	r24, 0x66	; 102
    36b0:	e4 cf       	rjmp	.-56     	; 0x367a <dtoa_prf+0x12c>
    36b2:	9b 01       	movw	r18, r22
    36b4:	77 ff       	sbrs	r23, 7
    36b6:	02 c0       	rjmp	.+4      	; 0x36bc <dtoa_prf+0x16e>
    36b8:	30 e0       	ldi	r19, 0x00	; 0
    36ba:	20 e0       	ldi	r18, 0x00	; 0
    36bc:	a1 e0       	ldi	r26, 0x01	; 1
    36be:	b0 e0       	ldi	r27, 0x00	; 0
    36c0:	91 11       	cpse	r25, r1
    36c2:	02 c0       	rjmp	.+4      	; 0x36c8 <dtoa_prf+0x17a>
    36c4:	b0 e0       	ldi	r27, 0x00	; 0
    36c6:	a0 e0       	ldi	r26, 0x00	; 0
    36c8:	f9 01       	movw	r30, r18
    36ca:	31 96       	adiw	r30, 0x01	; 1
    36cc:	ae 0f       	add	r26, r30
    36ce:	bf 1f       	adc	r27, r31
    36d0:	8b 2c       	mov	r8, r11
    36d2:	91 2c       	mov	r9, r1
    36d4:	bb 20       	and	r11, r11
    36d6:	09 f4       	brne	.+2      	; 0x36da <dtoa_prf+0x18c>
    36d8:	61 c0       	rjmp	.+194    	; 0x379c <dtoa_prf+0x24e>
    36da:	54 01       	movw	r10, r8
    36dc:	ef ef       	ldi	r30, 0xFF	; 255
    36de:	ae 1a       	sub	r10, r30
    36e0:	be 0a       	sbc	r11, r30
    36e2:	aa 0d       	add	r26, r10
    36e4:	bb 1d       	adc	r27, r11
    36e6:	fa 16       	cp	r15, r26
    36e8:	1b 06       	cpc	r1, r27
    36ea:	19 f0       	breq	.+6      	; 0x36f2 <dtoa_prf+0x1a4>
    36ec:	14 f0       	brlt	.+4      	; 0x36f2 <dtoa_prf+0x1a4>
    36ee:	4f 2d       	mov	r20, r15
    36f0:	4a 1b       	sub	r20, r26
    36f2:	51 11       	cpse	r21, r1
    36f4:	88 c0       	rjmp	.+272    	; 0x3806 <dtoa_prf+0x2b8>
    36f6:	e3 fc       	sbrc	r14, 3
    36f8:	59 c0       	rjmp	.+178    	; 0x37ac <dtoa_prf+0x25e>
    36fa:	76 01       	movw	r14, r12
    36fc:	a4 2f       	mov	r26, r20
    36fe:	b0 e2       	ldi	r27, 0x20	; 32
    3700:	a1 11       	cpse	r26, r1
    3702:	4f c0       	rjmp	.+158    	; 0x37a2 <dtoa_prf+0x254>
    3704:	c4 0e       	add	r12, r20
    3706:	d1 1c       	adc	r13, r1
    3708:	99 23       	and	r25, r25
    370a:	09 f4       	brne	.+2      	; 0x370e <dtoa_prf+0x1c0>
    370c:	5b c0       	rjmp	.+182    	; 0x37c4 <dtoa_prf+0x276>
    370e:	40 e0       	ldi	r20, 0x00	; 0
    3710:	d6 01       	movw	r26, r12
    3712:	11 96       	adiw	r26, 0x01	; 1
    3714:	f6 01       	movw	r30, r12
    3716:	90 83       	st	Z, r25
    3718:	6d 01       	movw	r12, r26
    371a:	55 23       	and	r21, r21
    371c:	09 f4       	brne	.+2      	; 0x3720 <dtoa_prf+0x1d2>
    371e:	48 c0       	rjmp	.+144    	; 0x37b0 <dtoa_prf+0x262>
    3720:	01 2f       	mov	r16, r17
    3722:	06 0f       	add	r16, r22
    3724:	9a 81       	ldd	r25, Y+2	; 0x02
    3726:	58 2f       	mov	r21, r24
    3728:	50 71       	andi	r21, 0x10	; 16
    372a:	84 ff       	sbrs	r24, 4
    372c:	03 c0       	rjmp	.+6      	; 0x3734 <dtoa_prf+0x1e6>
    372e:	91 33       	cpi	r25, 0x31	; 49
    3730:	09 f4       	brne	.+2      	; 0x3734 <dtoa_prf+0x1e6>
    3732:	01 50       	subi	r16, 0x01	; 1
    3734:	10 16       	cp	r1, r16
    3736:	0c f0       	brlt	.+2      	; 0x373a <dtoa_prf+0x1ec>
    3738:	47 c0       	rjmp	.+142    	; 0x37c8 <dtoa_prf+0x27a>
    373a:	09 30       	cpi	r16, 0x09	; 9
    373c:	08 f0       	brcs	.+2      	; 0x3740 <dtoa_prf+0x1f2>
    373e:	08 e0       	ldi	r16, 0x08	; 8
    3740:	ee e2       	ldi	r30, 0x2E	; 46
    3742:	fe 2e       	mov	r15, r30
    3744:	5b 01       	movw	r10, r22
    3746:	a0 1a       	sub	r10, r16
    3748:	b1 08       	sbc	r11, r1
    374a:	85 01       	movw	r16, r10
    374c:	91 94       	neg	r9
    374e:	81 94       	neg	r8
    3750:	91 08       	sbc	r9, r1
    3752:	2f 3f       	cpi	r18, 0xFF	; 255
    3754:	32 07       	cpc	r19, r18
    3756:	29 f4       	brne	.+10     	; 0x3762 <dtoa_prf+0x214>
    3758:	d6 01       	movw	r26, r12
    375a:	fc 92       	st	X, r15
    375c:	f6 01       	movw	r30, r12
    375e:	31 96       	adiw	r30, 0x01	; 1
    3760:	6f 01       	movw	r12, r30
    3762:	62 17       	cp	r22, r18
    3764:	73 07       	cpc	r23, r19
    3766:	94 f1       	brlt	.+100    	; 0x37cc <dtoa_prf+0x27e>
    3768:	02 17       	cp	r16, r18
    376a:	13 07       	cpc	r17, r19
    376c:	7c f5       	brge	.+94     	; 0x37cc <dtoa_prf+0x27e>
    376e:	db 01       	movw	r26, r22
    3770:	a2 1b       	sub	r26, r18
    3772:	b3 0b       	sbc	r27, r19
    3774:	aa 24       	eor	r10, r10
    3776:	a3 94       	inc	r10
    3778:	b1 2c       	mov	r11, r1
    377a:	ac 0e       	add	r10, r28
    377c:	bd 1e       	adc	r11, r29
    377e:	aa 0d       	add	r26, r10
    3780:	bb 1d       	adc	r27, r11
    3782:	11 96       	adiw	r26, 0x01	; 1
    3784:	8c 91       	ld	r24, X
    3786:	21 50       	subi	r18, 0x01	; 1
    3788:	31 09       	sbc	r19, r1
    378a:	d6 01       	movw	r26, r12
    378c:	11 96       	adiw	r26, 0x01	; 1
    378e:	28 15       	cp	r18, r8
    3790:	39 05       	cpc	r19, r9
    3792:	f4 f0       	brlt	.+60     	; 0x37d0 <dtoa_prf+0x282>
    3794:	f6 01       	movw	r30, r12
    3796:	80 83       	st	Z, r24
    3798:	6d 01       	movw	r12, r26
    379a:	db cf       	rjmp	.-74     	; 0x3752 <dtoa_prf+0x204>
    379c:	b1 2c       	mov	r11, r1
    379e:	a1 2c       	mov	r10, r1
    37a0:	a0 cf       	rjmp	.-192    	; 0x36e2 <dtoa_prf+0x194>
    37a2:	f7 01       	movw	r30, r14
    37a4:	b1 93       	st	Z+, r27
    37a6:	7f 01       	movw	r14, r30
    37a8:	a1 50       	subi	r26, 0x01	; 1
    37aa:	aa cf       	rjmp	.-172    	; 0x3700 <dtoa_prf+0x1b2>
    37ac:	91 11       	cpse	r25, r1
    37ae:	b0 cf       	rjmp	.-160    	; 0x3710 <dtoa_prf+0x1c2>
    37b0:	d6 01       	movw	r26, r12
    37b2:	94 2f       	mov	r25, r20
    37b4:	50 e3       	ldi	r21, 0x30	; 48
    37b6:	02 c0       	rjmp	.+4      	; 0x37bc <dtoa_prf+0x26e>
    37b8:	5d 93       	st	X+, r21
    37ba:	91 50       	subi	r25, 0x01	; 1
    37bc:	91 11       	cpse	r25, r1
    37be:	fc cf       	rjmp	.-8      	; 0x37b8 <dtoa_prf+0x26a>
    37c0:	c4 0e       	add	r12, r20
    37c2:	d1 1c       	adc	r13, r1
    37c4:	40 e0       	ldi	r20, 0x00	; 0
    37c6:	ac cf       	rjmp	.-168    	; 0x3720 <dtoa_prf+0x1d2>
    37c8:	01 e0       	ldi	r16, 0x01	; 1
    37ca:	ba cf       	rjmp	.-140    	; 0x3740 <dtoa_prf+0x1f2>
    37cc:	80 e3       	ldi	r24, 0x30	; 48
    37ce:	db cf       	rjmp	.-74     	; 0x3786 <dtoa_prf+0x238>
    37d0:	62 17       	cp	r22, r18
    37d2:	73 07       	cpc	r23, r19
    37d4:	31 f4       	brne	.+12     	; 0x37e2 <dtoa_prf+0x294>
    37d6:	96 33       	cpi	r25, 0x36	; 54
    37d8:	88 f4       	brcc	.+34     	; 0x37fc <dtoa_prf+0x2ae>
    37da:	95 33       	cpi	r25, 0x35	; 53
    37dc:	11 f4       	brne	.+4      	; 0x37e2 <dtoa_prf+0x294>
    37de:	55 23       	and	r21, r21
    37e0:	69 f0       	breq	.+26     	; 0x37fc <dtoa_prf+0x2ae>
    37e2:	f6 01       	movw	r30, r12
    37e4:	80 83       	st	Z, r24
    37e6:	fd 01       	movw	r30, r26
    37e8:	84 2f       	mov	r24, r20
    37ea:	90 e2       	ldi	r25, 0x20	; 32
    37ec:	81 11       	cpse	r24, r1
    37ee:	08 c0       	rjmp	.+16     	; 0x3800 <dtoa_prf+0x2b2>
    37f0:	a4 0f       	add	r26, r20
    37f2:	b1 1d       	adc	r27, r1
    37f4:	1c 92       	st	X, r1
    37f6:	90 e0       	ldi	r25, 0x00	; 0
    37f8:	80 e0       	ldi	r24, 0x00	; 0
    37fa:	02 cf       	rjmp	.-508    	; 0x3600 <dtoa_prf+0xb2>
    37fc:	81 e3       	ldi	r24, 0x31	; 49
    37fe:	f1 cf       	rjmp	.-30     	; 0x37e2 <dtoa_prf+0x294>
    3800:	91 93       	st	Z+, r25
    3802:	81 50       	subi	r24, 0x01	; 1
    3804:	f3 cf       	rjmp	.-26     	; 0x37ec <dtoa_prf+0x29e>
    3806:	91 11       	cpse	r25, r1
    3808:	83 cf       	rjmp	.-250    	; 0x3710 <dtoa_prf+0x1c2>
    380a:	8a cf       	rjmp	.-236    	; 0x3720 <dtoa_prf+0x1d2>

0000380c <strtod>:
strtod():
    380c:	b0 e0       	ldi	r27, 0x00	; 0
    380e:	a0 e0       	ldi	r26, 0x00	; 0
    3810:	ec e0       	ldi	r30, 0x0C	; 12
    3812:	fc e1       	ldi	r31, 0x1C	; 28
    3814:	0c 94 2b 20 	jmp	0x4056	; 0x4056 <__prologue_saves__+0xc>
    3818:	5c 01       	movw	r10, r24
    381a:	7b 01       	movw	r14, r22
    381c:	61 15       	cp	r22, r1
    381e:	71 05       	cpc	r23, r1
    3820:	19 f0       	breq	.+6      	; 0x3828 <strtod+0x1c>
    3822:	db 01       	movw	r26, r22
    3824:	8d 93       	st	X+, r24
    3826:	9c 93       	st	X, r25
    3828:	85 01       	movw	r16, r10
    382a:	0f 5f       	subi	r16, 0xFF	; 255
    382c:	1f 4f       	sbci	r17, 0xFF	; 255
    382e:	f5 01       	movw	r30, r10
    3830:	d0 81       	ld	r29, Z
    3832:	8d 2f       	mov	r24, r29
    3834:	90 e0       	ldi	r25, 0x00	; 0
    3836:	0e 94 2e 1e 	call	0x3c5c	; 0x3c5c <isspace>
    383a:	6c 01       	movw	r12, r24
    383c:	89 2b       	or	r24, r25
    383e:	b9 f5       	brne	.+110    	; 0x38ae <strtod+0xa2>
    3840:	dd 32       	cpi	r29, 0x2D	; 45
    3842:	b9 f5       	brne	.+110    	; 0x38b2 <strtod+0xa6>
    3844:	0f 5f       	subi	r16, 0xFF	; 255
    3846:	1f 4f       	sbci	r17, 0xFF	; 255
    3848:	d5 01       	movw	r26, r10
    384a:	11 96       	adiw	r26, 0x01	; 1
    384c:	dc 91       	ld	r29, X
    384e:	c1 e0       	ldi	r28, 0x01	; 1
    3850:	58 01       	movw	r10, r16
    3852:	f1 e0       	ldi	r31, 0x01	; 1
    3854:	af 1a       	sub	r10, r31
    3856:	b1 08       	sbc	r11, r1
    3858:	43 e0       	ldi	r20, 0x03	; 3
    385a:	50 e0       	ldi	r21, 0x00	; 0
    385c:	6c eb       	ldi	r22, 0xBC	; 188
    385e:	70 e0       	ldi	r23, 0x00	; 0
    3860:	c5 01       	movw	r24, r10
    3862:	0e 94 37 1e 	call	0x3c6e	; 0x3c6e <strncasecmp_P>
    3866:	89 2b       	or	r24, r25
    3868:	69 f5       	brne	.+90     	; 0x38c4 <strtod+0xb8>
    386a:	68 01       	movw	r12, r16
    386c:	82 e0       	ldi	r24, 0x02	; 2
    386e:	c8 0e       	add	r12, r24
    3870:	d1 1c       	adc	r13, r1
    3872:	45 e0       	ldi	r20, 0x05	; 5
    3874:	50 e0       	ldi	r21, 0x00	; 0
    3876:	67 eb       	ldi	r22, 0xB7	; 183
    3878:	70 e0       	ldi	r23, 0x00	; 0
    387a:	c6 01       	movw	r24, r12
    387c:	0e 94 37 1e 	call	0x3c6e	; 0x3c6e <strncasecmp_P>
    3880:	89 2b       	or	r24, r25
    3882:	21 f4       	brne	.+8      	; 0x388c <strtod+0x80>
    3884:	68 01       	movw	r12, r16
    3886:	97 e0       	ldi	r25, 0x07	; 7
    3888:	c9 0e       	add	r12, r25
    388a:	d1 1c       	adc	r13, r1
    388c:	e1 14       	cp	r14, r1
    388e:	f1 04       	cpc	r15, r1
    3890:	19 f0       	breq	.+6      	; 0x3898 <strtod+0x8c>
    3892:	d7 01       	movw	r26, r14
    3894:	cd 92       	st	X+, r12
    3896:	dc 92       	st	X, r13
    3898:	60 e0       	ldi	r22, 0x00	; 0
    389a:	70 e0       	ldi	r23, 0x00	; 0
    389c:	80 e8       	ldi	r24, 0x80	; 128
    389e:	9f ef       	ldi	r25, 0xFF	; 255
    38a0:	c1 11       	cpse	r28, r1
    38a2:	ff c0       	rjmp	.+510    	; 0x3aa2 <strtod+0x296>
    38a4:	60 e0       	ldi	r22, 0x00	; 0
    38a6:	70 e0       	ldi	r23, 0x00	; 0
    38a8:	80 e8       	ldi	r24, 0x80	; 128
    38aa:	9f e7       	ldi	r25, 0x7F	; 127
    38ac:	fa c0       	rjmp	.+500    	; 0x3aa2 <strtod+0x296>
    38ae:	58 01       	movw	r10, r16
    38b0:	bb cf       	rjmp	.-138    	; 0x3828 <strtod+0x1c>
    38b2:	db 32       	cpi	r29, 0x2B	; 43
    38b4:	29 f4       	brne	.+10     	; 0x38c0 <strtod+0xb4>
    38b6:	85 01       	movw	r16, r10
    38b8:	0e 5f       	subi	r16, 0xFE	; 254
    38ba:	1f 4f       	sbci	r17, 0xFF	; 255
    38bc:	f5 01       	movw	r30, r10
    38be:	d1 81       	ldd	r29, Z+1	; 0x01
    38c0:	c0 e0       	ldi	r28, 0x00	; 0
    38c2:	c6 cf       	rjmp	.-116    	; 0x3850 <strtod+0x44>
    38c4:	43 e0       	ldi	r20, 0x03	; 3
    38c6:	50 e0       	ldi	r21, 0x00	; 0
    38c8:	64 eb       	ldi	r22, 0xB4	; 180
    38ca:	70 e0       	ldi	r23, 0x00	; 0
    38cc:	c5 01       	movw	r24, r10
    38ce:	0e 94 37 1e 	call	0x3c6e	; 0x3c6e <strncasecmp_P>
    38d2:	89 2b       	or	r24, r25
    38d4:	e9 f0       	breq	.+58     	; 0x3910 <strtod+0x104>
    38d6:	f8 01       	movw	r30, r16
    38d8:	10 e0       	ldi	r17, 0x00	; 0
    38da:	00 e0       	ldi	r16, 0x00	; 0
    38dc:	20 e0       	ldi	r18, 0x00	; 0
    38de:	30 e0       	ldi	r19, 0x00	; 0
    38e0:	a9 01       	movw	r20, r18
    38e2:	5f 01       	movw	r10, r30
    38e4:	b0 ed       	ldi	r27, 0xD0	; 208
    38e6:	8b 2e       	mov	r8, r27
    38e8:	8d 0e       	add	r8, r29
    38ea:	89 e0       	ldi	r24, 0x09	; 9
    38ec:	88 15       	cp	r24, r8
    38ee:	c8 f1       	brcs	.+114    	; 0x3962 <strtod+0x156>
    38f0:	9c 2e       	mov	r9, r28
    38f2:	68 94       	set
    38f4:	91 f8       	bld	r9, 1
    38f6:	8c 2f       	mov	r24, r28
    38f8:	88 70       	andi	r24, 0x08	; 8
    38fa:	c2 ff       	sbrs	r28, 2
    38fc:	16 c0       	rjmp	.+44     	; 0x392a <strtod+0x11e>
    38fe:	81 11       	cpse	r24, r1
    3900:	02 c0       	rjmp	.+4      	; 0x3906 <strtod+0xfa>
    3902:	0f 5f       	subi	r16, 0xFF	; 255
    3904:	1f 4f       	sbci	r17, 0xFF	; 255
    3906:	31 96       	adiw	r30, 0x01	; 1
    3908:	d5 01       	movw	r26, r10
    390a:	dc 91       	ld	r29, X
    390c:	c9 2d       	mov	r28, r9
    390e:	e9 cf       	rjmp	.-46     	; 0x38e2 <strtod+0xd6>
    3910:	e1 14       	cp	r14, r1
    3912:	f1 04       	cpc	r15, r1
    3914:	29 f0       	breq	.+10     	; 0x3920 <strtod+0x114>
    3916:	0e 5f       	subi	r16, 0xFE	; 254
    3918:	1f 4f       	sbci	r17, 0xFF	; 255
    391a:	f7 01       	movw	r30, r14
    391c:	11 83       	std	Z+1, r17	; 0x01
    391e:	00 83       	st	Z, r16
    3920:	60 e0       	ldi	r22, 0x00	; 0
    3922:	70 e0       	ldi	r23, 0x00	; 0
    3924:	80 ec       	ldi	r24, 0xC0	; 192
    3926:	9f e7       	ldi	r25, 0x7F	; 127
    3928:	bc c0       	rjmp	.+376    	; 0x3aa2 <strtod+0x296>
    392a:	88 23       	and	r24, r24
    392c:	11 f0       	breq	.+4      	; 0x3932 <strtod+0x126>
    392e:	01 50       	subi	r16, 0x01	; 1
    3930:	11 09       	sbc	r17, r1
    3932:	a5 e0       	ldi	r26, 0x05	; 5
    3934:	b0 e0       	ldi	r27, 0x00	; 0
    3936:	0e 94 1a 20 	call	0x4034	; 0x4034 <__muluhisi3>
    393a:	9b 01       	movw	r18, r22
    393c:	ac 01       	movw	r20, r24
    393e:	22 0f       	add	r18, r18
    3940:	33 1f       	adc	r19, r19
    3942:	44 1f       	adc	r20, r20
    3944:	55 1f       	adc	r21, r21
    3946:	28 0d       	add	r18, r8
    3948:	31 1d       	adc	r19, r1
    394a:	41 1d       	adc	r20, r1
    394c:	51 1d       	adc	r21, r1
    394e:	28 39       	cpi	r18, 0x98	; 152
    3950:	99 e9       	ldi	r25, 0x99	; 153
    3952:	39 07       	cpc	r19, r25
    3954:	49 07       	cpc	r20, r25
    3956:	99 e1       	ldi	r25, 0x19	; 25
    3958:	59 07       	cpc	r21, r25
    395a:	a8 f2       	brcs	.-86     	; 0x3906 <strtod+0xfa>
    395c:	c6 60       	ori	r28, 0x06	; 6
    395e:	9c 2e       	mov	r9, r28
    3960:	d2 cf       	rjmp	.-92     	; 0x3906 <strtod+0xfa>
    3962:	ae ef       	ldi	r26, 0xFE	; 254
    3964:	8a 12       	cpse	r8, r26
    3966:	06 c0       	rjmp	.+12     	; 0x3974 <strtod+0x168>
    3968:	c3 fd       	sbrc	r28, 3
    396a:	3c c0       	rjmp	.+120    	; 0x39e4 <strtod+0x1d8>
    396c:	9c 2e       	mov	r9, r28
    396e:	68 94       	set
    3970:	93 f8       	bld	r9, 3
    3972:	c9 cf       	rjmp	.-110    	; 0x3906 <strtod+0xfa>
    3974:	df 7d       	andi	r29, 0xDF	; 223
    3976:	d5 34       	cpi	r29, 0x45	; 69
    3978:	a9 f5       	brne	.+106    	; 0x39e4 <strtod+0x1d8>
    397a:	80 81       	ld	r24, Z
    397c:	8d 32       	cpi	r24, 0x2D	; 45
    397e:	39 f4       	brne	.+14     	; 0x398e <strtod+0x182>
    3980:	c0 61       	ori	r28, 0x10	; 16
    3982:	df 01       	movw	r26, r30
    3984:	12 96       	adiw	r26, 0x02	; 2
    3986:	81 81       	ldd	r24, Z+1	; 0x01
    3988:	62 e0       	ldi	r22, 0x02	; 2
    398a:	70 e0       	ldi	r23, 0x00	; 0
    398c:	06 c0       	rjmp	.+12     	; 0x399a <strtod+0x18e>
    398e:	df 01       	movw	r26, r30
    3990:	8b 32       	cpi	r24, 0x2B	; 43
    3992:	c1 f3       	breq	.-16     	; 0x3984 <strtod+0x178>
    3994:	11 96       	adiw	r26, 0x01	; 1
    3996:	61 e0       	ldi	r22, 0x01	; 1
    3998:	70 e0       	ldi	r23, 0x00	; 0
    399a:	80 53       	subi	r24, 0x30	; 48
    399c:	5d 01       	movw	r10, r26
    399e:	a6 1a       	sub	r10, r22
    39a0:	b7 0a       	sbc	r11, r23
    39a2:	8a 30       	cpi	r24, 0x0A	; 10
    39a4:	f8 f4       	brcc	.+62     	; 0x39e4 <strtod+0x1d8>
    39a6:	e0 e8       	ldi	r30, 0x80	; 128
    39a8:	ce 16       	cp	r12, r30
    39aa:	ec e0       	ldi	r30, 0x0C	; 12
    39ac:	de 06       	cpc	r13, r30
    39ae:	5c f4       	brge	.+22     	; 0x39c6 <strtod+0x1ba>
    39b0:	b6 01       	movw	r22, r12
    39b2:	66 0f       	add	r22, r22
    39b4:	77 1f       	adc	r23, r23
    39b6:	66 0f       	add	r22, r22
    39b8:	77 1f       	adc	r23, r23
    39ba:	c6 0e       	add	r12, r22
    39bc:	d7 1e       	adc	r13, r23
    39be:	cc 0c       	add	r12, r12
    39c0:	dd 1c       	adc	r13, r13
    39c2:	c8 0e       	add	r12, r24
    39c4:	d1 1c       	adc	r13, r1
    39c6:	5d 01       	movw	r10, r26
    39c8:	ff ef       	ldi	r31, 0xFF	; 255
    39ca:	af 1a       	sub	r10, r31
    39cc:	bf 0a       	sbc	r11, r31
    39ce:	8c 91       	ld	r24, X
    39d0:	80 53       	subi	r24, 0x30	; 48
    39d2:	8a 30       	cpi	r24, 0x0A	; 10
    39d4:	a8 f1       	brcs	.+106    	; 0x3a40 <strtod+0x234>
    39d6:	c4 ff       	sbrs	r28, 4
    39d8:	03 c0       	rjmp	.+6      	; 0x39e0 <strtod+0x1d4>
    39da:	d1 94       	neg	r13
    39dc:	c1 94       	neg	r12
    39de:	d1 08       	sbc	r13, r1
    39e0:	0c 0d       	add	r16, r12
    39e2:	1d 1d       	adc	r17, r13
    39e4:	c1 ff       	sbrs	r28, 1
    39e6:	09 c0       	rjmp	.+18     	; 0x39fa <strtod+0x1ee>
    39e8:	e1 14       	cp	r14, r1
    39ea:	f1 04       	cpc	r15, r1
    39ec:	31 f0       	breq	.+12     	; 0x39fa <strtod+0x1ee>
    39ee:	81 e0       	ldi	r24, 0x01	; 1
    39f0:	a8 1a       	sub	r10, r24
    39f2:	b1 08       	sbc	r11, r1
    39f4:	d7 01       	movw	r26, r14
    39f6:	ad 92       	st	X+, r10
    39f8:	bc 92       	st	X, r11
    39fa:	ca 01       	movw	r24, r20
    39fc:	b9 01       	movw	r22, r18
    39fe:	0e 94 f8 1e 	call	0x3df0	; 0x3df0 <__floatunsisf>
    3a02:	c3 70       	andi	r28, 0x03	; 3
    3a04:	c3 30       	cpi	r28, 0x03	; 3
    3a06:	09 f4       	brne	.+2      	; 0x3a0a <strtod+0x1fe>
    3a08:	90 58       	subi	r25, 0x80	; 128
    3a0a:	4b 01       	movw	r8, r22
    3a0c:	5c 01       	movw	r10, r24
    3a0e:	20 e0       	ldi	r18, 0x00	; 0
    3a10:	30 e0       	ldi	r19, 0x00	; 0
    3a12:	a9 01       	movw	r20, r18
    3a14:	0e 94 f3 1e 	call	0x3de6	; 0x3de6 <__cmpsf2>
    3a18:	88 23       	and	r24, r24
    3a1a:	09 f4       	brne	.+2      	; 0x3a1e <strtod+0x212>
    3a1c:	40 c0       	rjmp	.+128    	; 0x3a9e <strtod+0x292>
    3a1e:	cb ee       	ldi	r28, 0xEB	; 235
    3a20:	d0 e0       	ldi	r29, 0x00	; 0
    3a22:	17 ff       	sbrs	r17, 7
    3a24:	05 c0       	rjmp	.+10     	; 0x3a30 <strtod+0x224>
    3a26:	11 95       	neg	r17
    3a28:	01 95       	neg	r16
    3a2a:	11 09       	sbc	r17, r1
    3a2c:	c3 ed       	ldi	r28, 0xD3	; 211
    3a2e:	d0 e0       	ldi	r29, 0x00	; 0
    3a30:	6e 01       	movw	r12, r28
    3a32:	b8 e1       	ldi	r27, 0x18	; 24
    3a34:	cb 1a       	sub	r12, r27
    3a36:	d1 08       	sbc	r13, r1
    3a38:	80 e2       	ldi	r24, 0x20	; 32
    3a3a:	e8 2e       	mov	r14, r24
    3a3c:	f1 2c       	mov	r15, r1
    3a3e:	0f c0       	rjmp	.+30     	; 0x3a5e <strtod+0x252>
    3a40:	d5 01       	movw	r26, r10
    3a42:	b1 cf       	rjmp	.-158    	; 0x39a6 <strtod+0x19a>
    3a44:	fe 01       	movw	r30, r28
    3a46:	25 91       	lpm	r18, Z+
    3a48:	35 91       	lpm	r19, Z+
    3a4a:	45 91       	lpm	r20, Z+
    3a4c:	54 91       	lpm	r21, Z
    3a4e:	0e 19       	sub	r16, r14
    3a50:	1f 09       	sbc	r17, r15
    3a52:	c5 01       	movw	r24, r10
    3a54:	b4 01       	movw	r22, r8
    3a56:	0e 94 59 1f 	call	0x3eb2	; 0x3eb2 <__mulsf3>
    3a5a:	4b 01       	movw	r8, r22
    3a5c:	5c 01       	movw	r10, r24
    3a5e:	d5 01       	movw	r26, r10
    3a60:	c4 01       	movw	r24, r8
    3a62:	0e 15       	cp	r16, r14
    3a64:	1f 05       	cpc	r17, r15
    3a66:	74 f7       	brge	.-36     	; 0x3a44 <strtod+0x238>
    3a68:	24 97       	sbiw	r28, 0x04	; 4
    3a6a:	f5 94       	asr	r15
    3a6c:	e7 94       	ror	r14
    3a6e:	cc 16       	cp	r12, r28
    3a70:	dd 06       	cpc	r13, r29
    3a72:	a9 f7       	brne	.-22     	; 0x3a5e <strtod+0x252>
    3a74:	8a 2f       	mov	r24, r26
    3a76:	88 0f       	add	r24, r24
    3a78:	8b 2f       	mov	r24, r27
    3a7a:	88 1f       	adc	r24, r24
    3a7c:	8f 3f       	cpi	r24, 0xFF	; 255
    3a7e:	49 f0       	breq	.+18     	; 0x3a92 <strtod+0x286>
    3a80:	20 e0       	ldi	r18, 0x00	; 0
    3a82:	30 e0       	ldi	r19, 0x00	; 0
    3a84:	a9 01       	movw	r20, r18
    3a86:	c5 01       	movw	r24, r10
    3a88:	b4 01       	movw	r22, r8
    3a8a:	0e 94 f3 1e 	call	0x3de6	; 0x3de6 <__cmpsf2>
    3a8e:	81 11       	cpse	r24, r1
    3a90:	06 c0       	rjmp	.+12     	; 0x3a9e <strtod+0x292>
    3a92:	82 e2       	ldi	r24, 0x22	; 34
    3a94:	90 e0       	ldi	r25, 0x00	; 0
    3a96:	90 93 d1 05 	sts	0x05D1, r25	; 0x8005d1 <errno+0x1>
    3a9a:	80 93 d0 05 	sts	0x05D0, r24	; 0x8005d0 <errno>
    3a9e:	c5 01       	movw	r24, r10
    3aa0:	b4 01       	movw	r22, r8
    3aa2:	cd b7       	in	r28, 0x3d	; 61
    3aa4:	de b7       	in	r29, 0x3e	; 62
    3aa6:	ec e0       	ldi	r30, 0x0C	; 12
    3aa8:	0c 94 47 20 	jmp	0x408e	; 0x408e <__epilogue_restores__+0xc>

00003aac <__ftoa_engine>:
__ftoa_engine():
    3aac:	28 30       	cpi	r18, 0x08	; 8
    3aae:	08 f0       	brcs	.+2      	; 0x3ab2 <__ftoa_engine+0x6>
    3ab0:	27 e0       	ldi	r18, 0x07	; 7
    3ab2:	33 27       	eor	r19, r19
    3ab4:	da 01       	movw	r26, r20
    3ab6:	99 0f       	add	r25, r25
    3ab8:	31 1d       	adc	r19, r1
    3aba:	87 fd       	sbrc	r24, 7
    3abc:	91 60       	ori	r25, 0x01	; 1
    3abe:	00 96       	adiw	r24, 0x00	; 0
    3ac0:	61 05       	cpc	r22, r1
    3ac2:	71 05       	cpc	r23, r1
    3ac4:	39 f4       	brne	.+14     	; 0x3ad4 <__ftoa_engine+0x28>
    3ac6:	32 60       	ori	r19, 0x02	; 2
    3ac8:	2e 5f       	subi	r18, 0xFE	; 254
    3aca:	3d 93       	st	X+, r19
    3acc:	30 e3       	ldi	r19, 0x30	; 48
    3ace:	2a 95       	dec	r18
    3ad0:	e1 f7       	brne	.-8      	; 0x3aca <__ftoa_engine+0x1e>
    3ad2:	08 95       	ret
    3ad4:	9f 3f       	cpi	r25, 0xFF	; 255
    3ad6:	30 f0       	brcs	.+12     	; 0x3ae4 <__ftoa_engine+0x38>
    3ad8:	80 38       	cpi	r24, 0x80	; 128
    3ada:	71 05       	cpc	r23, r1
    3adc:	61 05       	cpc	r22, r1
    3ade:	09 f0       	breq	.+2      	; 0x3ae2 <__ftoa_engine+0x36>
    3ae0:	3c 5f       	subi	r19, 0xFC	; 252
    3ae2:	3c 5f       	subi	r19, 0xFC	; 252
    3ae4:	3d 93       	st	X+, r19
    3ae6:	91 30       	cpi	r25, 0x01	; 1
    3ae8:	08 f0       	brcs	.+2      	; 0x3aec <__ftoa_engine+0x40>
    3aea:	80 68       	ori	r24, 0x80	; 128
    3aec:	91 1d       	adc	r25, r1
    3aee:	df 93       	push	r29
    3af0:	cf 93       	push	r28
    3af2:	1f 93       	push	r17
    3af4:	0f 93       	push	r16
    3af6:	ff 92       	push	r15
    3af8:	ef 92       	push	r14
    3afa:	19 2f       	mov	r17, r25
    3afc:	98 7f       	andi	r25, 0xF8	; 248
    3afe:	96 95       	lsr	r25
    3b00:	e9 2f       	mov	r30, r25
    3b02:	96 95       	lsr	r25
    3b04:	96 95       	lsr	r25
    3b06:	e9 0f       	add	r30, r25
    3b08:	ff 27       	eor	r31, r31
    3b0a:	e7 5b       	subi	r30, 0xB7	; 183
    3b0c:	fe 4f       	sbci	r31, 0xFE	; 254
    3b0e:	99 27       	eor	r25, r25
    3b10:	33 27       	eor	r19, r19
    3b12:	ee 24       	eor	r14, r14
    3b14:	ff 24       	eor	r15, r15
    3b16:	a7 01       	movw	r20, r14
    3b18:	e7 01       	movw	r28, r14
    3b1a:	05 90       	lpm	r0, Z+
    3b1c:	08 94       	sec
    3b1e:	07 94       	ror	r0
    3b20:	28 f4       	brcc	.+10     	; 0x3b2c <__ftoa_engine+0x80>
    3b22:	36 0f       	add	r19, r22
    3b24:	e7 1e       	adc	r14, r23
    3b26:	f8 1e       	adc	r15, r24
    3b28:	49 1f       	adc	r20, r25
    3b2a:	51 1d       	adc	r21, r1
    3b2c:	66 0f       	add	r22, r22
    3b2e:	77 1f       	adc	r23, r23
    3b30:	88 1f       	adc	r24, r24
    3b32:	99 1f       	adc	r25, r25
    3b34:	06 94       	lsr	r0
    3b36:	a1 f7       	brne	.-24     	; 0x3b20 <__ftoa_engine+0x74>
    3b38:	05 90       	lpm	r0, Z+
    3b3a:	07 94       	ror	r0
    3b3c:	28 f4       	brcc	.+10     	; 0x3b48 <__ftoa_engine+0x9c>
    3b3e:	e7 0e       	add	r14, r23
    3b40:	f8 1e       	adc	r15, r24
    3b42:	49 1f       	adc	r20, r25
    3b44:	56 1f       	adc	r21, r22
    3b46:	c1 1d       	adc	r28, r1
    3b48:	77 0f       	add	r23, r23
    3b4a:	88 1f       	adc	r24, r24
    3b4c:	99 1f       	adc	r25, r25
    3b4e:	66 1f       	adc	r22, r22
    3b50:	06 94       	lsr	r0
    3b52:	a1 f7       	brne	.-24     	; 0x3b3c <__ftoa_engine+0x90>
    3b54:	05 90       	lpm	r0, Z+
    3b56:	07 94       	ror	r0
    3b58:	28 f4       	brcc	.+10     	; 0x3b64 <__ftoa_engine+0xb8>
    3b5a:	f8 0e       	add	r15, r24
    3b5c:	49 1f       	adc	r20, r25
    3b5e:	56 1f       	adc	r21, r22
    3b60:	c7 1f       	adc	r28, r23
    3b62:	d1 1d       	adc	r29, r1
    3b64:	88 0f       	add	r24, r24
    3b66:	99 1f       	adc	r25, r25
    3b68:	66 1f       	adc	r22, r22
    3b6a:	77 1f       	adc	r23, r23
    3b6c:	06 94       	lsr	r0
    3b6e:	a1 f7       	brne	.-24     	; 0x3b58 <__ftoa_engine+0xac>
    3b70:	05 90       	lpm	r0, Z+
    3b72:	07 94       	ror	r0
    3b74:	20 f4       	brcc	.+8      	; 0x3b7e <__ftoa_engine+0xd2>
    3b76:	49 0f       	add	r20, r25
    3b78:	56 1f       	adc	r21, r22
    3b7a:	c7 1f       	adc	r28, r23
    3b7c:	d8 1f       	adc	r29, r24
    3b7e:	99 0f       	add	r25, r25
    3b80:	66 1f       	adc	r22, r22
    3b82:	77 1f       	adc	r23, r23
    3b84:	88 1f       	adc	r24, r24
    3b86:	06 94       	lsr	r0
    3b88:	a9 f7       	brne	.-22     	; 0x3b74 <__ftoa_engine+0xc8>
    3b8a:	84 91       	lpm	r24, Z
    3b8c:	10 95       	com	r17
    3b8e:	17 70       	andi	r17, 0x07	; 7
    3b90:	41 f0       	breq	.+16     	; 0x3ba2 <__ftoa_engine+0xf6>
    3b92:	d6 95       	lsr	r29
    3b94:	c7 95       	ror	r28
    3b96:	57 95       	ror	r21
    3b98:	47 95       	ror	r20
    3b9a:	f7 94       	ror	r15
    3b9c:	e7 94       	ror	r14
    3b9e:	1a 95       	dec	r17
    3ba0:	c1 f7       	brne	.-16     	; 0x3b92 <__ftoa_engine+0xe6>
    3ba2:	ef ee       	ldi	r30, 0xEF	; 239
    3ba4:	f0 e0       	ldi	r31, 0x00	; 0
    3ba6:	68 94       	set
    3ba8:	15 90       	lpm	r1, Z+
    3baa:	15 91       	lpm	r17, Z+
    3bac:	35 91       	lpm	r19, Z+
    3bae:	65 91       	lpm	r22, Z+
    3bb0:	95 91       	lpm	r25, Z+
    3bb2:	05 90       	lpm	r0, Z+
    3bb4:	7f e2       	ldi	r23, 0x2F	; 47
    3bb6:	73 95       	inc	r23
    3bb8:	e1 18       	sub	r14, r1
    3bba:	f1 0a       	sbc	r15, r17
    3bbc:	43 0b       	sbc	r20, r19
    3bbe:	56 0b       	sbc	r21, r22
    3bc0:	c9 0b       	sbc	r28, r25
    3bc2:	d0 09       	sbc	r29, r0
    3bc4:	c0 f7       	brcc	.-16     	; 0x3bb6 <__ftoa_engine+0x10a>
    3bc6:	e1 0c       	add	r14, r1
    3bc8:	f1 1e       	adc	r15, r17
    3bca:	43 1f       	adc	r20, r19
    3bcc:	56 1f       	adc	r21, r22
    3bce:	c9 1f       	adc	r28, r25
    3bd0:	d0 1d       	adc	r29, r0
    3bd2:	7e f4       	brtc	.+30     	; 0x3bf2 <__ftoa_engine+0x146>
    3bd4:	70 33       	cpi	r23, 0x30	; 48
    3bd6:	11 f4       	brne	.+4      	; 0x3bdc <__ftoa_engine+0x130>
    3bd8:	8a 95       	dec	r24
    3bda:	e6 cf       	rjmp	.-52     	; 0x3ba8 <__ftoa_engine+0xfc>
    3bdc:	e8 94       	clt
    3bde:	01 50       	subi	r16, 0x01	; 1
    3be0:	30 f0       	brcs	.+12     	; 0x3bee <__ftoa_engine+0x142>
    3be2:	08 0f       	add	r16, r24
    3be4:	0a f4       	brpl	.+2      	; 0x3be8 <__ftoa_engine+0x13c>
    3be6:	00 27       	eor	r16, r16
    3be8:	02 17       	cp	r16, r18
    3bea:	08 f4       	brcc	.+2      	; 0x3bee <__ftoa_engine+0x142>
    3bec:	20 2f       	mov	r18, r16
    3bee:	23 95       	inc	r18
    3bf0:	02 2f       	mov	r16, r18
    3bf2:	7a 33       	cpi	r23, 0x3A	; 58
    3bf4:	28 f0       	brcs	.+10     	; 0x3c00 <__ftoa_engine+0x154>
    3bf6:	79 e3       	ldi	r23, 0x39	; 57
    3bf8:	7d 93       	st	X+, r23
    3bfa:	2a 95       	dec	r18
    3bfc:	e9 f7       	brne	.-6      	; 0x3bf8 <__ftoa_engine+0x14c>
    3bfe:	10 c0       	rjmp	.+32     	; 0x3c20 <__ftoa_engine+0x174>
    3c00:	7d 93       	st	X+, r23
    3c02:	2a 95       	dec	r18
    3c04:	89 f6       	brne	.-94     	; 0x3ba8 <__ftoa_engine+0xfc>
    3c06:	06 94       	lsr	r0
    3c08:	97 95       	ror	r25
    3c0a:	67 95       	ror	r22
    3c0c:	37 95       	ror	r19
    3c0e:	17 95       	ror	r17
    3c10:	17 94       	ror	r1
    3c12:	e1 18       	sub	r14, r1
    3c14:	f1 0a       	sbc	r15, r17
    3c16:	43 0b       	sbc	r20, r19
    3c18:	56 0b       	sbc	r21, r22
    3c1a:	c9 0b       	sbc	r28, r25
    3c1c:	d0 09       	sbc	r29, r0
    3c1e:	98 f0       	brcs	.+38     	; 0x3c46 <__ftoa_engine+0x19a>
    3c20:	23 95       	inc	r18
    3c22:	7e 91       	ld	r23, -X
    3c24:	73 95       	inc	r23
    3c26:	7a 33       	cpi	r23, 0x3A	; 58
    3c28:	08 f0       	brcs	.+2      	; 0x3c2c <__ftoa_engine+0x180>
    3c2a:	70 e3       	ldi	r23, 0x30	; 48
    3c2c:	7c 93       	st	X, r23
    3c2e:	20 13       	cpse	r18, r16
    3c30:	b8 f7       	brcc	.-18     	; 0x3c20 <__ftoa_engine+0x174>
    3c32:	7e 91       	ld	r23, -X
    3c34:	70 61       	ori	r23, 0x10	; 16
    3c36:	7d 93       	st	X+, r23
    3c38:	30 f0       	brcs	.+12     	; 0x3c46 <__ftoa_engine+0x19a>
    3c3a:	83 95       	inc	r24
    3c3c:	71 e3       	ldi	r23, 0x31	; 49
    3c3e:	7d 93       	st	X+, r23
    3c40:	70 e3       	ldi	r23, 0x30	; 48
    3c42:	2a 95       	dec	r18
    3c44:	e1 f7       	brne	.-8      	; 0x3c3e <__ftoa_engine+0x192>
    3c46:	11 24       	eor	r1, r1
    3c48:	ef 90       	pop	r14
    3c4a:	ff 90       	pop	r15
    3c4c:	0f 91       	pop	r16
    3c4e:	1f 91       	pop	r17
    3c50:	cf 91       	pop	r28
    3c52:	df 91       	pop	r29
    3c54:	99 27       	eor	r25, r25
    3c56:	87 fd       	sbrc	r24, 7
    3c58:	90 95       	com	r25
    3c5a:	08 95       	ret

00003c5c <isspace>:
isspace():
    3c5c:	91 11       	cpse	r25, r1
    3c5e:	0c 94 c6 1f 	jmp	0x3f8c	; 0x3f8c <__ctype_isfalse>
    3c62:	80 32       	cpi	r24, 0x20	; 32
    3c64:	19 f0       	breq	.+6      	; 0x3c6c <isspace+0x10>
    3c66:	89 50       	subi	r24, 0x09	; 9
    3c68:	85 50       	subi	r24, 0x05	; 5
    3c6a:	c8 f7       	brcc	.-14     	; 0x3c5e <isspace+0x2>
    3c6c:	08 95       	ret

00003c6e <strncasecmp_P>:
strncasecmp_P():
    3c6e:	fb 01       	movw	r30, r22
    3c70:	dc 01       	movw	r26, r24
    3c72:	41 50       	subi	r20, 0x01	; 1
    3c74:	50 40       	sbci	r21, 0x00	; 0
    3c76:	88 f0       	brcs	.+34     	; 0x3c9a <strncasecmp_P+0x2c>
    3c78:	8d 91       	ld	r24, X+
    3c7a:	81 34       	cpi	r24, 0x41	; 65
    3c7c:	1c f0       	brlt	.+6      	; 0x3c84 <strncasecmp_P+0x16>
    3c7e:	8b 35       	cpi	r24, 0x5B	; 91
    3c80:	0c f4       	brge	.+2      	; 0x3c84 <strncasecmp_P+0x16>
    3c82:	80 5e       	subi	r24, 0xE0	; 224
    3c84:	65 91       	lpm	r22, Z+
    3c86:	61 34       	cpi	r22, 0x41	; 65
    3c88:	1c f0       	brlt	.+6      	; 0x3c90 <strncasecmp_P+0x22>
    3c8a:	6b 35       	cpi	r22, 0x5B	; 91
    3c8c:	0c f4       	brge	.+2      	; 0x3c90 <strncasecmp_P+0x22>
    3c8e:	60 5e       	subi	r22, 0xE0	; 224
    3c90:	86 1b       	sub	r24, r22
    3c92:	61 11       	cpse	r22, r1
    3c94:	71 f3       	breq	.-36     	; 0x3c72 <strncasecmp_P+0x4>
    3c96:	99 0b       	sbc	r25, r25
    3c98:	08 95       	ret
    3c9a:	88 1b       	sub	r24, r24
    3c9c:	fc cf       	rjmp	.-8      	; 0x3c96 <strncasecmp_P+0x28>

00003c9e <strnlen_P>:
strnlen_P():
    3c9e:	fc 01       	movw	r30, r24
    3ca0:	05 90       	lpm	r0, Z+
    3ca2:	61 50       	subi	r22, 0x01	; 1
    3ca4:	70 40       	sbci	r23, 0x00	; 0
    3ca6:	01 10       	cpse	r0, r1
    3ca8:	d8 f7       	brcc	.-10     	; 0x3ca0 <strnlen_P+0x2>
    3caa:	80 95       	com	r24
    3cac:	90 95       	com	r25
    3cae:	8e 0f       	add	r24, r30
    3cb0:	9f 1f       	adc	r25, r31
    3cb2:	08 95       	ret

00003cb4 <strnlen>:
strnlen():
    3cb4:	fc 01       	movw	r30, r24
    3cb6:	61 50       	subi	r22, 0x01	; 1
    3cb8:	70 40       	sbci	r23, 0x00	; 0
    3cba:	01 90       	ld	r0, Z+
    3cbc:	01 10       	cpse	r0, r1
    3cbe:	d8 f7       	brcc	.-10     	; 0x3cb6 <strnlen+0x2>
    3cc0:	80 95       	com	r24
    3cc2:	90 95       	com	r25
    3cc4:	8e 0f       	add	r24, r30
    3cc6:	9f 1f       	adc	r25, r31
    3cc8:	08 95       	ret

00003cca <fputc>:
fputc():
    3cca:	0f 93       	push	r16
    3ccc:	1f 93       	push	r17
    3cce:	cf 93       	push	r28
    3cd0:	df 93       	push	r29
    3cd2:	18 2f       	mov	r17, r24
    3cd4:	09 2f       	mov	r16, r25
    3cd6:	eb 01       	movw	r28, r22
    3cd8:	8b 81       	ldd	r24, Y+3	; 0x03
    3cda:	81 fd       	sbrc	r24, 1
    3cdc:	09 c0       	rjmp	.+18     	; 0x3cf0 <fputc+0x26>
    3cde:	1f ef       	ldi	r17, 0xFF	; 255
    3ce0:	0f ef       	ldi	r16, 0xFF	; 255
    3ce2:	81 2f       	mov	r24, r17
    3ce4:	90 2f       	mov	r25, r16
    3ce6:	df 91       	pop	r29
    3ce8:	cf 91       	pop	r28
    3cea:	1f 91       	pop	r17
    3cec:	0f 91       	pop	r16
    3cee:	08 95       	ret
    3cf0:	82 ff       	sbrs	r24, 2
    3cf2:	14 c0       	rjmp	.+40     	; 0x3d1c <fputc+0x52>
    3cf4:	2e 81       	ldd	r18, Y+6	; 0x06
    3cf6:	3f 81       	ldd	r19, Y+7	; 0x07
    3cf8:	8c 81       	ldd	r24, Y+4	; 0x04
    3cfa:	9d 81       	ldd	r25, Y+5	; 0x05
    3cfc:	28 17       	cp	r18, r24
    3cfe:	39 07       	cpc	r19, r25
    3d00:	3c f4       	brge	.+14     	; 0x3d10 <fputc+0x46>
    3d02:	e8 81       	ld	r30, Y
    3d04:	f9 81       	ldd	r31, Y+1	; 0x01
    3d06:	cf 01       	movw	r24, r30
    3d08:	01 96       	adiw	r24, 0x01	; 1
    3d0a:	99 83       	std	Y+1, r25	; 0x01
    3d0c:	88 83       	st	Y, r24
    3d0e:	10 83       	st	Z, r17
    3d10:	8e 81       	ldd	r24, Y+6	; 0x06
    3d12:	9f 81       	ldd	r25, Y+7	; 0x07
    3d14:	01 96       	adiw	r24, 0x01	; 1
    3d16:	9f 83       	std	Y+7, r25	; 0x07
    3d18:	8e 83       	std	Y+6, r24	; 0x06
    3d1a:	e3 cf       	rjmp	.-58     	; 0x3ce2 <fputc+0x18>
    3d1c:	e8 85       	ldd	r30, Y+8	; 0x08
    3d1e:	f9 85       	ldd	r31, Y+9	; 0x09
    3d20:	81 2f       	mov	r24, r17
    3d22:	09 95       	icall
    3d24:	89 2b       	or	r24, r25
    3d26:	a1 f3       	breq	.-24     	; 0x3d10 <fputc+0x46>
    3d28:	da cf       	rjmp	.-76     	; 0x3cde <fputc+0x14>

00003d2a <__ultoa_invert>:
__ultoa_invert():
    3d2a:	fa 01       	movw	r30, r20
    3d2c:	aa 27       	eor	r26, r26
    3d2e:	28 30       	cpi	r18, 0x08	; 8
    3d30:	51 f1       	breq	.+84     	; 0x3d86 <__ultoa_invert+0x5c>
    3d32:	20 31       	cpi	r18, 0x10	; 16
    3d34:	81 f1       	breq	.+96     	; 0x3d96 <__ultoa_invert+0x6c>
    3d36:	e8 94       	clt
    3d38:	6f 93       	push	r22
    3d3a:	6e 7f       	andi	r22, 0xFE	; 254
    3d3c:	6e 5f       	subi	r22, 0xFE	; 254
    3d3e:	7f 4f       	sbci	r23, 0xFF	; 255
    3d40:	8f 4f       	sbci	r24, 0xFF	; 255
    3d42:	9f 4f       	sbci	r25, 0xFF	; 255
    3d44:	af 4f       	sbci	r26, 0xFF	; 255
    3d46:	b1 e0       	ldi	r27, 0x01	; 1
    3d48:	3e d0       	rcall	.+124    	; 0x3dc6 <__ultoa_invert+0x9c>
    3d4a:	b4 e0       	ldi	r27, 0x04	; 4
    3d4c:	3c d0       	rcall	.+120    	; 0x3dc6 <__ultoa_invert+0x9c>
    3d4e:	67 0f       	add	r22, r23
    3d50:	78 1f       	adc	r23, r24
    3d52:	89 1f       	adc	r24, r25
    3d54:	9a 1f       	adc	r25, r26
    3d56:	a1 1d       	adc	r26, r1
    3d58:	68 0f       	add	r22, r24
    3d5a:	79 1f       	adc	r23, r25
    3d5c:	8a 1f       	adc	r24, r26
    3d5e:	91 1d       	adc	r25, r1
    3d60:	a1 1d       	adc	r26, r1
    3d62:	6a 0f       	add	r22, r26
    3d64:	71 1d       	adc	r23, r1
    3d66:	81 1d       	adc	r24, r1
    3d68:	91 1d       	adc	r25, r1
    3d6a:	a1 1d       	adc	r26, r1
    3d6c:	20 d0       	rcall	.+64     	; 0x3dae <__ultoa_invert+0x84>
    3d6e:	09 f4       	brne	.+2      	; 0x3d72 <__ultoa_invert+0x48>
    3d70:	68 94       	set
    3d72:	3f 91       	pop	r19
    3d74:	2a e0       	ldi	r18, 0x0A	; 10
    3d76:	26 9f       	mul	r18, r22
    3d78:	11 24       	eor	r1, r1
    3d7a:	30 19       	sub	r19, r0
    3d7c:	30 5d       	subi	r19, 0xD0	; 208
    3d7e:	31 93       	st	Z+, r19
    3d80:	de f6       	brtc	.-74     	; 0x3d38 <__ultoa_invert+0xe>
    3d82:	cf 01       	movw	r24, r30
    3d84:	08 95       	ret
    3d86:	46 2f       	mov	r20, r22
    3d88:	47 70       	andi	r20, 0x07	; 7
    3d8a:	40 5d       	subi	r20, 0xD0	; 208
    3d8c:	41 93       	st	Z+, r20
    3d8e:	b3 e0       	ldi	r27, 0x03	; 3
    3d90:	0f d0       	rcall	.+30     	; 0x3db0 <__ultoa_invert+0x86>
    3d92:	c9 f7       	brne	.-14     	; 0x3d86 <__ultoa_invert+0x5c>
    3d94:	f6 cf       	rjmp	.-20     	; 0x3d82 <__ultoa_invert+0x58>
    3d96:	46 2f       	mov	r20, r22
    3d98:	4f 70       	andi	r20, 0x0F	; 15
    3d9a:	40 5d       	subi	r20, 0xD0	; 208
    3d9c:	4a 33       	cpi	r20, 0x3A	; 58
    3d9e:	18 f0       	brcs	.+6      	; 0x3da6 <__ultoa_invert+0x7c>
    3da0:	49 5d       	subi	r20, 0xD9	; 217
    3da2:	31 fd       	sbrc	r19, 1
    3da4:	40 52       	subi	r20, 0x20	; 32
    3da6:	41 93       	st	Z+, r20
    3da8:	02 d0       	rcall	.+4      	; 0x3dae <__ultoa_invert+0x84>
    3daa:	a9 f7       	brne	.-22     	; 0x3d96 <__ultoa_invert+0x6c>
    3dac:	ea cf       	rjmp	.-44     	; 0x3d82 <__ultoa_invert+0x58>
    3dae:	b4 e0       	ldi	r27, 0x04	; 4
    3db0:	a6 95       	lsr	r26
    3db2:	97 95       	ror	r25
    3db4:	87 95       	ror	r24
    3db6:	77 95       	ror	r23
    3db8:	67 95       	ror	r22
    3dba:	ba 95       	dec	r27
    3dbc:	c9 f7       	brne	.-14     	; 0x3db0 <__ultoa_invert+0x86>
    3dbe:	00 97       	sbiw	r24, 0x00	; 0
    3dc0:	61 05       	cpc	r22, r1
    3dc2:	71 05       	cpc	r23, r1
    3dc4:	08 95       	ret
    3dc6:	9b 01       	movw	r18, r22
    3dc8:	ac 01       	movw	r20, r24
    3dca:	0a 2e       	mov	r0, r26
    3dcc:	06 94       	lsr	r0
    3dce:	57 95       	ror	r21
    3dd0:	47 95       	ror	r20
    3dd2:	37 95       	ror	r19
    3dd4:	27 95       	ror	r18
    3dd6:	ba 95       	dec	r27
    3dd8:	c9 f7       	brne	.-14     	; 0x3dcc <__ultoa_invert+0xa2>
    3dda:	62 0f       	add	r22, r18
    3ddc:	73 1f       	adc	r23, r19
    3dde:	84 1f       	adc	r24, r20
    3de0:	95 1f       	adc	r25, r21
    3de2:	a0 1d       	adc	r26, r0
    3de4:	08 95       	ret

00003de6 <__cmpsf2>:
__cmpsf2():
    3de6:	0e 94 35 1f 	call	0x3e6a	; 0x3e6a <__fp_cmp>
    3dea:	08 f4       	brcc	.+2      	; 0x3dee <__cmpsf2+0x8>
    3dec:	81 e0       	ldi	r24, 0x01	; 1
    3dee:	08 95       	ret

00003df0 <__floatunsisf>:
__floatunsisf():
    3df0:	e8 94       	clt
    3df2:	09 c0       	rjmp	.+18     	; 0x3e06 <__floatsisf+0x12>

00003df4 <__floatsisf>:
    3df4:	97 fb       	bst	r25, 7
    3df6:	3e f4       	brtc	.+14     	; 0x3e06 <__floatsisf+0x12>
    3df8:	90 95       	com	r25
    3dfa:	80 95       	com	r24
    3dfc:	70 95       	com	r23
    3dfe:	61 95       	neg	r22
    3e00:	7f 4f       	sbci	r23, 0xFF	; 255
    3e02:	8f 4f       	sbci	r24, 0xFF	; 255
    3e04:	9f 4f       	sbci	r25, 0xFF	; 255
    3e06:	99 23       	and	r25, r25
    3e08:	a9 f0       	breq	.+42     	; 0x3e34 <__floatsisf+0x40>
    3e0a:	f9 2f       	mov	r31, r25
    3e0c:	96 e9       	ldi	r25, 0x96	; 150
    3e0e:	bb 27       	eor	r27, r27
    3e10:	93 95       	inc	r25
    3e12:	f6 95       	lsr	r31
    3e14:	87 95       	ror	r24
    3e16:	77 95       	ror	r23
    3e18:	67 95       	ror	r22
    3e1a:	b7 95       	ror	r27
    3e1c:	f1 11       	cpse	r31, r1
    3e1e:	f8 cf       	rjmp	.-16     	; 0x3e10 <__floatsisf+0x1c>
    3e20:	fa f4       	brpl	.+62     	; 0x3e60 <__floatsisf+0x6c>
    3e22:	bb 0f       	add	r27, r27
    3e24:	11 f4       	brne	.+4      	; 0x3e2a <__floatsisf+0x36>
    3e26:	60 ff       	sbrs	r22, 0
    3e28:	1b c0       	rjmp	.+54     	; 0x3e60 <__floatsisf+0x6c>
    3e2a:	6f 5f       	subi	r22, 0xFF	; 255
    3e2c:	7f 4f       	sbci	r23, 0xFF	; 255
    3e2e:	8f 4f       	sbci	r24, 0xFF	; 255
    3e30:	9f 4f       	sbci	r25, 0xFF	; 255
    3e32:	16 c0       	rjmp	.+44     	; 0x3e60 <__floatsisf+0x6c>
    3e34:	88 23       	and	r24, r24
    3e36:	11 f0       	breq	.+4      	; 0x3e3c <__floatsisf+0x48>
    3e38:	96 e9       	ldi	r25, 0x96	; 150
    3e3a:	11 c0       	rjmp	.+34     	; 0x3e5e <__floatsisf+0x6a>
    3e3c:	77 23       	and	r23, r23
    3e3e:	21 f0       	breq	.+8      	; 0x3e48 <__floatsisf+0x54>
    3e40:	9e e8       	ldi	r25, 0x8E	; 142
    3e42:	87 2f       	mov	r24, r23
    3e44:	76 2f       	mov	r23, r22
    3e46:	05 c0       	rjmp	.+10     	; 0x3e52 <__floatsisf+0x5e>
    3e48:	66 23       	and	r22, r22
    3e4a:	71 f0       	breq	.+28     	; 0x3e68 <__floatsisf+0x74>
    3e4c:	96 e8       	ldi	r25, 0x86	; 134
    3e4e:	86 2f       	mov	r24, r22
    3e50:	70 e0       	ldi	r23, 0x00	; 0
    3e52:	60 e0       	ldi	r22, 0x00	; 0
    3e54:	2a f0       	brmi	.+10     	; 0x3e60 <__floatsisf+0x6c>
    3e56:	9a 95       	dec	r25
    3e58:	66 0f       	add	r22, r22
    3e5a:	77 1f       	adc	r23, r23
    3e5c:	88 1f       	adc	r24, r24
    3e5e:	da f7       	brpl	.-10     	; 0x3e56 <__floatsisf+0x62>
    3e60:	88 0f       	add	r24, r24
    3e62:	96 95       	lsr	r25
    3e64:	87 95       	ror	r24
    3e66:	97 f9       	bld	r25, 7
    3e68:	08 95       	ret

00003e6a <__fp_cmp>:
__fp_cmp():
    3e6a:	99 0f       	add	r25, r25
    3e6c:	00 08       	sbc	r0, r0
    3e6e:	55 0f       	add	r21, r21
    3e70:	aa 0b       	sbc	r26, r26
    3e72:	e0 e8       	ldi	r30, 0x80	; 128
    3e74:	fe ef       	ldi	r31, 0xFE	; 254
    3e76:	16 16       	cp	r1, r22
    3e78:	17 06       	cpc	r1, r23
    3e7a:	e8 07       	cpc	r30, r24
    3e7c:	f9 07       	cpc	r31, r25
    3e7e:	c0 f0       	brcs	.+48     	; 0x3eb0 <__fp_cmp+0x46>
    3e80:	12 16       	cp	r1, r18
    3e82:	13 06       	cpc	r1, r19
    3e84:	e4 07       	cpc	r30, r20
    3e86:	f5 07       	cpc	r31, r21
    3e88:	98 f0       	brcs	.+38     	; 0x3eb0 <__fp_cmp+0x46>
    3e8a:	62 1b       	sub	r22, r18
    3e8c:	73 0b       	sbc	r23, r19
    3e8e:	84 0b       	sbc	r24, r20
    3e90:	95 0b       	sbc	r25, r21
    3e92:	39 f4       	brne	.+14     	; 0x3ea2 <__fp_cmp+0x38>
    3e94:	0a 26       	eor	r0, r26
    3e96:	61 f0       	breq	.+24     	; 0x3eb0 <__fp_cmp+0x46>
    3e98:	23 2b       	or	r18, r19
    3e9a:	24 2b       	or	r18, r20
    3e9c:	25 2b       	or	r18, r21
    3e9e:	21 f4       	brne	.+8      	; 0x3ea8 <__fp_cmp+0x3e>
    3ea0:	08 95       	ret
    3ea2:	0a 26       	eor	r0, r26
    3ea4:	09 f4       	brne	.+2      	; 0x3ea8 <__fp_cmp+0x3e>
    3ea6:	a1 40       	sbci	r26, 0x01	; 1
    3ea8:	a6 95       	lsr	r26
    3eaa:	8f ef       	ldi	r24, 0xFF	; 255
    3eac:	81 1d       	adc	r24, r1
    3eae:	81 1d       	adc	r24, r1
    3eb0:	08 95       	ret

00003eb2 <__mulsf3>:
__mulsf3():
    3eb2:	0e 94 6c 1f 	call	0x3ed8	; 0x3ed8 <__mulsf3x>
    3eb6:	0c 94 e0 1f 	jmp	0x3fc0	; 0x3fc0 <__fp_round>
    3eba:	0e 94 d2 1f 	call	0x3fa4	; 0x3fa4 <__fp_pscA>
    3ebe:	38 f0       	brcs	.+14     	; 0x3ece <__mulsf3+0x1c>
    3ec0:	0e 94 d9 1f 	call	0x3fb2	; 0x3fb2 <__fp_pscB>
    3ec4:	20 f0       	brcs	.+8      	; 0x3ece <__mulsf3+0x1c>
    3ec6:	95 23       	and	r25, r21
    3ec8:	11 f0       	breq	.+4      	; 0x3ece <__mulsf3+0x1c>
    3eca:	0c 94 c9 1f 	jmp	0x3f92	; 0x3f92 <__fp_inf>
    3ece:	0c 94 cf 1f 	jmp	0x3f9e	; 0x3f9e <__fp_nan>
    3ed2:	11 24       	eor	r1, r1
    3ed4:	0c 94 14 20 	jmp	0x4028	; 0x4028 <__fp_szero>

00003ed8 <__mulsf3x>:
__mulsf3x():
    3ed8:	0e 94 f1 1f 	call	0x3fe2	; 0x3fe2 <__fp_split3>
    3edc:	70 f3       	brcs	.-36     	; 0x3eba <__mulsf3+0x8>

00003ede <__mulsf3_pse>:
    3ede:	95 9f       	mul	r25, r21
    3ee0:	c1 f3       	breq	.-16     	; 0x3ed2 <__mulsf3+0x20>
    3ee2:	95 0f       	add	r25, r21
    3ee4:	50 e0       	ldi	r21, 0x00	; 0
    3ee6:	55 1f       	adc	r21, r21
    3ee8:	62 9f       	mul	r22, r18
    3eea:	f0 01       	movw	r30, r0
    3eec:	72 9f       	mul	r23, r18
    3eee:	bb 27       	eor	r27, r27
    3ef0:	f0 0d       	add	r31, r0
    3ef2:	b1 1d       	adc	r27, r1
    3ef4:	63 9f       	mul	r22, r19
    3ef6:	aa 27       	eor	r26, r26
    3ef8:	f0 0d       	add	r31, r0
    3efa:	b1 1d       	adc	r27, r1
    3efc:	aa 1f       	adc	r26, r26
    3efe:	64 9f       	mul	r22, r20
    3f00:	66 27       	eor	r22, r22
    3f02:	b0 0d       	add	r27, r0
    3f04:	a1 1d       	adc	r26, r1
    3f06:	66 1f       	adc	r22, r22
    3f08:	82 9f       	mul	r24, r18
    3f0a:	22 27       	eor	r18, r18
    3f0c:	b0 0d       	add	r27, r0
    3f0e:	a1 1d       	adc	r26, r1
    3f10:	62 1f       	adc	r22, r18
    3f12:	73 9f       	mul	r23, r19
    3f14:	b0 0d       	add	r27, r0
    3f16:	a1 1d       	adc	r26, r1
    3f18:	62 1f       	adc	r22, r18
    3f1a:	83 9f       	mul	r24, r19
    3f1c:	a0 0d       	add	r26, r0
    3f1e:	61 1d       	adc	r22, r1
    3f20:	22 1f       	adc	r18, r18
    3f22:	74 9f       	mul	r23, r20
    3f24:	33 27       	eor	r19, r19
    3f26:	a0 0d       	add	r26, r0
    3f28:	61 1d       	adc	r22, r1
    3f2a:	23 1f       	adc	r18, r19
    3f2c:	84 9f       	mul	r24, r20
    3f2e:	60 0d       	add	r22, r0
    3f30:	21 1d       	adc	r18, r1
    3f32:	82 2f       	mov	r24, r18
    3f34:	76 2f       	mov	r23, r22
    3f36:	6a 2f       	mov	r22, r26
    3f38:	11 24       	eor	r1, r1
    3f3a:	9f 57       	subi	r25, 0x7F	; 127
    3f3c:	50 40       	sbci	r21, 0x00	; 0
    3f3e:	9a f0       	brmi	.+38     	; 0x3f66 <__mulsf3_pse+0x88>
    3f40:	f1 f0       	breq	.+60     	; 0x3f7e <__mulsf3_pse+0xa0>
    3f42:	88 23       	and	r24, r24
    3f44:	4a f0       	brmi	.+18     	; 0x3f58 <__mulsf3_pse+0x7a>
    3f46:	ee 0f       	add	r30, r30
    3f48:	ff 1f       	adc	r31, r31
    3f4a:	bb 1f       	adc	r27, r27
    3f4c:	66 1f       	adc	r22, r22
    3f4e:	77 1f       	adc	r23, r23
    3f50:	88 1f       	adc	r24, r24
    3f52:	91 50       	subi	r25, 0x01	; 1
    3f54:	50 40       	sbci	r21, 0x00	; 0
    3f56:	a9 f7       	brne	.-22     	; 0x3f42 <__mulsf3_pse+0x64>
    3f58:	9e 3f       	cpi	r25, 0xFE	; 254
    3f5a:	51 05       	cpc	r21, r1
    3f5c:	80 f0       	brcs	.+32     	; 0x3f7e <__mulsf3_pse+0xa0>
    3f5e:	0c 94 c9 1f 	jmp	0x3f92	; 0x3f92 <__fp_inf>
    3f62:	0c 94 14 20 	jmp	0x4028	; 0x4028 <__fp_szero>
    3f66:	5f 3f       	cpi	r21, 0xFF	; 255
    3f68:	e4 f3       	brlt	.-8      	; 0x3f62 <__mulsf3_pse+0x84>
    3f6a:	98 3e       	cpi	r25, 0xE8	; 232
    3f6c:	d4 f3       	brlt	.-12     	; 0x3f62 <__mulsf3_pse+0x84>
    3f6e:	86 95       	lsr	r24
    3f70:	77 95       	ror	r23
    3f72:	67 95       	ror	r22
    3f74:	b7 95       	ror	r27
    3f76:	f7 95       	ror	r31
    3f78:	e7 95       	ror	r30
    3f7a:	9f 5f       	subi	r25, 0xFF	; 255
    3f7c:	c1 f7       	brne	.-16     	; 0x3f6e <__mulsf3_pse+0x90>
    3f7e:	fe 2b       	or	r31, r30
    3f80:	88 0f       	add	r24, r24
    3f82:	91 1d       	adc	r25, r1
    3f84:	96 95       	lsr	r25
    3f86:	87 95       	ror	r24
    3f88:	97 f9       	bld	r25, 7
    3f8a:	08 95       	ret

00003f8c <__ctype_isfalse>:
    3f8c:	99 27       	eor	r25, r25
    3f8e:	88 27       	eor	r24, r24

00003f90 <__ctype_istrue>:
    3f90:	08 95       	ret

00003f92 <__fp_inf>:
    3f92:	97 f9       	bld	r25, 7
    3f94:	9f 67       	ori	r25, 0x7F	; 127
    3f96:	80 e8       	ldi	r24, 0x80	; 128
    3f98:	70 e0       	ldi	r23, 0x00	; 0
    3f9a:	60 e0       	ldi	r22, 0x00	; 0
    3f9c:	08 95       	ret

00003f9e <__fp_nan>:
    3f9e:	9f ef       	ldi	r25, 0xFF	; 255
    3fa0:	80 ec       	ldi	r24, 0xC0	; 192
    3fa2:	08 95       	ret

00003fa4 <__fp_pscA>:
    3fa4:	00 24       	eor	r0, r0
    3fa6:	0a 94       	dec	r0
    3fa8:	16 16       	cp	r1, r22
__fp_pscA():
    3faa:	17 06       	cpc	r1, r23
    3fac:	18 06       	cpc	r1, r24
    3fae:	09 06       	cpc	r0, r25
    3fb0:	08 95       	ret

00003fb2 <__fp_pscB>:
__fp_pscB():
    3fb2:	00 24       	eor	r0, r0
    3fb4:	0a 94       	dec	r0
    3fb6:	12 16       	cp	r1, r18
    3fb8:	13 06       	cpc	r1, r19
    3fba:	14 06       	cpc	r1, r20
    3fbc:	05 06       	cpc	r0, r21
    3fbe:	08 95       	ret

00003fc0 <__fp_round>:
__fp_round():
    3fc0:	09 2e       	mov	r0, r25
    3fc2:	03 94       	inc	r0
    3fc4:	00 0c       	add	r0, r0
    3fc6:	11 f4       	brne	.+4      	; 0x3fcc <__fp_round+0xc>
    3fc8:	88 23       	and	r24, r24
    3fca:	52 f0       	brmi	.+20     	; 0x3fe0 <__fp_round+0x20>
    3fcc:	bb 0f       	add	r27, r27
    3fce:	40 f4       	brcc	.+16     	; 0x3fe0 <__fp_round+0x20>
    3fd0:	bf 2b       	or	r27, r31
    3fd2:	11 f4       	brne	.+4      	; 0x3fd8 <__fp_round+0x18>
    3fd4:	60 ff       	sbrs	r22, 0
    3fd6:	04 c0       	rjmp	.+8      	; 0x3fe0 <__fp_round+0x20>
    3fd8:	6f 5f       	subi	r22, 0xFF	; 255
    3fda:	7f 4f       	sbci	r23, 0xFF	; 255
    3fdc:	8f 4f       	sbci	r24, 0xFF	; 255
    3fde:	9f 4f       	sbci	r25, 0xFF	; 255
    3fe0:	08 95       	ret

00003fe2 <__fp_split3>:
__fp_split3():
    3fe2:	57 fd       	sbrc	r21, 7
    3fe4:	90 58       	subi	r25, 0x80	; 128
    3fe6:	44 0f       	add	r20, r20
    3fe8:	55 1f       	adc	r21, r21
    3fea:	59 f0       	breq	.+22     	; 0x4002 <__fp_splitA+0x10>
    3fec:	5f 3f       	cpi	r21, 0xFF	; 255
    3fee:	71 f0       	breq	.+28     	; 0x400c <__fp_splitA+0x1a>
    3ff0:	47 95       	ror	r20

00003ff2 <__fp_splitA>:
    3ff2:	88 0f       	add	r24, r24
    3ff4:	97 fb       	bst	r25, 7
    3ff6:	99 1f       	adc	r25, r25
    3ff8:	61 f0       	breq	.+24     	; 0x4012 <__fp_splitA+0x20>
    3ffa:	9f 3f       	cpi	r25, 0xFF	; 255
    3ffc:	79 f0       	breq	.+30     	; 0x401c <__fp_splitA+0x2a>
    3ffe:	87 95       	ror	r24
    4000:	08 95       	ret
    4002:	12 16       	cp	r1, r18
    4004:	13 06       	cpc	r1, r19
    4006:	14 06       	cpc	r1, r20
    4008:	55 1f       	adc	r21, r21
    400a:	f2 cf       	rjmp	.-28     	; 0x3ff0 <__fp_split3+0xe>
    400c:	46 95       	lsr	r20
    400e:	f1 df       	rcall	.-30     	; 0x3ff2 <__fp_splitA>
    4010:	08 c0       	rjmp	.+16     	; 0x4022 <__fp_splitA+0x30>
    4012:	16 16       	cp	r1, r22
    4014:	17 06       	cpc	r1, r23
    4016:	18 06       	cpc	r1, r24
    4018:	99 1f       	adc	r25, r25
    401a:	f1 cf       	rjmp	.-30     	; 0x3ffe <__fp_splitA+0xc>
    401c:	86 95       	lsr	r24
    401e:	71 05       	cpc	r23, r1
    4020:	61 05       	cpc	r22, r1
    4022:	08 94       	sec
    4024:	08 95       	ret

00004026 <__fp_zero>:
__fp_zero():
    4026:	e8 94       	clt

00004028 <__fp_szero>:
    4028:	bb 27       	eor	r27, r27
    402a:	66 27       	eor	r22, r22
    402c:	77 27       	eor	r23, r23
    402e:	cb 01       	movw	r24, r22
    4030:	97 f9       	bld	r25, 7
    4032:	08 95       	ret

00004034 <__muluhisi3>:
__muluhisi3():
/home/jenkins/workspace/avr-gcc-staging/label/debian7-x86_64/gcc-build/avr/avr5/libgcc/../../../../gcc/libgcc/config/avr/lib1funcs.S:626
    4034:	0e 94 5c 20 	call	0x40b8	; 0x40b8 <__umulhisi3>
/home/jenkins/workspace/avr-gcc-staging/label/debian7-x86_64/gcc-build/avr/avr5/libgcc/../../../../gcc/libgcc/config/avr/lib1funcs.S:627
    4038:	a5 9f       	mul	r26, r21
/home/jenkins/workspace/avr-gcc-staging/label/debian7-x86_64/gcc-build/avr/avr5/libgcc/../../../../gcc/libgcc/config/avr/lib1funcs.S:628
    403a:	90 0d       	add	r25, r0
/home/jenkins/workspace/avr-gcc-staging/label/debian7-x86_64/gcc-build/avr/avr5/libgcc/../../../../gcc/libgcc/config/avr/lib1funcs.S:629
    403c:	b4 9f       	mul	r27, r20
/home/jenkins/workspace/avr-gcc-staging/label/debian7-x86_64/gcc-build/avr/avr5/libgcc/../../../../gcc/libgcc/config/avr/lib1funcs.S:630
    403e:	90 0d       	add	r25, r0
/home/jenkins/workspace/avr-gcc-staging/label/debian7-x86_64/gcc-build/avr/avr5/libgcc/../../../../gcc/libgcc/config/avr/lib1funcs.S:631
    4040:	a4 9f       	mul	r26, r20
/home/jenkins/workspace/avr-gcc-staging/label/debian7-x86_64/gcc-build/avr/avr5/libgcc/../../../../gcc/libgcc/config/avr/lib1funcs.S:632
    4042:	80 0d       	add	r24, r0
/home/jenkins/workspace/avr-gcc-staging/label/debian7-x86_64/gcc-build/avr/avr5/libgcc/../../../../gcc/libgcc/config/avr/lib1funcs.S:633
    4044:	91 1d       	adc	r25, r1
/home/jenkins/workspace/avr-gcc-staging/label/debian7-x86_64/gcc-build/avr/avr5/libgcc/../../../../gcc/libgcc/config/avr/lib1funcs.S:634
    4046:	11 24       	eor	r1, r1
/home/jenkins/workspace/avr-gcc-staging/label/debian7-x86_64/gcc-build/avr/avr5/libgcc/../../../../gcc/libgcc/config/avr/lib1funcs.S:635
    4048:	08 95       	ret

0000404a <__prologue_saves__>:
__prologue_saves__():
/home/jenkins/workspace/avr-gcc-staging/label/debian7-x86_64/gcc-build/avr/avr5/libgcc/../../../../gcc/libgcc/config/avr/lib1funcs.S:2169
    404a:	2f 92       	push	r2
/home/jenkins/workspace/avr-gcc-staging/label/debian7-x86_64/gcc-build/avr/avr5/libgcc/../../../../gcc/libgcc/config/avr/lib1funcs.S:2170
    404c:	3f 92       	push	r3
/home/jenkins/workspace/avr-gcc-staging/label/debian7-x86_64/gcc-build/avr/avr5/libgcc/../../../../gcc/libgcc/config/avr/lib1funcs.S:2171
    404e:	4f 92       	push	r4
/home/jenkins/workspace/avr-gcc-staging/label/debian7-x86_64/gcc-build/avr/avr5/libgcc/../../../../gcc/libgcc/config/avr/lib1funcs.S:2172
    4050:	5f 92       	push	r5
/home/jenkins/workspace/avr-gcc-staging/label/debian7-x86_64/gcc-build/avr/avr5/libgcc/../../../../gcc/libgcc/config/avr/lib1funcs.S:2173
    4052:	6f 92       	push	r6
/home/jenkins/workspace/avr-gcc-staging/label/debian7-x86_64/gcc-build/avr/avr5/libgcc/../../../../gcc/libgcc/config/avr/lib1funcs.S:2174
    4054:	7f 92       	push	r7
/home/jenkins/workspace/avr-gcc-staging/label/debian7-x86_64/gcc-build/avr/avr5/libgcc/../../../../gcc/libgcc/config/avr/lib1funcs.S:2175
    4056:	8f 92       	push	r8
/home/jenkins/workspace/avr-gcc-staging/label/debian7-x86_64/gcc-build/avr/avr5/libgcc/../../../../gcc/libgcc/config/avr/lib1funcs.S:2176
    4058:	9f 92       	push	r9
/home/jenkins/workspace/avr-gcc-staging/label/debian7-x86_64/gcc-build/avr/avr5/libgcc/../../../../gcc/libgcc/config/avr/lib1funcs.S:2177
    405a:	af 92       	push	r10
/home/jenkins/workspace/avr-gcc-staging/label/debian7-x86_64/gcc-build/avr/avr5/libgcc/../../../../gcc/libgcc/config/avr/lib1funcs.S:2178
    405c:	bf 92       	push	r11
/home/jenkins/workspace/avr-gcc-staging/label/debian7-x86_64/gcc-build/avr/avr5/libgcc/../../../../gcc/libgcc/config/avr/lib1funcs.S:2179
    405e:	cf 92       	push	r12
/home/jenkins/workspace/avr-gcc-staging/label/debian7-x86_64/gcc-build/avr/avr5/libgcc/../../../../gcc/libgcc/config/avr/lib1funcs.S:2180
    4060:	df 92       	push	r13
/home/jenkins/workspace/avr-gcc-staging/label/debian7-x86_64/gcc-build/avr/avr5/libgcc/../../../../gcc/libgcc/config/avr/lib1funcs.S:2181
    4062:	ef 92       	push	r14
/home/jenkins/workspace/avr-gcc-staging/label/debian7-x86_64/gcc-build/avr/avr5/libgcc/../../../../gcc/libgcc/config/avr/lib1funcs.S:2182
    4064:	ff 92       	push	r15
/home/jenkins/workspace/avr-gcc-staging/label/debian7-x86_64/gcc-build/avr/avr5/libgcc/../../../../gcc/libgcc/config/avr/lib1funcs.S:2183
    4066:	0f 93       	push	r16
/home/jenkins/workspace/avr-gcc-staging/label/debian7-x86_64/gcc-build/avr/avr5/libgcc/../../../../gcc/libgcc/config/avr/lib1funcs.S:2184
    4068:	1f 93       	push	r17
/home/jenkins/workspace/avr-gcc-staging/label/debian7-x86_64/gcc-build/avr/avr5/libgcc/../../../../gcc/libgcc/config/avr/lib1funcs.S:2185
    406a:	cf 93       	push	r28
/home/jenkins/workspace/avr-gcc-staging/label/debian7-x86_64/gcc-build/avr/avr5/libgcc/../../../../gcc/libgcc/config/avr/lib1funcs.S:2186
    406c:	df 93       	push	r29
/home/jenkins/workspace/avr-gcc-staging/label/debian7-x86_64/gcc-build/avr/avr5/libgcc/../../../../gcc/libgcc/config/avr/lib1funcs.S:2200
    406e:	cd b7       	in	r28, 0x3d	; 61
/home/jenkins/workspace/avr-gcc-staging/label/debian7-x86_64/gcc-build/avr/avr5/libgcc/../../../../gcc/libgcc/config/avr/lib1funcs.S:2201
    4070:	de b7       	in	r29, 0x3e	; 62
/home/jenkins/workspace/avr-gcc-staging/label/debian7-x86_64/gcc-build/avr/avr5/libgcc/../../../../gcc/libgcc/config/avr/lib1funcs.S:2202
    4072:	ca 1b       	sub	r28, r26
/home/jenkins/workspace/avr-gcc-staging/label/debian7-x86_64/gcc-build/avr/avr5/libgcc/../../../../gcc/libgcc/config/avr/lib1funcs.S:2203
    4074:	db 0b       	sbc	r29, r27
/home/jenkins/workspace/avr-gcc-staging/label/debian7-x86_64/gcc-build/avr/avr5/libgcc/../../../../gcc/libgcc/config/avr/lib1funcs.S:2204
    4076:	0f b6       	in	r0, 0x3f	; 63
/home/jenkins/workspace/avr-gcc-staging/label/debian7-x86_64/gcc-build/avr/avr5/libgcc/../../../../gcc/libgcc/config/avr/lib1funcs.S:2205
    4078:	f8 94       	cli
/home/jenkins/workspace/avr-gcc-staging/label/debian7-x86_64/gcc-build/avr/avr5/libgcc/../../../../gcc/libgcc/config/avr/lib1funcs.S:2206
    407a:	de bf       	out	0x3e, r29	; 62
/home/jenkins/workspace/avr-gcc-staging/label/debian7-x86_64/gcc-build/avr/avr5/libgcc/../../../../gcc/libgcc/config/avr/lib1funcs.S:2207
    407c:	0f be       	out	0x3f, r0	; 63
/home/jenkins/workspace/avr-gcc-staging/label/debian7-x86_64/gcc-build/avr/avr5/libgcc/../../../../gcc/libgcc/config/avr/lib1funcs.S:2208
    407e:	cd bf       	out	0x3d, r28	; 61
/home/jenkins/workspace/avr-gcc-staging/label/debian7-x86_64/gcc-build/avr/avr5/libgcc/../../../../gcc/libgcc/config/avr/lib1funcs.S:2211
    4080:	09 94       	ijmp

00004082 <__epilogue_restores__>:
__epilogue_restores__():
/home/jenkins/workspace/avr-gcc-staging/label/debian7-x86_64/gcc-build/avr/avr5/libgcc/../../../../gcc/libgcc/config/avr/lib1funcs.S:2222
    4082:	2a 88       	ldd	r2, Y+18	; 0x12
/home/jenkins/workspace/avr-gcc-staging/label/debian7-x86_64/gcc-build/avr/avr5/libgcc/../../../../gcc/libgcc/config/avr/lib1funcs.S:2223
    4084:	39 88       	ldd	r3, Y+17	; 0x11
/home/jenkins/workspace/avr-gcc-staging/label/debian7-x86_64/gcc-build/avr/avr5/libgcc/../../../../gcc/libgcc/config/avr/lib1funcs.S:2224
    4086:	48 88       	ldd	r4, Y+16	; 0x10
/home/jenkins/workspace/avr-gcc-staging/label/debian7-x86_64/gcc-build/avr/avr5/libgcc/../../../../gcc/libgcc/config/avr/lib1funcs.S:2225
    4088:	5f 84       	ldd	r5, Y+15	; 0x0f
/home/jenkins/workspace/avr-gcc-staging/label/debian7-x86_64/gcc-build/avr/avr5/libgcc/../../../../gcc/libgcc/config/avr/lib1funcs.S:2226
    408a:	6e 84       	ldd	r6, Y+14	; 0x0e
/home/jenkins/workspace/avr-gcc-staging/label/debian7-x86_64/gcc-build/avr/avr5/libgcc/../../../../gcc/libgcc/config/avr/lib1funcs.S:2227
    408c:	7d 84       	ldd	r7, Y+13	; 0x0d
/home/jenkins/workspace/avr-gcc-staging/label/debian7-x86_64/gcc-build/avr/avr5/libgcc/../../../../gcc/libgcc/config/avr/lib1funcs.S:2228
    408e:	8c 84       	ldd	r8, Y+12	; 0x0c
/home/jenkins/workspace/avr-gcc-staging/label/debian7-x86_64/gcc-build/avr/avr5/libgcc/../../../../gcc/libgcc/config/avr/lib1funcs.S:2229
    4090:	9b 84       	ldd	r9, Y+11	; 0x0b
/home/jenkins/workspace/avr-gcc-staging/label/debian7-x86_64/gcc-build/avr/avr5/libgcc/../../../../gcc/libgcc/config/avr/lib1funcs.S:2230
    4092:	aa 84       	ldd	r10, Y+10	; 0x0a
/home/jenkins/workspace/avr-gcc-staging/label/debian7-x86_64/gcc-build/avr/avr5/libgcc/../../../../gcc/libgcc/config/avr/lib1funcs.S:2231
    4094:	b9 84       	ldd	r11, Y+9	; 0x09
/home/jenkins/workspace/avr-gcc-staging/label/debian7-x86_64/gcc-build/avr/avr5/libgcc/../../../../gcc/libgcc/config/avr/lib1funcs.S:2232
    4096:	c8 84       	ldd	r12, Y+8	; 0x08
/home/jenkins/workspace/avr-gcc-staging/label/debian7-x86_64/gcc-build/avr/avr5/libgcc/../../../../gcc/libgcc/config/avr/lib1funcs.S:2233
    4098:	df 80       	ldd	r13, Y+7	; 0x07
/home/jenkins/workspace/avr-gcc-staging/label/debian7-x86_64/gcc-build/avr/avr5/libgcc/../../../../gcc/libgcc/config/avr/lib1funcs.S:2234
    409a:	ee 80       	ldd	r14, Y+6	; 0x06
/home/jenkins/workspace/avr-gcc-staging/label/debian7-x86_64/gcc-build/avr/avr5/libgcc/../../../../gcc/libgcc/config/avr/lib1funcs.S:2235
    409c:	fd 80       	ldd	r15, Y+5	; 0x05
/home/jenkins/workspace/avr-gcc-staging/label/debian7-x86_64/gcc-build/avr/avr5/libgcc/../../../../gcc/libgcc/config/avr/lib1funcs.S:2236
    409e:	0c 81       	ldd	r16, Y+4	; 0x04
/home/jenkins/workspace/avr-gcc-staging/label/debian7-x86_64/gcc-build/avr/avr5/libgcc/../../../../gcc/libgcc/config/avr/lib1funcs.S:2237
    40a0:	1b 81       	ldd	r17, Y+3	; 0x03
/home/jenkins/workspace/avr-gcc-staging/label/debian7-x86_64/gcc-build/avr/avr5/libgcc/../../../../gcc/libgcc/config/avr/lib1funcs.S:2238
    40a2:	aa 81       	ldd	r26, Y+2	; 0x02
/home/jenkins/workspace/avr-gcc-staging/label/debian7-x86_64/gcc-build/avr/avr5/libgcc/../../../../gcc/libgcc/config/avr/lib1funcs.S:2252
    40a4:	b9 81       	ldd	r27, Y+1	; 0x01
/home/jenkins/workspace/avr-gcc-staging/label/debian7-x86_64/gcc-build/avr/avr5/libgcc/../../../../gcc/libgcc/config/avr/lib1funcs.S:2253
    40a6:	ce 0f       	add	r28, r30
/home/jenkins/workspace/avr-gcc-staging/label/debian7-x86_64/gcc-build/avr/avr5/libgcc/../../../../gcc/libgcc/config/avr/lib1funcs.S:2254
    40a8:	d1 1d       	adc	r29, r1
/home/jenkins/workspace/avr-gcc-staging/label/debian7-x86_64/gcc-build/avr/avr5/libgcc/../../../../gcc/libgcc/config/avr/lib1funcs.S:2255
    40aa:	0f b6       	in	r0, 0x3f	; 63
/home/jenkins/workspace/avr-gcc-staging/label/debian7-x86_64/gcc-build/avr/avr5/libgcc/../../../../gcc/libgcc/config/avr/lib1funcs.S:2256
    40ac:	f8 94       	cli
/home/jenkins/workspace/avr-gcc-staging/label/debian7-x86_64/gcc-build/avr/avr5/libgcc/../../../../gcc/libgcc/config/avr/lib1funcs.S:2257
    40ae:	de bf       	out	0x3e, r29	; 62
/home/jenkins/workspace/avr-gcc-staging/label/debian7-x86_64/gcc-build/avr/avr5/libgcc/../../../../gcc/libgcc/config/avr/lib1funcs.S:2258
    40b0:	0f be       	out	0x3f, r0	; 63
/home/jenkins/workspace/avr-gcc-staging/label/debian7-x86_64/gcc-build/avr/avr5/libgcc/../../../../gcc/libgcc/config/avr/lib1funcs.S:2259
    40b2:	cd bf       	out	0x3d, r28	; 61
/home/jenkins/workspace/avr-gcc-staging/label/debian7-x86_64/gcc-build/avr/avr5/libgcc/../../../../gcc/libgcc/config/avr/lib1funcs.S:2260
    40b4:	ed 01       	movw	r28, r26
/home/jenkins/workspace/avr-gcc-staging/label/debian7-x86_64/gcc-build/avr/avr5/libgcc/../../../../gcc/libgcc/config/avr/lib1funcs.S:2263
    40b6:	08 95       	ret

000040b8 <__umulhisi3>:
__umulhisi3():
/home/jenkins/workspace/avr-gcc-staging/label/debian7-x86_64/gcc-build/avr/avr5/libgcc/../../../../gcc/libgcc/config/avr/lib1funcs.S:564
    40b8:	a2 9f       	mul	r26, r18
/home/jenkins/workspace/avr-gcc-staging/label/debian7-x86_64/gcc-build/avr/avr5/libgcc/../../../../gcc/libgcc/config/avr/lib1funcs.S:565
    40ba:	b0 01       	movw	r22, r0
/home/jenkins/workspace/avr-gcc-staging/label/debian7-x86_64/gcc-build/avr/avr5/libgcc/../../../../gcc/libgcc/config/avr/lib1funcs.S:566
    40bc:	b3 9f       	mul	r27, r19
/home/jenkins/workspace/avr-gcc-staging/label/debian7-x86_64/gcc-build/avr/avr5/libgcc/../../../../gcc/libgcc/config/avr/lib1funcs.S:567
    40be:	c0 01       	movw	r24, r0
/home/jenkins/workspace/avr-gcc-staging/label/debian7-x86_64/gcc-build/avr/avr5/libgcc/../../../../gcc/libgcc/config/avr/lib1funcs.S:568
    40c0:	a3 9f       	mul	r26, r19
/home/jenkins/workspace/avr-gcc-staging/label/debian7-x86_64/gcc-build/avr/avr5/libgcc/../../../../gcc/libgcc/config/avr/lib1funcs.S:573
    40c2:	70 0d       	add	r23, r0
/home/jenkins/workspace/avr-gcc-staging/label/debian7-x86_64/gcc-build/avr/avr5/libgcc/../../../../gcc/libgcc/config/avr/lib1funcs.S:574
    40c4:	81 1d       	adc	r24, r1
/home/jenkins/workspace/avr-gcc-staging/label/debian7-x86_64/gcc-build/avr/avr5/libgcc/../../../../gcc/libgcc/config/avr/lib1funcs.S:575
    40c6:	11 24       	eor	r1, r1
/home/jenkins/workspace/avr-gcc-staging/label/debian7-x86_64/gcc-build/avr/avr5/libgcc/../../../../gcc/libgcc/config/avr/lib1funcs.S:576
    40c8:	91 1d       	adc	r25, r1
/home/jenkins/workspace/avr-gcc-staging/label/debian7-x86_64/gcc-build/avr/avr5/libgcc/../../../../gcc/libgcc/config/avr/lib1funcs.S:580
    40ca:	b2 9f       	mul	r27, r18
/home/jenkins/workspace/avr-gcc-staging/label/debian7-x86_64/gcc-build/avr/avr5/libgcc/../../../../gcc/libgcc/config/avr/lib1funcs.S:581
    40cc:	70 0d       	add	r23, r0
/home/jenkins/workspace/avr-gcc-staging/label/debian7-x86_64/gcc-build/avr/avr5/libgcc/../../../../gcc/libgcc/config/avr/lib1funcs.S:582
    40ce:	81 1d       	adc	r24, r1
/home/jenkins/workspace/avr-gcc-staging/label/debian7-x86_64/gcc-build/avr/avr5/libgcc/../../../../gcc/libgcc/config/avr/lib1funcs.S:583
    40d0:	11 24       	eor	r1, r1
/home/jenkins/workspace/avr-gcc-staging/label/debian7-x86_64/gcc-build/avr/avr5/libgcc/../../../../gcc/libgcc/config/avr/lib1funcs.S:584
    40d2:	91 1d       	adc	r25, r1
/home/jenkins/workspace/avr-gcc-staging/label/debian7-x86_64/gcc-build/avr/avr5/libgcc/../../../../gcc/libgcc/config/avr/lib1funcs.S:585
    40d4:	08 95       	ret

000040d6 <__subsf3>:
__subsf3():
    40d6:	50 58       	subi	r21, 0x80	; 128

000040d8 <__addsf3>:
    40d8:	bb 27       	eor	r27, r27
    40da:	aa 27       	eor	r26, r26
    40dc:	0e 94 83 20 	call	0x4106	; 0x4106 <__addsf3x>
    40e0:	0c 94 e0 1f 	jmp	0x3fc0	; 0x3fc0 <__fp_round>
__addsf3():
    40e4:	0e 94 d2 1f 	call	0x3fa4	; 0x3fa4 <__fp_pscA>
    40e8:	38 f0       	brcs	.+14     	; 0x40f8 <__addsf3+0x20>
    40ea:	0e 94 d9 1f 	call	0x3fb2	; 0x3fb2 <__fp_pscB>
    40ee:	20 f0       	brcs	.+8      	; 0x40f8 <__addsf3+0x20>
    40f0:	39 f4       	brne	.+14     	; 0x4100 <__addsf3+0x28>
    40f2:	9f 3f       	cpi	r25, 0xFF	; 255
    40f4:	19 f4       	brne	.+6      	; 0x40fc <__addsf3+0x24>
    40f6:	26 f4       	brtc	.+8      	; 0x4100 <__addsf3+0x28>
    40f8:	0c 94 cf 1f 	jmp	0x3f9e	; 0x3f9e <__fp_nan>
    40fc:	0e f4       	brtc	.+2      	; 0x4100 <__addsf3+0x28>
    40fe:	e0 95       	com	r30
    4100:	e7 fb       	bst	r30, 7
    4102:	0c 94 c9 1f 	jmp	0x3f92	; 0x3f92 <__fp_inf>

00004106 <__addsf3x>:
__addsf3x():
    4106:	e9 2f       	mov	r30, r25
    4108:	0e 94 f1 1f 	call	0x3fe2	; 0x3fe2 <__fp_split3>
    410c:	58 f3       	brcs	.-42     	; 0x40e4 <__addsf3+0xc>
    410e:	ba 17       	cp	r27, r26
    4110:	62 07       	cpc	r22, r18
    4112:	73 07       	cpc	r23, r19
    4114:	84 07       	cpc	r24, r20
    4116:	95 07       	cpc	r25, r21
    4118:	20 f0       	brcs	.+8      	; 0x4122 <__addsf3x+0x1c>
    411a:	79 f4       	brne	.+30     	; 0x413a <__addsf3x+0x34>
    411c:	a6 f5       	brtc	.+104    	; 0x4186 <__addsf3x+0x80>
    411e:	0c 94 13 20 	jmp	0x4026	; 0x4026 <__fp_zero>
    4122:	0e f4       	brtc	.+2      	; 0x4126 <__addsf3x+0x20>
    4124:	e0 95       	com	r30
    4126:	0b 2e       	mov	r0, r27
    4128:	ba 2f       	mov	r27, r26
    412a:	a0 2d       	mov	r26, r0
    412c:	0b 01       	movw	r0, r22
    412e:	b9 01       	movw	r22, r18
    4130:	90 01       	movw	r18, r0
    4132:	0c 01       	movw	r0, r24
    4134:	ca 01       	movw	r24, r20
    4136:	a0 01       	movw	r20, r0
    4138:	11 24       	eor	r1, r1
    413a:	ff 27       	eor	r31, r31
    413c:	59 1b       	sub	r21, r25
    413e:	99 f0       	breq	.+38     	; 0x4166 <__addsf3x+0x60>
    4140:	59 3f       	cpi	r21, 0xF9	; 249
    4142:	50 f4       	brcc	.+20     	; 0x4158 <__addsf3x+0x52>
    4144:	50 3e       	cpi	r21, 0xE0	; 224
    4146:	68 f1       	brcs	.+90     	; 0x41a2 <__addsf3x+0x9c>
    4148:	1a 16       	cp	r1, r26
    414a:	f0 40       	sbci	r31, 0x00	; 0
    414c:	a2 2f       	mov	r26, r18
    414e:	23 2f       	mov	r18, r19
    4150:	34 2f       	mov	r19, r20
    4152:	44 27       	eor	r20, r20
    4154:	58 5f       	subi	r21, 0xF8	; 248
    4156:	f3 cf       	rjmp	.-26     	; 0x413e <__addsf3x+0x38>
    4158:	46 95       	lsr	r20
    415a:	37 95       	ror	r19
    415c:	27 95       	ror	r18
    415e:	a7 95       	ror	r26
    4160:	f0 40       	sbci	r31, 0x00	; 0
    4162:	53 95       	inc	r21
    4164:	c9 f7       	brne	.-14     	; 0x4158 <__addsf3x+0x52>
    4166:	7e f4       	brtc	.+30     	; 0x4186 <__addsf3x+0x80>
    4168:	1f 16       	cp	r1, r31
    416a:	ba 0b       	sbc	r27, r26
    416c:	62 0b       	sbc	r22, r18
    416e:	73 0b       	sbc	r23, r19
    4170:	84 0b       	sbc	r24, r20
    4172:	ba f0       	brmi	.+46     	; 0x41a2 <__addsf3x+0x9c>
    4174:	91 50       	subi	r25, 0x01	; 1
    4176:	a1 f0       	breq	.+40     	; 0x41a0 <__addsf3x+0x9a>
    4178:	ff 0f       	add	r31, r31
    417a:	bb 1f       	adc	r27, r27
    417c:	66 1f       	adc	r22, r22
    417e:	77 1f       	adc	r23, r23
    4180:	88 1f       	adc	r24, r24
    4182:	c2 f7       	brpl	.-16     	; 0x4174 <__addsf3x+0x6e>
    4184:	0e c0       	rjmp	.+28     	; 0x41a2 <__addsf3x+0x9c>
    4186:	ba 0f       	add	r27, r26
    4188:	62 1f       	adc	r22, r18
    418a:	73 1f       	adc	r23, r19
    418c:	84 1f       	adc	r24, r20
    418e:	48 f4       	brcc	.+18     	; 0x41a2 <__addsf3x+0x9c>
    4190:	87 95       	ror	r24
    4192:	77 95       	ror	r23
    4194:	67 95       	ror	r22
    4196:	b7 95       	ror	r27
    4198:	f7 95       	ror	r31
    419a:	9e 3f       	cpi	r25, 0xFE	; 254
    419c:	08 f0       	brcs	.+2      	; 0x41a0 <__addsf3x+0x9a>
    419e:	b0 cf       	rjmp	.-160    	; 0x4100 <__addsf3+0x28>
    41a0:	93 95       	inc	r25
    41a2:	88 0f       	add	r24, r24
    41a4:	08 f0       	brcs	.+2      	; 0x41a8 <__addsf3x+0xa2>
    41a6:	99 27       	eor	r25, r25
    41a8:	ee 0f       	add	r30, r30
    41aa:	97 95       	ror	r25
    41ac:	87 95       	ror	r24
    41ae:	08 95       	ret

000041b0 <__divsf3>:
    41b0:	0e 94 ec 20 	call	0x41d8	; 0x41d8 <__divsf3x>
    41b4:	0c 94 e0 1f 	jmp	0x3fc0	; 0x3fc0 <__fp_round>
    41b8:	0e 94 d9 1f 	call	0x3fb2	; 0x3fb2 <__fp_pscB>
    41bc:	58 f0       	brcs	.+22     	; 0x41d4 <__divsf3+0x24>
    41be:	0e 94 d2 1f 	call	0x3fa4	; 0x3fa4 <__fp_pscA>
    41c2:	40 f0       	brcs	.+16     	; 0x41d4 <__divsf3+0x24>
    41c4:	29 f4       	brne	.+10     	; 0x41d0 <__divsf3+0x20>
    41c6:	5f 3f       	cpi	r21, 0xFF	; 255
    41c8:	29 f0       	breq	.+10     	; 0x41d4 <__divsf3+0x24>
    41ca:	0c 94 c9 1f 	jmp	0x3f92	; 0x3f92 <__fp_inf>
    41ce:	51 11       	cpse	r21, r1
    41d0:	0c 94 14 20 	jmp	0x4028	; 0x4028 <__fp_szero>
__divsf3():
    41d4:	0c 94 cf 1f 	jmp	0x3f9e	; 0x3f9e <__fp_nan>

000041d8 <__divsf3x>:
__divsf3x():
    41d8:	0e 94 f1 1f 	call	0x3fe2	; 0x3fe2 <__fp_split3>
    41dc:	68 f3       	brcs	.-38     	; 0x41b8 <__divsf3+0x8>

000041de <__divsf3_pse>:
    41de:	99 23       	and	r25, r25
    41e0:	b1 f3       	breq	.-20     	; 0x41ce <__divsf3+0x1e>
    41e2:	55 23       	and	r21, r21
    41e4:	91 f3       	breq	.-28     	; 0x41ca <__divsf3+0x1a>
    41e6:	95 1b       	sub	r25, r21
    41e8:	55 0b       	sbc	r21, r21
    41ea:	bb 27       	eor	r27, r27
    41ec:	aa 27       	eor	r26, r26
    41ee:	62 17       	cp	r22, r18
    41f0:	73 07       	cpc	r23, r19
    41f2:	84 07       	cpc	r24, r20
    41f4:	38 f0       	brcs	.+14     	; 0x4204 <__divsf3_pse+0x26>
    41f6:	9f 5f       	subi	r25, 0xFF	; 255
    41f8:	5f 4f       	sbci	r21, 0xFF	; 255
    41fa:	22 0f       	add	r18, r18
    41fc:	33 1f       	adc	r19, r19
    41fe:	44 1f       	adc	r20, r20
    4200:	aa 1f       	adc	r26, r26
    4202:	a9 f3       	breq	.-22     	; 0x41ee <__divsf3_pse+0x10>
    4204:	35 d0       	rcall	.+106    	; 0x4270 <__divsf3_pse+0x92>
    4206:	0e 2e       	mov	r0, r30
    4208:	3a f0       	brmi	.+14     	; 0x4218 <__divsf3_pse+0x3a>
    420a:	e0 e8       	ldi	r30, 0x80	; 128
    420c:	32 d0       	rcall	.+100    	; 0x4272 <__divsf3_pse+0x94>
    420e:	91 50       	subi	r25, 0x01	; 1
    4210:	50 40       	sbci	r21, 0x00	; 0
    4212:	e6 95       	lsr	r30
    4214:	00 1c       	adc	r0, r0
    4216:	ca f7       	brpl	.-14     	; 0x420a <__divsf3_pse+0x2c>
    4218:	2b d0       	rcall	.+86     	; 0x4270 <__divsf3_pse+0x92>
    421a:	fe 2f       	mov	r31, r30
    421c:	29 d0       	rcall	.+82     	; 0x4270 <__divsf3_pse+0x92>
    421e:	66 0f       	add	r22, r22
    4220:	77 1f       	adc	r23, r23
    4222:	88 1f       	adc	r24, r24
    4224:	bb 1f       	adc	r27, r27
    4226:	26 17       	cp	r18, r22
    4228:	37 07       	cpc	r19, r23
    422a:	48 07       	cpc	r20, r24
    422c:	ab 07       	cpc	r26, r27
    422e:	b0 e8       	ldi	r27, 0x80	; 128
    4230:	09 f0       	breq	.+2      	; 0x4234 <__divsf3_pse+0x56>
    4232:	bb 0b       	sbc	r27, r27
    4234:	80 2d       	mov	r24, r0
    4236:	bf 01       	movw	r22, r30
    4238:	ff 27       	eor	r31, r31
    423a:	93 58       	subi	r25, 0x83	; 131
    423c:	5f 4f       	sbci	r21, 0xFF	; 255
    423e:	3a f0       	brmi	.+14     	; 0x424e <__divsf3_pse+0x70>
    4240:	9e 3f       	cpi	r25, 0xFE	; 254
    4242:	51 05       	cpc	r21, r1
    4244:	78 f0       	brcs	.+30     	; 0x4264 <__divsf3_pse+0x86>
    4246:	0c 94 c9 1f 	jmp	0x3f92	; 0x3f92 <__fp_inf>
    424a:	0c 94 14 20 	jmp	0x4028	; 0x4028 <__fp_szero>
    424e:	5f 3f       	cpi	r21, 0xFF	; 255
    4250:	e4 f3       	brlt	.-8      	; 0x424a <__divsf3_pse+0x6c>
    4252:	98 3e       	cpi	r25, 0xE8	; 232
    4254:	d4 f3       	brlt	.-12     	; 0x424a <__divsf3_pse+0x6c>
    4256:	86 95       	lsr	r24
    4258:	77 95       	ror	r23
    425a:	67 95       	ror	r22
    425c:	b7 95       	ror	r27
    425e:	f7 95       	ror	r31
    4260:	9f 5f       	subi	r25, 0xFF	; 255
    4262:	c9 f7       	brne	.-14     	; 0x4256 <__divsf3_pse+0x78>
    4264:	88 0f       	add	r24, r24
    4266:	91 1d       	adc	r25, r1
    4268:	96 95       	lsr	r25
    426a:	87 95       	ror	r24
    426c:	97 f9       	bld	r25, 7
    426e:	08 95       	ret
    4270:	e1 e0       	ldi	r30, 0x01	; 1
    4272:	66 0f       	add	r22, r22
    4274:	77 1f       	adc	r23, r23
    4276:	88 1f       	adc	r24, r24
    4278:	bb 1f       	adc	r27, r27
    427a:	62 17       	cp	r22, r18
    427c:	73 07       	cpc	r23, r19
    427e:	84 07       	cpc	r24, r20
    4280:	ba 07       	cpc	r27, r26
    4282:	20 f0       	brcs	.+8      	; 0x428c <__divsf3_pse+0xae>
    4284:	62 1b       	sub	r22, r18
    4286:	73 0b       	sbc	r23, r19
    4288:	84 0b       	sbc	r24, r20
    428a:	ba 0b       	sbc	r27, r26
    428c:	ee 1f       	adc	r30, r30
    428e:	88 f7       	brcc	.-30     	; 0x4272 <__divsf3_pse+0x94>
    4290:	e0 95       	com	r30
    4292:	08 95       	ret

00004294 <__fixsfsi>:
    4294:	0e 94 51 21 	call	0x42a2	; 0x42a2 <__fixunssfsi>
    4298:	68 94       	set
    429a:	b1 11       	cpse	r27, r1
    429c:	0c 94 14 20 	jmp	0x4028	; 0x4028 <__fp_szero>
    42a0:	08 95       	ret

000042a2 <__fixunssfsi>:
    42a2:	0e 94 f9 1f 	call	0x3ff2	; 0x3ff2 <__fp_splitA>
    42a6:	88 f0       	brcs	.+34     	; 0x42ca <__fixunssfsi+0x28>
    42a8:	9f 57       	subi	r25, 0x7F	; 127
    42aa:	98 f0       	brcs	.+38     	; 0x42d2 <__fixunssfsi+0x30>
    42ac:	b9 2f       	mov	r27, r25
    42ae:	99 27       	eor	r25, r25
    42b0:	b7 51       	subi	r27, 0x17	; 23
    42b2:	b0 f0       	brcs	.+44     	; 0x42e0 <__fixunssfsi+0x3e>
__fixunssfsi():
    42b4:	e1 f0       	breq	.+56     	; 0x42ee <__fixunssfsi+0x4c>
    42b6:	66 0f       	add	r22, r22
    42b8:	77 1f       	adc	r23, r23
    42ba:	88 1f       	adc	r24, r24
    42bc:	99 1f       	adc	r25, r25
    42be:	1a f0       	brmi	.+6      	; 0x42c6 <__fixunssfsi+0x24>
    42c0:	ba 95       	dec	r27
    42c2:	c9 f7       	brne	.-14     	; 0x42b6 <__fixunssfsi+0x14>
    42c4:	14 c0       	rjmp	.+40     	; 0x42ee <__fixunssfsi+0x4c>
    42c6:	b1 30       	cpi	r27, 0x01	; 1
    42c8:	91 f0       	breq	.+36     	; 0x42ee <__fixunssfsi+0x4c>
    42ca:	0e 94 13 20 	call	0x4026	; 0x4026 <__fp_zero>
    42ce:	b1 e0       	ldi	r27, 0x01	; 1
    42d0:	08 95       	ret
    42d2:	0c 94 13 20 	jmp	0x4026	; 0x4026 <__fp_zero>
    42d6:	67 2f       	mov	r22, r23
    42d8:	78 2f       	mov	r23, r24
    42da:	88 27       	eor	r24, r24
    42dc:	b8 5f       	subi	r27, 0xF8	; 248
    42de:	39 f0       	breq	.+14     	; 0x42ee <__fixunssfsi+0x4c>
    42e0:	b9 3f       	cpi	r27, 0xF9	; 249
    42e2:	cc f3       	brlt	.-14     	; 0x42d6 <__fixunssfsi+0x34>
    42e4:	86 95       	lsr	r24
    42e6:	77 95       	ror	r23
    42e8:	67 95       	ror	r22
    42ea:	b3 95       	inc	r27
    42ec:	d9 f7       	brne	.-10     	; 0x42e4 <__fixunssfsi+0x42>
    42ee:	3e f4       	brtc	.+14     	; 0x42fe <__fixunssfsi+0x5c>
    42f0:	90 95       	com	r25
    42f2:	80 95       	com	r24
    42f4:	70 95       	com	r23
    42f6:	61 95       	neg	r22
    42f8:	7f 4f       	sbci	r23, 0xFF	; 255
    42fa:	8f 4f       	sbci	r24, 0xFF	; 255
    42fc:	9f 4f       	sbci	r25, 0xFF	; 255
    42fe:	08 95       	ret

00004300 <__gesf2>:
__gesf2():
    4300:	0e 94 35 1f 	call	0x3e6a	; 0x3e6a <__fp_cmp>
    4304:	08 f4       	brcc	.+2      	; 0x4308 <__gesf2+0x8>
    4306:	8f ef       	ldi	r24, 0xFF	; 255
    4308:	08 95       	ret
    430a:	19 f4       	brne	.+6      	; 0x4312 <__gesf2+0x12>
    430c:	16 f4       	brtc	.+4      	; 0x4312 <__gesf2+0x12>
    430e:	0c 94 cf 1f 	jmp	0x3f9e	; 0x3f9e <__fp_nan>
    4312:	0c 94 d0 21 	jmp	0x43a0	; 0x43a0 <__fp_mpack>

00004316 <sqrt>:
sqrt():
    4316:	0e 94 f9 1f 	call	0x3ff2	; 0x3ff2 <__fp_splitA>
    431a:	b8 f3       	brcs	.-18     	; 0x430a <__gesf2+0xa>
    431c:	99 23       	and	r25, r25
    431e:	c9 f3       	breq	.-14     	; 0x4312 <__gesf2+0x12>
    4320:	b6 f3       	brts	.-20     	; 0x430e <__gesf2+0xe>
    4322:	9f 57       	subi	r25, 0x7F	; 127
    4324:	55 0b       	sbc	r21, r21
    4326:	87 ff       	sbrs	r24, 7
    4328:	0e 94 de 21 	call	0x43bc	; 0x43bc <__fp_norm2>
    432c:	00 24       	eor	r0, r0
    432e:	a0 e6       	ldi	r26, 0x60	; 96
    4330:	40 ea       	ldi	r20, 0xA0	; 160
    4332:	90 01       	movw	r18, r0
    4334:	80 58       	subi	r24, 0x80	; 128
    4336:	56 95       	lsr	r21
    4338:	97 95       	ror	r25
    433a:	28 f4       	brcc	.+10     	; 0x4346 <sqrt+0x30>
    433c:	80 5c       	subi	r24, 0xC0	; 192
    433e:	66 0f       	add	r22, r22
    4340:	77 1f       	adc	r23, r23
    4342:	88 1f       	adc	r24, r24
    4344:	20 f0       	brcs	.+8      	; 0x434e <sqrt+0x38>
    4346:	26 17       	cp	r18, r22
    4348:	37 07       	cpc	r19, r23
    434a:	48 07       	cpc	r20, r24
    434c:	30 f4       	brcc	.+12     	; 0x435a <sqrt+0x44>
    434e:	62 1b       	sub	r22, r18
    4350:	73 0b       	sbc	r23, r19
    4352:	84 0b       	sbc	r24, r20
    4354:	20 29       	or	r18, r0
    4356:	31 29       	or	r19, r1
    4358:	4a 2b       	or	r20, r26
    435a:	a6 95       	lsr	r26
    435c:	17 94       	ror	r1
    435e:	07 94       	ror	r0
    4360:	20 25       	eor	r18, r0
    4362:	31 25       	eor	r19, r1
    4364:	4a 27       	eor	r20, r26
    4366:	58 f7       	brcc	.-42     	; 0x433e <sqrt+0x28>
    4368:	66 0f       	add	r22, r22
    436a:	77 1f       	adc	r23, r23
    436c:	88 1f       	adc	r24, r24
    436e:	20 f0       	brcs	.+8      	; 0x4378 <sqrt+0x62>
    4370:	26 17       	cp	r18, r22
    4372:	37 07       	cpc	r19, r23
    4374:	48 07       	cpc	r20, r24
    4376:	30 f4       	brcc	.+12     	; 0x4384 <sqrt+0x6e>
    4378:	62 0b       	sbc	r22, r18
    437a:	73 0b       	sbc	r23, r19
    437c:	84 0b       	sbc	r24, r20
    437e:	20 0d       	add	r18, r0
    4380:	31 1d       	adc	r19, r1
    4382:	41 1d       	adc	r20, r1
    4384:	a0 95       	com	r26
    4386:	81 f7       	brne	.-32     	; 0x4368 <sqrt+0x52>
    4388:	b9 01       	movw	r22, r18
    438a:	84 2f       	mov	r24, r20
    438c:	91 58       	subi	r25, 0x81	; 129
    438e:	88 0f       	add	r24, r24
    4390:	96 95       	lsr	r25
    4392:	87 95       	ror	r24
    4394:	08 95       	ret

00004396 <__unordsf2>:
    4396:	0e 94 35 1f 	call	0x3e6a	; 0x3e6a <__fp_cmp>
    439a:	88 0b       	sbc	r24, r24
    439c:	99 0b       	sbc	r25, r25
    439e:	08 95       	ret

000043a0 <__fp_mpack>:
    43a0:	9f 3f       	cpi	r25, 0xFF	; 255
__fp_mpack():
    43a2:	31 f0       	breq	.+12     	; 0x43b0 <__fp_mpack_finite+0xc>

000043a4 <__fp_mpack_finite>:
    43a4:	91 50       	subi	r25, 0x01	; 1
    43a6:	20 f4       	brcc	.+8      	; 0x43b0 <__fp_mpack_finite+0xc>
    43a8:	87 95       	ror	r24
    43aa:	77 95       	ror	r23
    43ac:	67 95       	ror	r22
    43ae:	b7 95       	ror	r27
    43b0:	88 0f       	add	r24, r24
    43b2:	91 1d       	adc	r25, r1
    43b4:	96 95       	lsr	r25
    43b6:	87 95       	ror	r24
    43b8:	97 f9       	bld	r25, 7
    43ba:	08 95       	ret

000043bc <__fp_norm2>:
__fp_norm2():
    43bc:	91 50       	subi	r25, 0x01	; 1
    43be:	50 40       	sbci	r21, 0x00	; 0
    43c0:	66 0f       	add	r22, r22
    43c2:	77 1f       	adc	r23, r23
    43c4:	88 1f       	adc	r24, r24
    43c6:	d2 f7       	brpl	.-12     	; 0x43bc <__fp_norm2>
    43c8:	08 95       	ret

000043ca <__divmodhi4>:
__divmodhi4():
/home/jenkins/workspace/avr-gcc-staging/label/debian7-x86_64/gcc-build/avr/avr5/libgcc/../../../../gcc/libgcc/config/avr/lib1funcs.S:1440
    43ca:	97 fb       	bst	r25, 7
/home/jenkins/workspace/avr-gcc-staging/label/debian7-x86_64/gcc-build/avr/avr5/libgcc/../../../../gcc/libgcc/config/avr/lib1funcs.S:1441
    43cc:	07 2e       	mov	r0, r23
/home/jenkins/workspace/avr-gcc-staging/label/debian7-x86_64/gcc-build/avr/avr5/libgcc/../../../../gcc/libgcc/config/avr/lib1funcs.S:1442
    43ce:	16 f4       	brtc	.+4      	; 0x43d4 <__divmodhi4+0xa>
/home/jenkins/workspace/avr-gcc-staging/label/debian7-x86_64/gcc-build/avr/avr5/libgcc/../../../../gcc/libgcc/config/avr/lib1funcs.S:1443
    43d0:	00 94       	com	r0
/home/jenkins/workspace/avr-gcc-staging/label/debian7-x86_64/gcc-build/avr/avr5/libgcc/../../../../gcc/libgcc/config/avr/lib1funcs.S:1444
    43d2:	07 d0       	rcall	.+14     	; 0x43e2 <__divmodhi4_neg1>
/home/jenkins/workspace/avr-gcc-staging/label/debian7-x86_64/gcc-build/avr/avr5/libgcc/../../../../gcc/libgcc/config/avr/lib1funcs.S:1446
    43d4:	77 fd       	sbrc	r23, 7
/home/jenkins/workspace/avr-gcc-staging/label/debian7-x86_64/gcc-build/avr/avr5/libgcc/../../../../gcc/libgcc/config/avr/lib1funcs.S:1447
    43d6:	09 d0       	rcall	.+18     	; 0x43ea <__divmodhi4_neg2>
/home/jenkins/workspace/avr-gcc-staging/label/debian7-x86_64/gcc-build/avr/avr5/libgcc/../../../../gcc/libgcc/config/avr/lib1funcs.S:1448
    43d8:	0e 94 21 22 	call	0x4442	; 0x4442 <__udivmodhi4>
/home/jenkins/workspace/avr-gcc-staging/label/debian7-x86_64/gcc-build/avr/avr5/libgcc/../../../../gcc/libgcc/config/avr/lib1funcs.S:1449
    43dc:	07 fc       	sbrc	r0, 7
/home/jenkins/workspace/avr-gcc-staging/label/debian7-x86_64/gcc-build/avr/avr5/libgcc/../../../../gcc/libgcc/config/avr/lib1funcs.S:1450
    43de:	05 d0       	rcall	.+10     	; 0x43ea <__divmodhi4_neg2>
/home/jenkins/workspace/avr-gcc-staging/label/debian7-x86_64/gcc-build/avr/avr5/libgcc/../../../../gcc/libgcc/config/avr/lib1funcs.S:1451
    43e0:	3e f4       	brtc	.+14     	; 0x43f0 <__divmodhi4_exit>

000043e2 <__divmodhi4_neg1>:
/home/jenkins/workspace/avr-gcc-staging/label/debian7-x86_64/gcc-build/avr/avr5/libgcc/../../../../gcc/libgcc/config/avr/lib1funcs.S:1454
    43e2:	90 95       	com	r25
/home/jenkins/workspace/avr-gcc-staging/label/debian7-x86_64/gcc-build/avr/avr5/libgcc/../../../../gcc/libgcc/config/avr/lib1funcs.S:1455
    43e4:	81 95       	neg	r24
/home/jenkins/workspace/avr-gcc-staging/label/debian7-x86_64/gcc-build/avr/avr5/libgcc/../../../../gcc/libgcc/config/avr/lib1funcs.S:1456
    43e6:	9f 4f       	sbci	r25, 0xFF	; 255
/home/jenkins/workspace/avr-gcc-staging/label/debian7-x86_64/gcc-build/avr/avr5/libgcc/../../../../gcc/libgcc/config/avr/lib1funcs.S:1457
    43e8:	08 95       	ret

000043ea <__divmodhi4_neg2>:
/home/jenkins/workspace/avr-gcc-staging/label/debian7-x86_64/gcc-build/avr/avr5/libgcc/../../../../gcc/libgcc/config/avr/lib1funcs.S:1460
    43ea:	70 95       	com	r23
/home/jenkins/workspace/avr-gcc-staging/label/debian7-x86_64/gcc-build/avr/avr5/libgcc/../../../../gcc/libgcc/config/avr/lib1funcs.S:1461
    43ec:	61 95       	neg	r22
/home/jenkins/workspace/avr-gcc-staging/label/debian7-x86_64/gcc-build/avr/avr5/libgcc/../../../../gcc/libgcc/config/avr/lib1funcs.S:1462
    43ee:	7f 4f       	sbci	r23, 0xFF	; 255

000043f0 <__divmodhi4_exit>:
/home/jenkins/workspace/avr-gcc-staging/label/debian7-x86_64/gcc-build/avr/avr5/libgcc/../../../../gcc/libgcc/config/avr/lib1funcs.S:1464
    43f0:	08 95       	ret

000043f2 <__udivmodsi4>:
__udivmodsi4():
/home/jenkins/workspace/avr-gcc-staging/label/debian7-x86_64/gcc-build/avr/avr5/libgcc/../../../../gcc/libgcc/config/avr/lib1funcs.S:1638
    43f2:	a1 e2       	ldi	r26, 0x21	; 33
/home/jenkins/workspace/avr-gcc-staging/label/debian7-x86_64/gcc-build/avr/avr5/libgcc/../../../../gcc/libgcc/config/avr/lib1funcs.S:1639
    43f4:	1a 2e       	mov	r1, r26
/home/jenkins/workspace/avr-gcc-staging/label/debian7-x86_64/gcc-build/avr/avr5/libgcc/../../../../gcc/libgcc/config/avr/lib1funcs.S:1640
    43f6:	aa 1b       	sub	r26, r26
/home/jenkins/workspace/avr-gcc-staging/label/debian7-x86_64/gcc-build/avr/avr5/libgcc/../../../../gcc/libgcc/config/avr/lib1funcs.S:1641
    43f8:	bb 1b       	sub	r27, r27
/home/jenkins/workspace/avr-gcc-staging/label/debian7-x86_64/gcc-build/avr/avr5/libgcc/../../../../gcc/libgcc/config/avr/lib1funcs.S:1642
    43fa:	fd 01       	movw	r30, r26
/home/jenkins/workspace/avr-gcc-staging/label/debian7-x86_64/gcc-build/avr/avr5/libgcc/../../../../gcc/libgcc/config/avr/lib1funcs.S:1644
    43fc:	0d c0       	rjmp	.+26     	; 0x4418 <__udivmodsi4_ep>

000043fe <__udivmodsi4_loop>:
/home/jenkins/workspace/avr-gcc-staging/label/debian7-x86_64/gcc-build/avr/avr5/libgcc/../../../../gcc/libgcc/config/avr/lib1funcs.S:1646
    43fe:	aa 1f       	adc	r26, r26
/home/jenkins/workspace/avr-gcc-staging/label/debian7-x86_64/gcc-build/avr/avr5/libgcc/../../../../gcc/libgcc/config/avr/lib1funcs.S:1647
    4400:	bb 1f       	adc	r27, r27
/home/jenkins/workspace/avr-gcc-staging/label/debian7-x86_64/gcc-build/avr/avr5/libgcc/../../../../gcc/libgcc/config/avr/lib1funcs.S:1648
    4402:	ee 1f       	adc	r30, r30
/home/jenkins/workspace/avr-gcc-staging/label/debian7-x86_64/gcc-build/avr/avr5/libgcc/../../../../gcc/libgcc/config/avr/lib1funcs.S:1649
    4404:	ff 1f       	adc	r31, r31
/home/jenkins/workspace/avr-gcc-staging/label/debian7-x86_64/gcc-build/avr/avr5/libgcc/../../../../gcc/libgcc/config/avr/lib1funcs.S:1650
    4406:	a2 17       	cp	r26, r18
/home/jenkins/workspace/avr-gcc-staging/label/debian7-x86_64/gcc-build/avr/avr5/libgcc/../../../../gcc/libgcc/config/avr/lib1funcs.S:1651
    4408:	b3 07       	cpc	r27, r19
/home/jenkins/workspace/avr-gcc-staging/label/debian7-x86_64/gcc-build/avr/avr5/libgcc/../../../../gcc/libgcc/config/avr/lib1funcs.S:1652
    440a:	e4 07       	cpc	r30, r20
/home/jenkins/workspace/avr-gcc-staging/label/debian7-x86_64/gcc-build/avr/avr5/libgcc/../../../../gcc/libgcc/config/avr/lib1funcs.S:1653
    440c:	f5 07       	cpc	r31, r21
/home/jenkins/workspace/avr-gcc-staging/label/debian7-x86_64/gcc-build/avr/avr5/libgcc/../../../../gcc/libgcc/config/avr/lib1funcs.S:1654
    440e:	20 f0       	brcs	.+8      	; 0x4418 <__udivmodsi4_ep>
/home/jenkins/workspace/avr-gcc-staging/label/debian7-x86_64/gcc-build/avr/avr5/libgcc/../../../../gcc/libgcc/config/avr/lib1funcs.S:1655
    4410:	a2 1b       	sub	r26, r18
/home/jenkins/workspace/avr-gcc-staging/label/debian7-x86_64/gcc-build/avr/avr5/libgcc/../../../../gcc/libgcc/config/avr/lib1funcs.S:1656
    4412:	b3 0b       	sbc	r27, r19
/home/jenkins/workspace/avr-gcc-staging/label/debian7-x86_64/gcc-build/avr/avr5/libgcc/../../../../gcc/libgcc/config/avr/lib1funcs.S:1657
    4414:	e4 0b       	sbc	r30, r20
/home/jenkins/workspace/avr-gcc-staging/label/debian7-x86_64/gcc-build/avr/avr5/libgcc/../../../../gcc/libgcc/config/avr/lib1funcs.S:1658
    4416:	f5 0b       	sbc	r31, r21

00004418 <__udivmodsi4_ep>:
/home/jenkins/workspace/avr-gcc-staging/label/debian7-x86_64/gcc-build/avr/avr5/libgcc/../../../../gcc/libgcc/config/avr/lib1funcs.S:1660
    4418:	66 1f       	adc	r22, r22
/home/jenkins/workspace/avr-gcc-staging/label/debian7-x86_64/gcc-build/avr/avr5/libgcc/../../../../gcc/libgcc/config/avr/lib1funcs.S:1661
    441a:	77 1f       	adc	r23, r23
/home/jenkins/workspace/avr-gcc-staging/label/debian7-x86_64/gcc-build/avr/avr5/libgcc/../../../../gcc/libgcc/config/avr/lib1funcs.S:1662
    441c:	88 1f       	adc	r24, r24
/home/jenkins/workspace/avr-gcc-staging/label/debian7-x86_64/gcc-build/avr/avr5/libgcc/../../../../gcc/libgcc/config/avr/lib1funcs.S:1663
    441e:	99 1f       	adc	r25, r25
/home/jenkins/workspace/avr-gcc-staging/label/debian7-x86_64/gcc-build/avr/avr5/libgcc/../../../../gcc/libgcc/config/avr/lib1funcs.S:1664
    4420:	1a 94       	dec	r1
/home/jenkins/workspace/avr-gcc-staging/label/debian7-x86_64/gcc-build/avr/avr5/libgcc/../../../../gcc/libgcc/config/avr/lib1funcs.S:1665
    4422:	69 f7       	brne	.-38     	; 0x43fe <__udivmodsi4_loop>
/home/jenkins/workspace/avr-gcc-staging/label/debian7-x86_64/gcc-build/avr/avr5/libgcc/../../../../gcc/libgcc/config/avr/lib1funcs.S:1667
    4424:	60 95       	com	r22
/home/jenkins/workspace/avr-gcc-staging/label/debian7-x86_64/gcc-build/avr/avr5/libgcc/../../../../gcc/libgcc/config/avr/lib1funcs.S:1668
    4426:	70 95       	com	r23
/home/jenkins/workspace/avr-gcc-staging/label/debian7-x86_64/gcc-build/avr/avr5/libgcc/../../../../gcc/libgcc/config/avr/lib1funcs.S:1669
    4428:	80 95       	com	r24
/home/jenkins/workspace/avr-gcc-staging/label/debian7-x86_64/gcc-build/avr/avr5/libgcc/../../../../gcc/libgcc/config/avr/lib1funcs.S:1670
    442a:	90 95       	com	r25
/home/jenkins/workspace/avr-gcc-staging/label/debian7-x86_64/gcc-build/avr/avr5/libgcc/../../../../gcc/libgcc/config/avr/lib1funcs.S:1672
    442c:	9b 01       	movw	r18, r22
/home/jenkins/workspace/avr-gcc-staging/label/debian7-x86_64/gcc-build/avr/avr5/libgcc/../../../../gcc/libgcc/config/avr/lib1funcs.S:1674
    442e:	ac 01       	movw	r20, r24
/home/jenkins/workspace/avr-gcc-staging/label/debian7-x86_64/gcc-build/avr/avr5/libgcc/../../../../gcc/libgcc/config/avr/lib1funcs.S:1676
    4430:	bd 01       	movw	r22, r26
/home/jenkins/workspace/avr-gcc-staging/label/debian7-x86_64/gcc-build/avr/avr5/libgcc/../../../../gcc/libgcc/config/avr/lib1funcs.S:1678
    4432:	cf 01       	movw	r24, r30
/home/jenkins/workspace/avr-gcc-staging/label/debian7-x86_64/gcc-build/avr/avr5/libgcc/../../../../gcc/libgcc/config/avr/lib1funcs.S:1680
    4434:	08 95       	ret

00004436 <__tablejump2__>:
__tablejump2__():
/home/jenkins/workspace/avr-gcc-staging/label/debian7-x86_64/gcc-build/avr/avr5/libgcc/../../../../gcc/libgcc/config/avr/lib1funcs.S:2296
    4436:	ee 0f       	add	r30, r30
/home/jenkins/workspace/avr-gcc-staging/label/debian7-x86_64/gcc-build/avr/avr5/libgcc/../../../../gcc/libgcc/config/avr/lib1funcs.S:2297
    4438:	ff 1f       	adc	r31, r31
/home/jenkins/workspace/avr-gcc-staging/label/debian7-x86_64/gcc-build/avr/avr5/libgcc/../../../../gcc/libgcc/config/avr/lib1funcs.S:2328
    443a:	05 90       	lpm	r0, Z+
/home/jenkins/workspace/avr-gcc-staging/label/debian7-x86_64/gcc-build/avr/avr5/libgcc/../../../../gcc/libgcc/config/avr/lib1funcs.S:2329
    443c:	f4 91       	lpm	r31, Z
/home/jenkins/workspace/avr-gcc-staging/label/debian7-x86_64/gcc-build/avr/avr5/libgcc/../../../../gcc/libgcc/config/avr/lib1funcs.S:2330
    443e:	e0 2d       	mov	r30, r0
/home/jenkins/workspace/avr-gcc-staging/label/debian7-x86_64/gcc-build/avr/avr5/libgcc/../../../../gcc/libgcc/config/avr/lib1funcs.S:2331
    4440:	09 94       	ijmp

00004442 <__udivmodhi4>:
__udivmodhi4():
/home/jenkins/workspace/avr-gcc-staging/label/debian7-x86_64/gcc-build/avr/avr5/libgcc/../../../../gcc/libgcc/config/avr/lib1funcs.S:1408
    4442:	aa 1b       	sub	r26, r26
/home/jenkins/workspace/avr-gcc-staging/label/debian7-x86_64/gcc-build/avr/avr5/libgcc/../../../../gcc/libgcc/config/avr/lib1funcs.S:1409
    4444:	bb 1b       	sub	r27, r27
/home/jenkins/workspace/avr-gcc-staging/label/debian7-x86_64/gcc-build/avr/avr5/libgcc/../../../../gcc/libgcc/config/avr/lib1funcs.S:1410
    4446:	51 e1       	ldi	r21, 0x11	; 17
/home/jenkins/workspace/avr-gcc-staging/label/debian7-x86_64/gcc-build/avr/avr5/libgcc/../../../../gcc/libgcc/config/avr/lib1funcs.S:1411
    4448:	07 c0       	rjmp	.+14     	; 0x4458 <__udivmodhi4_ep>

0000444a <__udivmodhi4_loop>:
/home/jenkins/workspace/avr-gcc-staging/label/debian7-x86_64/gcc-build/avr/avr5/libgcc/../../../../gcc/libgcc/config/avr/lib1funcs.S:1413
    444a:	aa 1f       	adc	r26, r26
/home/jenkins/workspace/avr-gcc-staging/label/debian7-x86_64/gcc-build/avr/avr5/libgcc/../../../../gcc/libgcc/config/avr/lib1funcs.S:1414
    444c:	bb 1f       	adc	r27, r27
/home/jenkins/workspace/avr-gcc-staging/label/debian7-x86_64/gcc-build/avr/avr5/libgcc/../../../../gcc/libgcc/config/avr/lib1funcs.S:1415
    444e:	a6 17       	cp	r26, r22
/home/jenkins/workspace/avr-gcc-staging/label/debian7-x86_64/gcc-build/avr/avr5/libgcc/../../../../gcc/libgcc/config/avr/lib1funcs.S:1416
    4450:	b7 07       	cpc	r27, r23
/home/jenkins/workspace/avr-gcc-staging/label/debian7-x86_64/gcc-build/avr/avr5/libgcc/../../../../gcc/libgcc/config/avr/lib1funcs.S:1417
    4452:	10 f0       	brcs	.+4      	; 0x4458 <__udivmodhi4_ep>
/home/jenkins/workspace/avr-gcc-staging/label/debian7-x86_64/gcc-build/avr/avr5/libgcc/../../../../gcc/libgcc/config/avr/lib1funcs.S:1418
    4454:	a6 1b       	sub	r26, r22
/home/jenkins/workspace/avr-gcc-staging/label/debian7-x86_64/gcc-build/avr/avr5/libgcc/../../../../gcc/libgcc/config/avr/lib1funcs.S:1419
    4456:	b7 0b       	sbc	r27, r23

00004458 <__udivmodhi4_ep>:
/home/jenkins/workspace/avr-gcc-staging/label/debian7-x86_64/gcc-build/avr/avr5/libgcc/../../../../gcc/libgcc/config/avr/lib1funcs.S:1421
    4458:	88 1f       	adc	r24, r24
/home/jenkins/workspace/avr-gcc-staging/label/debian7-x86_64/gcc-build/avr/avr5/libgcc/../../../../gcc/libgcc/config/avr/lib1funcs.S:1422
    445a:	99 1f       	adc	r25, r25
/home/jenkins/workspace/avr-gcc-staging/label/debian7-x86_64/gcc-build/avr/avr5/libgcc/../../../../gcc/libgcc/config/avr/lib1funcs.S:1423
    445c:	5a 95       	dec	r21
/home/jenkins/workspace/avr-gcc-staging/label/debian7-x86_64/gcc-build/avr/avr5/libgcc/../../../../gcc/libgcc/config/avr/lib1funcs.S:1424
    445e:	a9 f7       	brne	.-22     	; 0x444a <__udivmodhi4_loop>
/home/jenkins/workspace/avr-gcc-staging/label/debian7-x86_64/gcc-build/avr/avr5/libgcc/../../../../gcc/libgcc/config/avr/lib1funcs.S:1425
    4460:	80 95       	com	r24
/home/jenkins/workspace/avr-gcc-staging/label/debian7-x86_64/gcc-build/avr/avr5/libgcc/../../../../gcc/libgcc/config/avr/lib1funcs.S:1426
    4462:	90 95       	com	r25
/home/jenkins/workspace/avr-gcc-staging/label/debian7-x86_64/gcc-build/avr/avr5/libgcc/../../../../gcc/libgcc/config/avr/lib1funcs.S:1428
    4464:	bc 01       	movw	r22, r24
/home/jenkins/workspace/avr-gcc-staging/label/debian7-x86_64/gcc-build/avr/avr5/libgcc/../../../../gcc/libgcc/config/avr/lib1funcs.S:1430
    4466:	cd 01       	movw	r24, r26
/home/jenkins/workspace/avr-gcc-staging/label/debian7-x86_64/gcc-build/avr/avr5/libgcc/../../../../gcc/libgcc/config/avr/lib1funcs.S:1432
    4468:	08 95       	ret

0000446a <malloc>:
malloc():
    446a:	0f 93       	push	r16
    446c:	1f 93       	push	r17
    446e:	cf 93       	push	r28
    4470:	df 93       	push	r29
    4472:	82 30       	cpi	r24, 0x02	; 2
    4474:	91 05       	cpc	r25, r1
    4476:	10 f4       	brcc	.+4      	; 0x447c <malloc+0x12>
    4478:	82 e0       	ldi	r24, 0x02	; 2
    447a:	90 e0       	ldi	r25, 0x00	; 0
    447c:	e0 91 d4 05 	lds	r30, 0x05D4	; 0x8005d4 <__flp>
    4480:	f0 91 d5 05 	lds	r31, 0x05D5	; 0x8005d5 <__flp+0x1>
    4484:	30 e0       	ldi	r19, 0x00	; 0
    4486:	20 e0       	ldi	r18, 0x00	; 0
    4488:	b0 e0       	ldi	r27, 0x00	; 0
    448a:	a0 e0       	ldi	r26, 0x00	; 0
    448c:	30 97       	sbiw	r30, 0x00	; 0
    448e:	99 f4       	brne	.+38     	; 0x44b6 <malloc+0x4c>
    4490:	21 15       	cp	r18, r1
    4492:	31 05       	cpc	r19, r1
    4494:	09 f4       	brne	.+2      	; 0x4498 <malloc+0x2e>
    4496:	4a c0       	rjmp	.+148    	; 0x452c <malloc+0xc2>
    4498:	28 1b       	sub	r18, r24
    449a:	39 0b       	sbc	r19, r25
    449c:	24 30       	cpi	r18, 0x04	; 4
    449e:	31 05       	cpc	r19, r1
    44a0:	d8 f5       	brcc	.+118    	; 0x4518 <malloc+0xae>
    44a2:	8a 81       	ldd	r24, Y+2	; 0x02
    44a4:	9b 81       	ldd	r25, Y+3	; 0x03
    44a6:	61 15       	cp	r22, r1
    44a8:	71 05       	cpc	r23, r1
    44aa:	89 f1       	breq	.+98     	; 0x450e <malloc+0xa4>
    44ac:	fb 01       	movw	r30, r22
    44ae:	93 83       	std	Z+3, r25	; 0x03
    44b0:	82 83       	std	Z+2, r24	; 0x02
    44b2:	fe 01       	movw	r30, r28
    44b4:	11 c0       	rjmp	.+34     	; 0x44d8 <malloc+0x6e>
    44b6:	40 81       	ld	r20, Z
    44b8:	51 81       	ldd	r21, Z+1	; 0x01
    44ba:	02 81       	ldd	r16, Z+2	; 0x02
    44bc:	13 81       	ldd	r17, Z+3	; 0x03
    44be:	48 17       	cp	r20, r24
    44c0:	59 07       	cpc	r21, r25
    44c2:	e0 f0       	brcs	.+56     	; 0x44fc <malloc+0x92>
    44c4:	48 17       	cp	r20, r24
    44c6:	59 07       	cpc	r21, r25
    44c8:	99 f4       	brne	.+38     	; 0x44f0 <malloc+0x86>
    44ca:	10 97       	sbiw	r26, 0x00	; 0
    44cc:	61 f0       	breq	.+24     	; 0x44e6 <malloc+0x7c>
    44ce:	12 96       	adiw	r26, 0x02	; 2
    44d0:	0c 93       	st	X, r16
    44d2:	12 97       	sbiw	r26, 0x02	; 2
    44d4:	13 96       	adiw	r26, 0x03	; 3
    44d6:	1c 93       	st	X, r17
    44d8:	32 96       	adiw	r30, 0x02	; 2
    44da:	cf 01       	movw	r24, r30
    44dc:	df 91       	pop	r29
    44de:	cf 91       	pop	r28
    44e0:	1f 91       	pop	r17
    44e2:	0f 91       	pop	r16
    44e4:	08 95       	ret
    44e6:	00 93 d4 05 	sts	0x05D4, r16	; 0x8005d4 <__flp>
    44ea:	10 93 d5 05 	sts	0x05D5, r17	; 0x8005d5 <__flp+0x1>
    44ee:	f4 cf       	rjmp	.-24     	; 0x44d8 <malloc+0x6e>
    44f0:	21 15       	cp	r18, r1
    44f2:	31 05       	cpc	r19, r1
    44f4:	51 f0       	breq	.+20     	; 0x450a <malloc+0xa0>
    44f6:	42 17       	cp	r20, r18
    44f8:	53 07       	cpc	r21, r19
    44fa:	38 f0       	brcs	.+14     	; 0x450a <malloc+0xa0>
    44fc:	a9 01       	movw	r20, r18
    44fe:	db 01       	movw	r26, r22
    4500:	9a 01       	movw	r18, r20
    4502:	bd 01       	movw	r22, r26
    4504:	df 01       	movw	r26, r30
    4506:	f8 01       	movw	r30, r16
    4508:	c1 cf       	rjmp	.-126    	; 0x448c <malloc+0x22>
    450a:	ef 01       	movw	r28, r30
    450c:	f9 cf       	rjmp	.-14     	; 0x4500 <malloc+0x96>
    450e:	90 93 d5 05 	sts	0x05D5, r25	; 0x8005d5 <__flp+0x1>
    4512:	80 93 d4 05 	sts	0x05D4, r24	; 0x8005d4 <__flp>
    4516:	cd cf       	rjmp	.-102    	; 0x44b2 <malloc+0x48>
    4518:	fe 01       	movw	r30, r28
    451a:	e2 0f       	add	r30, r18
    451c:	f3 1f       	adc	r31, r19
    451e:	81 93       	st	Z+, r24
    4520:	91 93       	st	Z+, r25
    4522:	22 50       	subi	r18, 0x02	; 2
    4524:	31 09       	sbc	r19, r1
    4526:	39 83       	std	Y+1, r19	; 0x01
    4528:	28 83       	st	Y, r18
    452a:	d7 cf       	rjmp	.-82     	; 0x44da <malloc+0x70>
    452c:	20 91 d2 05 	lds	r18, 0x05D2	; 0x8005d2 <__brkval>
    4530:	30 91 d3 05 	lds	r19, 0x05D3	; 0x8005d3 <__brkval+0x1>
    4534:	23 2b       	or	r18, r19
    4536:	41 f4       	brne	.+16     	; 0x4548 <malloc+0xde>
    4538:	20 91 0e 01 	lds	r18, 0x010E	; 0x80010e <__malloc_heap_start>
    453c:	30 91 0f 01 	lds	r19, 0x010F	; 0x80010f <__malloc_heap_start+0x1>
    4540:	30 93 d3 05 	sts	0x05D3, r19	; 0x8005d3 <__brkval+0x1>
    4544:	20 93 d2 05 	sts	0x05D2, r18	; 0x8005d2 <__brkval>
    4548:	20 91 0c 01 	lds	r18, 0x010C	; 0x80010c <__malloc_heap_end>
    454c:	30 91 0d 01 	lds	r19, 0x010D	; 0x80010d <__malloc_heap_end+0x1>
    4550:	21 15       	cp	r18, r1
    4552:	31 05       	cpc	r19, r1
    4554:	41 f4       	brne	.+16     	; 0x4566 <malloc+0xfc>
    4556:	2d b7       	in	r18, 0x3d	; 61
    4558:	3e b7       	in	r19, 0x3e	; 62
    455a:	40 91 10 01 	lds	r20, 0x0110	; 0x800110 <__malloc_margin>
    455e:	50 91 11 01 	lds	r21, 0x0111	; 0x800111 <__malloc_margin+0x1>
    4562:	24 1b       	sub	r18, r20
    4564:	35 0b       	sbc	r19, r21
    4566:	e0 91 d2 05 	lds	r30, 0x05D2	; 0x8005d2 <__brkval>
    456a:	f0 91 d3 05 	lds	r31, 0x05D3	; 0x8005d3 <__brkval+0x1>
    456e:	e2 17       	cp	r30, r18
    4570:	f3 07       	cpc	r31, r19
    4572:	a0 f4       	brcc	.+40     	; 0x459c <malloc+0x132>
    4574:	2e 1b       	sub	r18, r30
    4576:	3f 0b       	sbc	r19, r31
    4578:	28 17       	cp	r18, r24
    457a:	39 07       	cpc	r19, r25
    457c:	78 f0       	brcs	.+30     	; 0x459c <malloc+0x132>
    457e:	ac 01       	movw	r20, r24
    4580:	4e 5f       	subi	r20, 0xFE	; 254
    4582:	5f 4f       	sbci	r21, 0xFF	; 255
    4584:	24 17       	cp	r18, r20
    4586:	35 07       	cpc	r19, r21
    4588:	48 f0       	brcs	.+18     	; 0x459c <malloc+0x132>
    458a:	4e 0f       	add	r20, r30
    458c:	5f 1f       	adc	r21, r31
    458e:	50 93 d3 05 	sts	0x05D3, r21	; 0x8005d3 <__brkval+0x1>
    4592:	40 93 d2 05 	sts	0x05D2, r20	; 0x8005d2 <__brkval>
    4596:	81 93       	st	Z+, r24
    4598:	91 93       	st	Z+, r25
    459a:	9f cf       	rjmp	.-194    	; 0x44da <malloc+0x70>
    459c:	f0 e0       	ldi	r31, 0x00	; 0
    459e:	e0 e0       	ldi	r30, 0x00	; 0
    45a0:	9c cf       	rjmp	.-200    	; 0x44da <malloc+0x70>

000045a2 <free>:
free():
    45a2:	cf 93       	push	r28
    45a4:	df 93       	push	r29
    45a6:	00 97       	sbiw	r24, 0x00	; 0
    45a8:	e9 f0       	breq	.+58     	; 0x45e4 <free+0x42>
    45aa:	fc 01       	movw	r30, r24
    45ac:	32 97       	sbiw	r30, 0x02	; 2
    45ae:	13 82       	std	Z+3, r1	; 0x03
    45b0:	12 82       	std	Z+2, r1	; 0x02
    45b2:	a0 91 d4 05 	lds	r26, 0x05D4	; 0x8005d4 <__flp>
    45b6:	b0 91 d5 05 	lds	r27, 0x05D5	; 0x8005d5 <__flp+0x1>
    45ba:	ed 01       	movw	r28, r26
    45bc:	30 e0       	ldi	r19, 0x00	; 0
    45be:	20 e0       	ldi	r18, 0x00	; 0
    45c0:	10 97       	sbiw	r26, 0x00	; 0
    45c2:	a1 f4       	brne	.+40     	; 0x45ec <free+0x4a>
    45c4:	20 81       	ld	r18, Z
    45c6:	31 81       	ldd	r19, Z+1	; 0x01
    45c8:	82 0f       	add	r24, r18
    45ca:	93 1f       	adc	r25, r19
    45cc:	20 91 d2 05 	lds	r18, 0x05D2	; 0x8005d2 <__brkval>
    45d0:	30 91 d3 05 	lds	r19, 0x05D3	; 0x8005d3 <__brkval+0x1>
    45d4:	28 17       	cp	r18, r24
    45d6:	39 07       	cpc	r19, r25
    45d8:	09 f0       	breq	.+2      	; 0x45dc <free+0x3a>
    45da:	61 c0       	rjmp	.+194    	; 0x469e <free+0xfc>
    45dc:	f0 93 d3 05 	sts	0x05D3, r31	; 0x8005d3 <__brkval+0x1>
    45e0:	e0 93 d2 05 	sts	0x05D2, r30	; 0x8005d2 <__brkval>
    45e4:	df 91       	pop	r29
    45e6:	cf 91       	pop	r28
    45e8:	08 95       	ret
    45ea:	ea 01       	movw	r28, r20
    45ec:	ce 17       	cp	r28, r30
    45ee:	df 07       	cpc	r29, r31
    45f0:	e8 f5       	brcc	.+122    	; 0x466c <free+0xca>
    45f2:	4a 81       	ldd	r20, Y+2	; 0x02
    45f4:	5b 81       	ldd	r21, Y+3	; 0x03
    45f6:	9e 01       	movw	r18, r28
    45f8:	41 15       	cp	r20, r1
    45fa:	51 05       	cpc	r21, r1
    45fc:	b1 f7       	brne	.-20     	; 0x45ea <free+0x48>
    45fe:	e9 01       	movw	r28, r18
    4600:	fb 83       	std	Y+3, r31	; 0x03
    4602:	ea 83       	std	Y+2, r30	; 0x02
    4604:	49 91       	ld	r20, Y+
    4606:	59 91       	ld	r21, Y+
    4608:	c4 0f       	add	r28, r20
    460a:	d5 1f       	adc	r29, r21
    460c:	ec 17       	cp	r30, r28
    460e:	fd 07       	cpc	r31, r29
    4610:	61 f4       	brne	.+24     	; 0x462a <free+0x88>
    4612:	80 81       	ld	r24, Z
    4614:	91 81       	ldd	r25, Z+1	; 0x01
    4616:	02 96       	adiw	r24, 0x02	; 2
    4618:	84 0f       	add	r24, r20
    461a:	95 1f       	adc	r25, r21
    461c:	e9 01       	movw	r28, r18
    461e:	99 83       	std	Y+1, r25	; 0x01
    4620:	88 83       	st	Y, r24
    4622:	82 81       	ldd	r24, Z+2	; 0x02
    4624:	93 81       	ldd	r25, Z+3	; 0x03
    4626:	9b 83       	std	Y+3, r25	; 0x03
    4628:	8a 83       	std	Y+2, r24	; 0x02
    462a:	f0 e0       	ldi	r31, 0x00	; 0
    462c:	e0 e0       	ldi	r30, 0x00	; 0
    462e:	12 96       	adiw	r26, 0x02	; 2
    4630:	8d 91       	ld	r24, X+
    4632:	9c 91       	ld	r25, X
    4634:	13 97       	sbiw	r26, 0x03	; 3
    4636:	00 97       	sbiw	r24, 0x00	; 0
    4638:	b9 f5       	brne	.+110    	; 0x46a8 <free+0x106>
    463a:	2d 91       	ld	r18, X+
    463c:	3c 91       	ld	r19, X
    463e:	11 97       	sbiw	r26, 0x01	; 1
    4640:	cd 01       	movw	r24, r26
    4642:	02 96       	adiw	r24, 0x02	; 2
    4644:	82 0f       	add	r24, r18
    4646:	93 1f       	adc	r25, r19
    4648:	20 91 d2 05 	lds	r18, 0x05D2	; 0x8005d2 <__brkval>
    464c:	30 91 d3 05 	lds	r19, 0x05D3	; 0x8005d3 <__brkval+0x1>
    4650:	28 17       	cp	r18, r24
    4652:	39 07       	cpc	r19, r25
    4654:	39 f6       	brne	.-114    	; 0x45e4 <free+0x42>
    4656:	30 97       	sbiw	r30, 0x00	; 0
    4658:	51 f5       	brne	.+84     	; 0x46ae <free+0x10c>
    465a:	10 92 d5 05 	sts	0x05D5, r1	; 0x8005d5 <__flp+0x1>
    465e:	10 92 d4 05 	sts	0x05D4, r1	; 0x8005d4 <__flp>
    4662:	b0 93 d3 05 	sts	0x05D3, r27	; 0x8005d3 <__brkval+0x1>
    4666:	a0 93 d2 05 	sts	0x05D2, r26	; 0x8005d2 <__brkval>
    466a:	bc cf       	rjmp	.-136    	; 0x45e4 <free+0x42>
    466c:	d3 83       	std	Z+3, r29	; 0x03
    466e:	c2 83       	std	Z+2, r28	; 0x02
    4670:	40 81       	ld	r20, Z
    4672:	51 81       	ldd	r21, Z+1	; 0x01
    4674:	84 0f       	add	r24, r20
    4676:	95 1f       	adc	r25, r21
    4678:	c8 17       	cp	r28, r24
    467a:	d9 07       	cpc	r29, r25
    467c:	61 f4       	brne	.+24     	; 0x4696 <free+0xf4>
    467e:	4e 5f       	subi	r20, 0xFE	; 254
    4680:	5f 4f       	sbci	r21, 0xFF	; 255
    4682:	88 81       	ld	r24, Y
    4684:	99 81       	ldd	r25, Y+1	; 0x01
    4686:	48 0f       	add	r20, r24
    4688:	59 1f       	adc	r21, r25
    468a:	51 83       	std	Z+1, r21	; 0x01
    468c:	40 83       	st	Z, r20
    468e:	8a 81       	ldd	r24, Y+2	; 0x02
    4690:	9b 81       	ldd	r25, Y+3	; 0x03
    4692:	93 83       	std	Z+3, r25	; 0x03
    4694:	82 83       	std	Z+2, r24	; 0x02
    4696:	21 15       	cp	r18, r1
    4698:	31 05       	cpc	r19, r1
    469a:	09 f0       	breq	.+2      	; 0x469e <free+0xfc>
    469c:	b0 cf       	rjmp	.-160    	; 0x45fe <free+0x5c>
    469e:	f0 93 d5 05 	sts	0x05D5, r31	; 0x8005d5 <__flp+0x1>
    46a2:	e0 93 d4 05 	sts	0x05D4, r30	; 0x8005d4 <__flp>
    46a6:	9e cf       	rjmp	.-196    	; 0x45e4 <free+0x42>
    46a8:	fd 01       	movw	r30, r26
    46aa:	dc 01       	movw	r26, r24
    46ac:	c0 cf       	rjmp	.-128    	; 0x462e <free+0x8c>
    46ae:	13 82       	std	Z+3, r1	; 0x03
    46b0:	12 82       	std	Z+2, r1	; 0x02
    46b2:	d7 cf       	rjmp	.-82     	; 0x4662 <free+0xc0>

000046b4 <realloc>:
realloc():
    46b4:	b0 e0       	ldi	r27, 0x00	; 0
    46b6:	a0 e0       	ldi	r26, 0x00	; 0
    46b8:	e0 e6       	ldi	r30, 0x60	; 96
    46ba:	f3 e2       	ldi	r31, 0x23	; 35
    46bc:	0c 94 27 20 	jmp	0x404e	; 0x404e <__prologue_saves__+0x4>
    46c0:	8c 01       	movw	r16, r24
    46c2:	00 97       	sbiw	r24, 0x00	; 0
    46c4:	51 f4       	brne	.+20     	; 0x46da <realloc+0x26>
    46c6:	cb 01       	movw	r24, r22
    46c8:	0e 94 35 22 	call	0x446a	; 0x446a <malloc>
    46cc:	8c 01       	movw	r16, r24
    46ce:	c8 01       	movw	r24, r16
    46d0:	cd b7       	in	r28, 0x3d	; 61
    46d2:	de b7       	in	r29, 0x3e	; 62
    46d4:	e0 e1       	ldi	r30, 0x10	; 16
    46d6:	0c 94 43 20 	jmp	0x4086	; 0x4086 <__epilogue_restores__+0x4>
    46da:	fc 01       	movw	r30, r24
    46dc:	e6 0f       	add	r30, r22
    46de:	f7 1f       	adc	r31, r23
    46e0:	9c 01       	movw	r18, r24
    46e2:	22 50       	subi	r18, 0x02	; 2
    46e4:	31 09       	sbc	r19, r1
    46e6:	e2 17       	cp	r30, r18
    46e8:	f3 07       	cpc	r31, r19
    46ea:	08 f4       	brcc	.+2      	; 0x46ee <realloc+0x3a>
    46ec:	9d c0       	rjmp	.+314    	; 0x4828 <realloc+0x174>
    46ee:	d9 01       	movw	r26, r18
    46f0:	cd 91       	ld	r28, X+
    46f2:	dc 91       	ld	r29, X
    46f4:	11 97       	sbiw	r26, 0x01	; 1
    46f6:	c6 17       	cp	r28, r22
    46f8:	d7 07       	cpc	r29, r23
    46fa:	98 f0       	brcs	.+38     	; 0x4722 <realloc+0x6e>
    46fc:	c5 30       	cpi	r28, 0x05	; 5
    46fe:	d1 05       	cpc	r29, r1
    4700:	30 f3       	brcs	.-52     	; 0x46ce <realloc+0x1a>
    4702:	ce 01       	movw	r24, r28
    4704:	04 97       	sbiw	r24, 0x04	; 4
    4706:	86 17       	cp	r24, r22
    4708:	97 07       	cpc	r25, r23
    470a:	08 f3       	brcs	.-62     	; 0x46ce <realloc+0x1a>
    470c:	c6 1b       	sub	r28, r22
    470e:	d7 0b       	sbc	r29, r23
    4710:	22 97       	sbiw	r28, 0x02	; 2
    4712:	c1 93       	st	Z+, r28
    4714:	d1 93       	st	Z+, r29
    4716:	6d 93       	st	X+, r22
    4718:	7c 93       	st	X, r23
    471a:	cf 01       	movw	r24, r30
    471c:	0e 94 d1 22 	call	0x45a2	; 0x45a2 <free>
    4720:	d6 cf       	rjmp	.-84     	; 0x46ce <realloc+0x1a>
    4722:	5b 01       	movw	r10, r22
    4724:	ac 1a       	sub	r10, r28
    4726:	bd 0a       	sbc	r11, r29
    4728:	4c 01       	movw	r8, r24
    472a:	8c 0e       	add	r8, r28
    472c:	9d 1e       	adc	r9, r29
    472e:	a0 91 d4 05 	lds	r26, 0x05D4	; 0x8005d4 <__flp>
    4732:	b0 91 d5 05 	lds	r27, 0x05D5	; 0x8005d5 <__flp+0x1>
    4736:	51 2c       	mov	r5, r1
    4738:	41 2c       	mov	r4, r1
    473a:	f1 2c       	mov	r15, r1
    473c:	e1 2c       	mov	r14, r1
    473e:	10 97       	sbiw	r26, 0x00	; 0
    4740:	31 f5       	brne	.+76     	; 0x478e <realloc+0xda>
    4742:	80 91 d2 05 	lds	r24, 0x05D2	; 0x8005d2 <__brkval>
    4746:	90 91 d3 05 	lds	r25, 0x05D3	; 0x8005d3 <__brkval+0x1>
    474a:	88 15       	cp	r24, r8
    474c:	99 05       	cpc	r25, r9
    474e:	09 f0       	breq	.+2      	; 0x4752 <realloc+0x9e>
    4750:	5c c0       	rjmp	.+184    	; 0x480a <realloc+0x156>
    4752:	46 16       	cp	r4, r22
    4754:	57 06       	cpc	r5, r23
    4756:	08 f0       	brcs	.+2      	; 0x475a <realloc+0xa6>
    4758:	58 c0       	rjmp	.+176    	; 0x480a <realloc+0x156>
    475a:	80 91 0c 01 	lds	r24, 0x010C	; 0x80010c <__malloc_heap_end>
    475e:	90 91 0d 01 	lds	r25, 0x010D	; 0x80010d <__malloc_heap_end+0x1>
    4762:	00 97       	sbiw	r24, 0x00	; 0
    4764:	41 f4       	brne	.+16     	; 0x4776 <realloc+0xc2>
    4766:	8d b7       	in	r24, 0x3d	; 61
    4768:	9e b7       	in	r25, 0x3e	; 62
    476a:	40 91 10 01 	lds	r20, 0x0110	; 0x800110 <__malloc_margin>
    476e:	50 91 11 01 	lds	r21, 0x0111	; 0x800111 <__malloc_margin+0x1>
    4772:	84 1b       	sub	r24, r20
    4774:	95 0b       	sbc	r25, r21
    4776:	e8 17       	cp	r30, r24
    4778:	f9 07       	cpc	r31, r25
    477a:	08 f0       	brcs	.+2      	; 0x477e <realloc+0xca>
    477c:	55 c0       	rjmp	.+170    	; 0x4828 <realloc+0x174>
    477e:	f0 93 d3 05 	sts	0x05D3, r31	; 0x8005d3 <__brkval+0x1>
    4782:	e0 93 d2 05 	sts	0x05D2, r30	; 0x8005d2 <__brkval>
    4786:	f9 01       	movw	r30, r18
    4788:	71 83       	std	Z+1, r23	; 0x01
    478a:	60 83       	st	Z, r22
    478c:	a0 cf       	rjmp	.-192    	; 0x46ce <realloc+0x1a>
    478e:	8d 91       	ld	r24, X+
    4790:	9c 91       	ld	r25, X
    4792:	11 97       	sbiw	r26, 0x01	; 1
    4794:	12 96       	adiw	r26, 0x02	; 2
    4796:	6c 90       	ld	r6, X
    4798:	12 97       	sbiw	r26, 0x02	; 2
    479a:	13 96       	adiw	r26, 0x03	; 3
    479c:	7c 90       	ld	r7, X
    479e:	13 97       	sbiw	r26, 0x03	; 3
    47a0:	a8 15       	cp	r26, r8
    47a2:	b9 05       	cpc	r27, r9
    47a4:	59 f5       	brne	.+86     	; 0x47fc <realloc+0x148>
    47a6:	6c 01       	movw	r12, r24
    47a8:	42 e0       	ldi	r20, 0x02	; 2
    47aa:	c4 0e       	add	r12, r20
    47ac:	d1 1c       	adc	r13, r1
    47ae:	ca 14       	cp	r12, r10
    47b0:	db 04       	cpc	r13, r11
    47b2:	20 f1       	brcs	.+72     	; 0x47fc <realloc+0x148>
    47b4:	ac 01       	movw	r20, r24
    47b6:	4a 19       	sub	r20, r10
    47b8:	5b 09       	sbc	r21, r11
    47ba:	da 01       	movw	r26, r20
    47bc:	12 96       	adiw	r26, 0x02	; 2
    47be:	15 97       	sbiw	r26, 0x05	; 5
    47c0:	80 f0       	brcs	.+32     	; 0x47e2 <realloc+0x12e>
    47c2:	62 82       	std	Z+2, r6	; 0x02
    47c4:	73 82       	std	Z+3, r7	; 0x03
    47c6:	51 83       	std	Z+1, r21	; 0x01
    47c8:	40 83       	st	Z, r20
    47ca:	d9 01       	movw	r26, r18
    47cc:	6d 93       	st	X+, r22
    47ce:	7c 93       	st	X, r23
    47d0:	e1 14       	cp	r14, r1
    47d2:	f1 04       	cpc	r15, r1
    47d4:	71 f0       	breq	.+28     	; 0x47f2 <realloc+0x13e>
    47d6:	d7 01       	movw	r26, r14
    47d8:	13 96       	adiw	r26, 0x03	; 3
    47da:	fc 93       	st	X, r31
    47dc:	ee 93       	st	-X, r30
    47de:	12 97       	sbiw	r26, 0x02	; 2
    47e0:	76 cf       	rjmp	.-276    	; 0x46ce <realloc+0x1a>
    47e2:	22 96       	adiw	r28, 0x02	; 2
    47e4:	8c 0f       	add	r24, r28
    47e6:	9d 1f       	adc	r25, r29
    47e8:	f9 01       	movw	r30, r18
    47ea:	91 83       	std	Z+1, r25	; 0x01
    47ec:	80 83       	st	Z, r24
    47ee:	f3 01       	movw	r30, r6
    47f0:	ef cf       	rjmp	.-34     	; 0x47d0 <realloc+0x11c>
    47f2:	f0 93 d5 05 	sts	0x05D5, r31	; 0x8005d5 <__flp+0x1>
    47f6:	e0 93 d4 05 	sts	0x05D4, r30	; 0x8005d4 <__flp>
    47fa:	69 cf       	rjmp	.-302    	; 0x46ce <realloc+0x1a>
    47fc:	48 16       	cp	r4, r24
    47fe:	59 06       	cpc	r5, r25
    4800:	08 f4       	brcc	.+2      	; 0x4804 <realloc+0x150>
    4802:	2c 01       	movw	r4, r24
    4804:	7d 01       	movw	r14, r26
    4806:	d3 01       	movw	r26, r6
    4808:	9a cf       	rjmp	.-204    	; 0x473e <realloc+0x8a>
    480a:	cb 01       	movw	r24, r22
    480c:	0e 94 35 22 	call	0x446a	; 0x446a <malloc>
    4810:	7c 01       	movw	r14, r24
    4812:	00 97       	sbiw	r24, 0x00	; 0
    4814:	49 f0       	breq	.+18     	; 0x4828 <realloc+0x174>
    4816:	ae 01       	movw	r20, r28
    4818:	b8 01       	movw	r22, r16
    481a:	0e 94 17 24 	call	0x482e	; 0x482e <memcpy>
    481e:	c8 01       	movw	r24, r16
    4820:	0e 94 d1 22 	call	0x45a2	; 0x45a2 <free>
    4824:	87 01       	movw	r16, r14
    4826:	53 cf       	rjmp	.-346    	; 0x46ce <realloc+0x1a>
    4828:	10 e0       	ldi	r17, 0x00	; 0
    482a:	00 e0       	ldi	r16, 0x00	; 0
    482c:	50 cf       	rjmp	.-352    	; 0x46ce <realloc+0x1a>

0000482e <memcpy>:
memcpy():
    482e:	fb 01       	movw	r30, r22
    4830:	dc 01       	movw	r26, r24
    4832:	02 c0       	rjmp	.+4      	; 0x4838 <memcpy+0xa>
    4834:	01 90       	ld	r0, Z+
    4836:	0d 92       	st	X+, r0
    4838:	41 50       	subi	r20, 0x01	; 1
    483a:	50 40       	sbci	r21, 0x00	; 0
    483c:	d8 f7       	brcc	.-10     	; 0x4834 <memcpy+0x6>
    483e:	08 95       	ret

00004840 <strchr>:
strchr():
    4840:	fc 01       	movw	r30, r24
    4842:	81 91       	ld	r24, Z+
    4844:	86 17       	cp	r24, r22
    4846:	21 f0       	breq	.+8      	; 0x4850 <strchr+0x10>
    4848:	88 23       	and	r24, r24
    484a:	d9 f7       	brne	.-10     	; 0x4842 <strchr+0x2>
    484c:	99 27       	eor	r25, r25
    484e:	08 95       	ret
    4850:	31 97       	sbiw	r30, 0x01	; 1
    4852:	cf 01       	movw	r24, r30
    4854:	08 95       	ret

00004856 <strcmp>:
strcmp():
    4856:	fb 01       	movw	r30, r22
    4858:	dc 01       	movw	r26, r24
    485a:	8d 91       	ld	r24, X+
    485c:	01 90       	ld	r0, Z+
    485e:	80 19       	sub	r24, r0
    4860:	01 10       	cpse	r0, r1
    4862:	d9 f3       	breq	.-10     	; 0x485a <strcmp+0x4>
    4864:	99 0b       	sbc	r25, r25
    4866:	08 95       	ret

00004868 <strcpy>:
strcpy():
    4868:	fb 01       	movw	r30, r22
    486a:	dc 01       	movw	r26, r24
    486c:	01 90       	ld	r0, Z+
    486e:	0d 92       	st	X+, r0
    4870:	00 20       	and	r0, r0
    4872:	e1 f7       	brne	.-8      	; 0x486c <strcpy+0x4>
    4874:	08 95       	ret

00004876 <strncmp>:
strncmp():
    4876:	fb 01       	movw	r30, r22
    4878:	dc 01       	movw	r26, r24
    487a:	41 50       	subi	r20, 0x01	; 1
    487c:	50 40       	sbci	r21, 0x00	; 0
    487e:	30 f0       	brcs	.+12     	; 0x488c <strncmp+0x16>
    4880:	8d 91       	ld	r24, X+
    4882:	01 90       	ld	r0, Z+
    4884:	80 19       	sub	r24, r0
    4886:	19 f4       	brne	.+6      	; 0x488e <strncmp+0x18>
    4888:	00 20       	and	r0, r0
    488a:	b9 f7       	brne	.-18     	; 0x487a <strncmp+0x4>
    488c:	88 1b       	sub	r24, r24
    488e:	99 0b       	sbc	r25, r25
    4890:	08 95       	ret

00004892 <snprintf>:
snprintf():
    4892:	ae e0       	ldi	r26, 0x0E	; 14
    4894:	b0 e0       	ldi	r27, 0x00	; 0
    4896:	ef e4       	ldi	r30, 0x4F	; 79
    4898:	f4 e2       	ldi	r31, 0x24	; 36
    489a:	0c 94 33 20 	jmp	0x4066	; 0x4066 <__prologue_saves__+0x1c>
    489e:	0d 89       	ldd	r16, Y+21	; 0x15
    48a0:	1e 89       	ldd	r17, Y+22	; 0x16
    48a2:	8f 89       	ldd	r24, Y+23	; 0x17
    48a4:	98 8d       	ldd	r25, Y+24	; 0x18
    48a6:	26 e0       	ldi	r18, 0x06	; 6
    48a8:	2c 83       	std	Y+4, r18	; 0x04
    48aa:	1a 83       	std	Y+2, r17	; 0x02
    48ac:	09 83       	std	Y+1, r16	; 0x01
    48ae:	97 ff       	sbrs	r25, 7
    48b0:	02 c0       	rjmp	.+4      	; 0x48b6 <snprintf+0x24>
    48b2:	80 e0       	ldi	r24, 0x00	; 0
    48b4:	90 e8       	ldi	r25, 0x80	; 128
    48b6:	01 97       	sbiw	r24, 0x01	; 1
    48b8:	9e 83       	std	Y+6, r25	; 0x06
    48ba:	8d 83       	std	Y+5, r24	; 0x05
    48bc:	ae 01       	movw	r20, r28
    48be:	45 5e       	subi	r20, 0xE5	; 229
    48c0:	5f 4f       	sbci	r21, 0xFF	; 255
    48c2:	69 8d       	ldd	r22, Y+25	; 0x19
    48c4:	7a 8d       	ldd	r23, Y+26	; 0x1a
    48c6:	ce 01       	movw	r24, r28
    48c8:	01 96       	adiw	r24, 0x01	; 1
    48ca:	0e 94 cd 18 	call	0x319a	; 0x319a <vfprintf>
    48ce:	4d 81       	ldd	r20, Y+5	; 0x05
    48d0:	5e 81       	ldd	r21, Y+6	; 0x06
    48d2:	57 fd       	sbrc	r21, 7
    48d4:	0a c0       	rjmp	.+20     	; 0x48ea <snprintf+0x58>
    48d6:	2f 81       	ldd	r18, Y+7	; 0x07
    48d8:	38 85       	ldd	r19, Y+8	; 0x08
    48da:	42 17       	cp	r20, r18
    48dc:	53 07       	cpc	r21, r19
    48de:	0c f4       	brge	.+2      	; 0x48e2 <snprintf+0x50>
    48e0:	9a 01       	movw	r18, r20
    48e2:	02 0f       	add	r16, r18
    48e4:	13 1f       	adc	r17, r19
    48e6:	f8 01       	movw	r30, r16
    48e8:	10 82       	st	Z, r1
    48ea:	2e 96       	adiw	r28, 0x0e	; 14
    48ec:	e4 e0       	ldi	r30, 0x04	; 4
    48ee:	0c 94 4f 20 	jmp	0x409e	; 0x409e <__epilogue_restores__+0x1c>

000048f2 <__do_global_dtors>:
__do_global_dtors():
/home/jenkins/workspace/avr-gcc-staging/label/debian7-x86_64/gcc-build/avr/avr5/libgcc/../../../../gcc/libgcc/config/avr/lib1funcs.S:2496
    48f2:	11 e0       	ldi	r17, 0x01	; 1
/home/jenkins/workspace/avr-gcc-staging/label/debian7-x86_64/gcc-build/avr/avr5/libgcc/../../../../gcc/libgcc/config/avr/lib1funcs.S:2497
    48f4:	ca e2       	ldi	r28, 0x2A	; 42
/home/jenkins/workspace/avr-gcc-staging/label/debian7-x86_64/gcc-build/avr/avr5/libgcc/../../../../gcc/libgcc/config/avr/lib1funcs.S:2498
    48f6:	d1 e0       	ldi	r29, 0x01	; 1
/home/jenkins/workspace/avr-gcc-staging/label/debian7-x86_64/gcc-build/avr/avr5/libgcc/../../../../gcc/libgcc/config/avr/lib1funcs.S:2502
    48f8:	04 c0       	rjmp	.+8      	; 0x4902 <__do_global_dtors+0x10>
/home/jenkins/workspace/avr-gcc-staging/label/debian7-x86_64/gcc-build/avr/avr5/libgcc/../../../../gcc/libgcc/config/avr/lib1funcs.S:2508
    48fa:	fe 01       	movw	r30, r28
/home/jenkins/workspace/avr-gcc-staging/label/debian7-x86_64/gcc-build/avr/avr5/libgcc/../../../../gcc/libgcc/config/avr/lib1funcs.S:2509
    48fc:	0e 94 1b 22 	call	0x4436	; 0x4436 <__tablejump2__>
/home/jenkins/workspace/avr-gcc-staging/label/debian7-x86_64/gcc-build/avr/avr5/libgcc/../../../../gcc/libgcc/config/avr/lib1funcs.S:2510
    4900:	21 96       	adiw	r28, 0x01	; 1
/home/jenkins/workspace/avr-gcc-staging/label/debian7-x86_64/gcc-build/avr/avr5/libgcc/../../../../gcc/libgcc/config/avr/lib1funcs.S:2515
    4902:	cb 32       	cpi	r28, 0x2B	; 43
/home/jenkins/workspace/avr-gcc-staging/label/debian7-x86_64/gcc-build/avr/avr5/libgcc/../../../../gcc/libgcc/config/avr/lib1funcs.S:2516
    4904:	d1 07       	cpc	r29, r17
/home/jenkins/workspace/avr-gcc-staging/label/debian7-x86_64/gcc-build/avr/avr5/libgcc/../../../../gcc/libgcc/config/avr/lib1funcs.S:2521
    4906:	c9 f7       	brne	.-14     	; 0x48fa <__do_global_dtors+0x8>
/home/jenkins/workspace/avr-gcc-staging/label/debian7-x86_64/gcc-build/avr/avr5/libgcc/../../../../gcc/libgcc/config/avr/lib1funcs.S:2278
    4908:	f8 94       	cli

0000490a <__stop_program>:
__stop_program():
/home/jenkins/workspace/avr-gcc-staging/label/debian7-x86_64/gcc-build/avr/avr5/libgcc/../../../../gcc/libgcc/config/avr/lib1funcs.S:2280
    490a:	ff cf       	rjmp	.-2      	; 0x490a <__stop_program>
